

Microchip MPLAB XC8 Assembler V2.46 build 20240104201356 
                                                                                               Thu Sep 11 13:46:09 2025

Microchip MPLAB XC8 C Compiler v2.46 (Free license) build 20240104201356 Og1 
     1                           	processor	16F1936
     2                           	pagewidth 120
     3                           	opt	flic
     4                           	psect	idataBANK1,global,class=CODE,delta=2,noexec
     5                           	psect	cinit,global,class=CODE,merge=1,delta=2
     6                           	psect	bssCOMMON,global,class=COMMON,space=1,delta=1,noexec
     7                           	psect	bssBANK0,global,class=BANK0,space=1,delta=1,noexec
     8                           	psect	dataBANK1,global,class=BANK1,space=1,delta=1,noexec
     9                           	psect	inittext,global,class=CODE,delta=2
    10                           	psect	clrtext,global,class=CODE,delta=2
    11                           	psect	cstackCOMMON,global,class=COMMON,space=1,delta=1,noexec
    12                           	psect	cstackBANK0,global,class=BANK0,space=1,delta=1,noexec
    13                           	psect	maintext,global,class=CODE,merge=1,split=1,delta=2
    14                           	psect	text1,local,class=CODE,merge=1,delta=2
    15                           	psect	text2,local,class=CODE,merge=1,delta=2
    16                           	psect	text3,local,class=CODE,merge=1,delta=2
    17                           	psect	text4,local,class=CODE,merge=1,delta=2
    18                           	psect	text5,local,class=CODE,merge=1,delta=2
    19                           	psect	text6,local,class=CODE,merge=1,delta=2
    20                           	psect	text7,local,class=CODE,merge=1,delta=2
    21                           	psect	text8,local,class=CODE,merge=1,delta=2
    22                           	psect	text9,local,class=CODE,merge=1,delta=2
    23                           	psect	text10,local,class=CODE,merge=1,delta=2
    24                           	psect	text11,local,class=CODE,merge=1,delta=2
    25                           	psect	text12,local,class=CODE,merge=1,delta=2
    26                           	psect	text13,local,class=CODE,merge=1,delta=2
    27                           	psect	text14,local,class=CODE,merge=1,delta=2
    28                           	psect	text15,local,class=CODE,merge=1,delta=2
    29                           	psect	text16,local,class=CODE,merge=1,delta=2
    30                           	psect	text17,local,class=CODE,merge=1,delta=2
    31                           	psect	text18,local,class=CODE,merge=1,delta=2
    32                           	psect	text19,local,class=CODE,merge=1,delta=2
    33                           	psect	text20,local,class=CODE,merge=1,delta=2
    34                           	psect	intentry,global,class=CODE,delta=2
    35                           	psect	text22,local,class=CODE,merge=1,delta=2
    36                           	psect	text23,local,class=CODE,merge=1,delta=2
    37                           	psect	text24,local,class=CODE,merge=1,delta=2
    38                           	psect	text25,local,class=CODE,merge=1,delta=2
    39                           	psect	text26,local,class=CODE,merge=1,delta=2
    40                           	psect	text27,local,class=CODE,merge=1,delta=2
    41                           	psect	config,global,abs,ovrld,class=CONFIG,space=4,delta=2,noexec
    42                           	dabs	1,0x7E,2
    43     0000                     
    44                           ; Version 2.20
    45                           ; Generated 12/02/2020 GMT
    46                           ; 
    47                           ; Copyright © 2020, Microchip Technology Inc. and its subsidiaries ("Microchip")
    48                           ; All rights reserved.
    49                           ; 
    50                           ; This software is developed by Microchip Technology Inc. and its subsidiaries ("Microch
      +                          ip").
    51                           ; 
    52                           ; Redistribution and use in source and binary forms, with or without modification, are
    53                           ; permitted provided that the following conditions are met:
    54                           ; 
    55                           ;     1. Redistributions of source code must retain the above copyright notice, this lis
      +                          t of
    56                           ;        conditions and the following disclaimer.
    57                           ; 
    58                           ;     2. Redistributions in binary form must reproduce the above copyright notice, this 
      +                          list
    59                           ;        of conditions and the following disclaimer in the documentation and/or other
    60                           ;        materials provided with the distribution.
    61                           ; 
    62                           ;     3. Microchip's name may not be used to endorse or promote products derived from th
      +                          is
    63                           ;        software without specific prior written permission.
    64                           ; 
    65                           ; THIS SOFTWARE IS PROVIDED BY MICROCHIP "AS IS" AND ANY EXPRESS OR IMPLIED WARRANTIES,
    66                           ; INCLUDING, BUT NOT LIMITED TO, THE IMPLIED WARRANTIES OF MERCHANTABILITY AND FITNESS F
      +                          OR
    67                           ; PURPOSE ARE DISCLAIMED.  IN NO EVENT SHALL MICROCHIP BE LIABLE FOR ANY DIRECT, INDIREC
      +                          T,
    68                           ; INCIDENTAL, SPECIAL, EXEMPLARY, OR CONSEQUENTIAL DAMAGES (INCLUDING BUT NOT LIMITED TO
    69                           ; PROCUREMENT OF SUBSTITUTE GOODS OR SERVICES; LOSS OF USE, DATA OR PROFITS; OR BUSINESS
    70                           ; INTERRUPTION) HOWSOEVER CAUSED AND ON ANY THEORY OF LIABILITY, WHETHER IN CONTRACT, ST
      +                          RICT
    71                           ; LIABILITY, OR TORT (INCLUDING NEGLIGENCE OR OTHERWISE) ARISING IN ANY WAY OUT OF THE U
      +                          SE OF
    72                           ; THIS SOFTWARE, EVEN IF ADVISED OF THE POSSIBILITY OF SUCH DAMAGE.
    73                           ; 
    74                           ; 
    75                           ; Code-generator required, PIC16F1936 Definitions
    76                           ; 
    77                           ; SFR Addresses
    78     0000                     	;# 
    79     0001                     	;# 
    80     0002                     	;# 
    81     0003                     	;# 
    82     0004                     	;# 
    83     0005                     	;# 
    84     0006                     	;# 
    85     0007                     	;# 
    86     0008                     	;# 
    87     0009                     	;# 
    88     000A                     	;# 
    89     000B                     	;# 
    90     000C                     	;# 
    91     000D                     	;# 
    92     000E                     	;# 
    93     0010                     	;# 
    94     0011                     	;# 
    95     0012                     	;# 
    96     0013                     	;# 
    97     0015                     	;# 
    98     0016                     	;# 
    99     0016                     	;# 
   100     0017                     	;# 
   101     0018                     	;# 
   102     0019                     	;# 
   103     001A                     	;# 
   104     001B                     	;# 
   105     001C                     	;# 
   106     001E                     	;# 
   107     001F                     	;# 
   108     008C                     	;# 
   109     008D                     	;# 
   110     008E                     	;# 
   111     0090                     	;# 
   112     0091                     	;# 
   113     0092                     	;# 
   114     0093                     	;# 
   115     0095                     	;# 
   116     0096                     	;# 
   117     0097                     	;# 
   118     0098                     	;# 
   119     0099                     	;# 
   120     009A                     	;# 
   121     009B                     	;# 
   122     009B                     	;# 
   123     009C                     	;# 
   124     009D                     	;# 
   125     009E                     	;# 
   126     010C                     	;# 
   127     010D                     	;# 
   128     010E                     	;# 
   129     0110                     	;# 
   130     0111                     	;# 
   131     0112                     	;# 
   132     0113                     	;# 
   133     0114                     	;# 
   134     0115                     	;# 
   135     0116                     	;# 
   136     0117                     	;# 
   137     0118                     	;# 
   138     0119                     	;# 
   139     011A                     	;# 
   140     011B                     	;# 
   141     011D                     	;# 
   142     018C                     	;# 
   143     018D                     	;# 
   144     0191                     	;# 
   145     0191                     	;# 
   146     0192                     	;# 
   147     0193                     	;# 
   148     0193                     	;# 
   149     0193                     	;# 
   150     0194                     	;# 
   151     0195                     	;# 
   152     0196                     	;# 
   153     0199                     	;# 
   154     019A                     	;# 
   155     019B                     	;# 
   156     019B                     	;# 
   157     019B                     	;# 
   158     019B                     	;# 
   159     019C                     	;# 
   160     019C                     	;# 
   161     019D                     	;# 
   162     019E                     	;# 
   163     019F                     	;# 
   164     020D                     	;# 
   165     0210                     	;# 
   166     0211                     	;# 
   167     0212                     	;# 
   168     0213                     	;# 
   169     0214                     	;# 
   170     0215                     	;# 
   171     0215                     	;# 
   172     0216                     	;# 
   173     0217                     	;# 
   174     0291                     	;# 
   175     0291                     	;# 
   176     0292                     	;# 
   177     0293                     	;# 
   178     0294                     	;# 
   179     0295                     	;# 
   180     0295                     	;# 
   181     0296                     	;# 
   182     0298                     	;# 
   183     0298                     	;# 
   184     0299                     	;# 
   185     029A                     	;# 
   186     029B                     	;# 
   187     029C                     	;# 
   188     029C                     	;# 
   189     029D                     	;# 
   190     029E                     	;# 
   191     029F                     	;# 
   192     0311                     	;# 
   193     0311                     	;# 
   194     0312                     	;# 
   195     0313                     	;# 
   196     0314                     	;# 
   197     0315                     	;# 
   198     0315                     	;# 
   199     0316                     	;# 
   200     0318                     	;# 
   201     0318                     	;# 
   202     0319                     	;# 
   203     031A                     	;# 
   204     031C                     	;# 
   205     031C                     	;# 
   206     031D                     	;# 
   207     031E                     	;# 
   208     0394                     	;# 
   209     0395                     	;# 
   210     0396                     	;# 
   211     0415                     	;# 
   212     0416                     	;# 
   213     0417                     	;# 
   214     041C                     	;# 
   215     041D                     	;# 
   216     041E                     	;# 
   217     0791                     	;# 
   218     0792                     	;# 
   219     0793                     	;# 
   220     0794                     	;# 
   221     0795                     	;# 
   222     0798                     	;# 
   223     0799                     	;# 
   224     07A0                     	;# 
   225     07A1                     	;# 
   226     07A3                     	;# 
   227     07A4                     	;# 
   228     07A6                     	;# 
   229     07A7                     	;# 
   230     07A9                     	;# 
   231     07AA                     	;# 
   232     0FE4                     	;# 
   233     0FE5                     	;# 
   234     0FE6                     	;# 
   235     0FE7                     	;# 
   236     0FE8                     	;# 
   237     0FE9                     	;# 
   238     0FEA                     	;# 
   239     0FEB                     	;# 
   240     0FED                     	;# 
   241     0FEE                     	;# 
   242     0FEF                     	;# 
   243     0000                     	;# 
   244     0001                     	;# 
   245     0002                     	;# 
   246     0003                     	;# 
   247     0004                     	;# 
   248     0005                     	;# 
   249     0006                     	;# 
   250     0007                     	;# 
   251     0008                     	;# 
   252     0009                     	;# 
   253     000A                     	;# 
   254     000B                     	;# 
   255     000C                     	;# 
   256     000D                     	;# 
   257     000E                     	;# 
   258     0010                     	;# 
   259     0011                     	;# 
   260     0012                     	;# 
   261     0013                     	;# 
   262     0015                     	;# 
   263     0016                     	;# 
   264     0016                     	;# 
   265     0017                     	;# 
   266     0018                     	;# 
   267     0019                     	;# 
   268     001A                     	;# 
   269     001B                     	;# 
   270     001C                     	;# 
   271     001E                     	;# 
   272     001F                     	;# 
   273     008C                     	;# 
   274     008D                     	;# 
   275     008E                     	;# 
   276     0090                     	;# 
   277     0091                     	;# 
   278     0092                     	;# 
   279     0093                     	;# 
   280     0095                     	;# 
   281     0096                     	;# 
   282     0097                     	;# 
   283     0098                     	;# 
   284     0099                     	;# 
   285     009A                     	;# 
   286     009B                     	;# 
   287     009B                     	;# 
   288     009C                     	;# 
   289     009D                     	;# 
   290     009E                     	;# 
   291     010C                     	;# 
   292     010D                     	;# 
   293     010E                     	;# 
   294     0110                     	;# 
   295     0111                     	;# 
   296     0112                     	;# 
   297     0113                     	;# 
   298     0114                     	;# 
   299     0115                     	;# 
   300     0116                     	;# 
   301     0117                     	;# 
   302     0118                     	;# 
   303     0119                     	;# 
   304     011A                     	;# 
   305     011B                     	;# 
   306     011D                     	;# 
   307     018C                     	;# 
   308     018D                     	;# 
   309     0191                     	;# 
   310     0191                     	;# 
   311     0192                     	;# 
   312     0193                     	;# 
   313     0193                     	;# 
   314     0193                     	;# 
   315     0194                     	;# 
   316     0195                     	;# 
   317     0196                     	;# 
   318     0199                     	;# 
   319     019A                     	;# 
   320     019B                     	;# 
   321     019B                     	;# 
   322     019B                     	;# 
   323     019B                     	;# 
   324     019C                     	;# 
   325     019C                     	;# 
   326     019D                     	;# 
   327     019E                     	;# 
   328     019F                     	;# 
   329     020D                     	;# 
   330     0210                     	;# 
   331     0211                     	;# 
   332     0212                     	;# 
   333     0213                     	;# 
   334     0214                     	;# 
   335     0215                     	;# 
   336     0215                     	;# 
   337     0216                     	;# 
   338     0217                     	;# 
   339     0291                     	;# 
   340     0291                     	;# 
   341     0292                     	;# 
   342     0293                     	;# 
   343     0294                     	;# 
   344     0295                     	;# 
   345     0295                     	;# 
   346     0296                     	;# 
   347     0298                     	;# 
   348     0298                     	;# 
   349     0299                     	;# 
   350     029A                     	;# 
   351     029B                     	;# 
   352     029C                     	;# 
   353     029C                     	;# 
   354     029D                     	;# 
   355     029E                     	;# 
   356     029F                     	;# 
   357     0311                     	;# 
   358     0311                     	;# 
   359     0312                     	;# 
   360     0313                     	;# 
   361     0314                     	;# 
   362     0315                     	;# 
   363     0315                     	;# 
   364     0316                     	;# 
   365     0318                     	;# 
   366     0318                     	;# 
   367     0319                     	;# 
   368     031A                     	;# 
   369     031C                     	;# 
   370     031C                     	;# 
   371     031D                     	;# 
   372     031E                     	;# 
   373     0394                     	;# 
   374     0395                     	;# 
   375     0396                     	;# 
   376     0415                     	;# 
   377     0416                     	;# 
   378     0417                     	;# 
   379     041C                     	;# 
   380     041D                     	;# 
   381     041E                     	;# 
   382     0791                     	;# 
   383     0792                     	;# 
   384     0793                     	;# 
   385     0794                     	;# 
   386     0795                     	;# 
   387     0798                     	;# 
   388     0799                     	;# 
   389     07A0                     	;# 
   390     07A1                     	;# 
   391     07A3                     	;# 
   392     07A4                     	;# 
   393     07A6                     	;# 
   394     07A7                     	;# 
   395     07A9                     	;# 
   396     07AA                     	;# 
   397     0FE4                     	;# 
   398     0FE5                     	;# 
   399     0FE6                     	;# 
   400     0FE7                     	;# 
   401     0FE8                     	;# 
   402     0FE9                     	;# 
   403     0FEA                     	;# 
   404     0FEB                     	;# 
   405     0FED                     	;# 
   406     0FEE                     	;# 
   407     0FEF                     	;# 
   408     0000                     	;# 
   409     0001                     	;# 
   410     0002                     	;# 
   411     0003                     	;# 
   412     0004                     	;# 
   413     0005                     	;# 
   414     0006                     	;# 
   415     0007                     	;# 
   416     0008                     	;# 
   417     0009                     	;# 
   418     000A                     	;# 
   419     000B                     	;# 
   420     000C                     	;# 
   421     000D                     	;# 
   422     000E                     	;# 
   423     0010                     	;# 
   424     0011                     	;# 
   425     0012                     	;# 
   426     0013                     	;# 
   427     0015                     	;# 
   428     0016                     	;# 
   429     0016                     	;# 
   430     0017                     	;# 
   431     0018                     	;# 
   432     0019                     	;# 
   433     001A                     	;# 
   434     001B                     	;# 
   435     001C                     	;# 
   436     001E                     	;# 
   437     001F                     	;# 
   438     008C                     	;# 
   439     008D                     	;# 
   440     008E                     	;# 
   441     0090                     	;# 
   442     0091                     	;# 
   443     0092                     	;# 
   444     0093                     	;# 
   445     0095                     	;# 
   446     0096                     	;# 
   447     0097                     	;# 
   448     0098                     	;# 
   449     0099                     	;# 
   450     009A                     	;# 
   451     009B                     	;# 
   452     009B                     	;# 
   453     009C                     	;# 
   454     009D                     	;# 
   455     009E                     	;# 
   456     010C                     	;# 
   457     010D                     	;# 
   458     010E                     	;# 
   459     0110                     	;# 
   460     0111                     	;# 
   461     0112                     	;# 
   462     0113                     	;# 
   463     0114                     	;# 
   464     0115                     	;# 
   465     0116                     	;# 
   466     0117                     	;# 
   467     0118                     	;# 
   468     0119                     	;# 
   469     011A                     	;# 
   470     011B                     	;# 
   471     011D                     	;# 
   472     018C                     	;# 
   473     018D                     	;# 
   474     0191                     	;# 
   475     0191                     	;# 
   476     0192                     	;# 
   477     0193                     	;# 
   478     0193                     	;# 
   479     0193                     	;# 
   480     0194                     	;# 
   481     0195                     	;# 
   482     0196                     	;# 
   483     0199                     	;# 
   484     019A                     	;# 
   485     019B                     	;# 
   486     019B                     	;# 
   487     019B                     	;# 
   488     019B                     	;# 
   489     019C                     	;# 
   490     019C                     	;# 
   491     019D                     	;# 
   492     019E                     	;# 
   493     019F                     	;# 
   494     020D                     	;# 
   495     0210                     	;# 
   496     0211                     	;# 
   497     0212                     	;# 
   498     0213                     	;# 
   499     0214                     	;# 
   500     0215                     	;# 
   501     0215                     	;# 
   502     0216                     	;# 
   503     0217                     	;# 
   504     0291                     	;# 
   505     0291                     	;# 
   506     0292                     	;# 
   507     0293                     	;# 
   508     0294                     	;# 
   509     0295                     	;# 
   510     0295                     	;# 
   511     0296                     	;# 
   512     0298                     	;# 
   513     0298                     	;# 
   514     0299                     	;# 
   515     029A                     	;# 
   516     029B                     	;# 
   517     029C                     	;# 
   518     029C                     	;# 
   519     029D                     	;# 
   520     029E                     	;# 
   521     029F                     	;# 
   522     0311                     	;# 
   523     0311                     	;# 
   524     0312                     	;# 
   525     0313                     	;# 
   526     0314                     	;# 
   527     0315                     	;# 
   528     0315                     	;# 
   529     0316                     	;# 
   530     0318                     	;# 
   531     0318                     	;# 
   532     0319                     	;# 
   533     031A                     	;# 
   534     031C                     	;# 
   535     031C                     	;# 
   536     031D                     	;# 
   537     031E                     	;# 
   538     0394                     	;# 
   539     0395                     	;# 
   540     0396                     	;# 
   541     0415                     	;# 
   542     0416                     	;# 
   543     0417                     	;# 
   544     041C                     	;# 
   545     041D                     	;# 
   546     041E                     	;# 
   547     0791                     	;# 
   548     0792                     	;# 
   549     0793                     	;# 
   550     0794                     	;# 
   551     0795                     	;# 
   552     0798                     	;# 
   553     0799                     	;# 
   554     07A0                     	;# 
   555     07A1                     	;# 
   556     07A3                     	;# 
   557     07A4                     	;# 
   558     07A6                     	;# 
   559     07A7                     	;# 
   560     07A9                     	;# 
   561     07AA                     	;# 
   562     0FE4                     	;# 
   563     0FE5                     	;# 
   564     0FE6                     	;# 
   565     0FE7                     	;# 
   566     0FE8                     	;# 
   567     0FE9                     	;# 
   568     0FEA                     	;# 
   569     0FEB                     	;# 
   570     0FED                     	;# 
   571     0FEE                     	;# 
   572     0FEF                     	;# 
   573     0000                     	;# 
   574     0001                     	;# 
   575     0002                     	;# 
   576     0003                     	;# 
   577     0004                     	;# 
   578     0005                     	;# 
   579     0006                     	;# 
   580     0007                     	;# 
   581     0008                     	;# 
   582     0009                     	;# 
   583     000A                     	;# 
   584     000B                     	;# 
   585     000C                     	;# 
   586     000D                     	;# 
   587     000E                     	;# 
   588     0010                     	;# 
   589     0011                     	;# 
   590     0012                     	;# 
   591     0013                     	;# 
   592     0015                     	;# 
   593     0016                     	;# 
   594     0016                     	;# 
   595     0017                     	;# 
   596     0018                     	;# 
   597     0019                     	;# 
   598     001A                     	;# 
   599     001B                     	;# 
   600     001C                     	;# 
   601     001E                     	;# 
   602     001F                     	;# 
   603     008C                     	;# 
   604     008D                     	;# 
   605     008E                     	;# 
   606     0090                     	;# 
   607     0091                     	;# 
   608     0092                     	;# 
   609     0093                     	;# 
   610     0095                     	;# 
   611     0096                     	;# 
   612     0097                     	;# 
   613     0098                     	;# 
   614     0099                     	;# 
   615     009A                     	;# 
   616     009B                     	;# 
   617     009B                     	;# 
   618     009C                     	;# 
   619     009D                     	;# 
   620     009E                     	;# 
   621     010C                     	;# 
   622     010D                     	;# 
   623     010E                     	;# 
   624     0110                     	;# 
   625     0111                     	;# 
   626     0112                     	;# 
   627     0113                     	;# 
   628     0114                     	;# 
   629     0115                     	;# 
   630     0116                     	;# 
   631     0117                     	;# 
   632     0118                     	;# 
   633     0119                     	;# 
   634     011A                     	;# 
   635     011B                     	;# 
   636     011D                     	;# 
   637     018C                     	;# 
   638     018D                     	;# 
   639     0191                     	;# 
   640     0191                     	;# 
   641     0192                     	;# 
   642     0193                     	;# 
   643     0193                     	;# 
   644     0193                     	;# 
   645     0194                     	;# 
   646     0195                     	;# 
   647     0196                     	;# 
   648     0199                     	;# 
   649     019A                     	;# 
   650     019B                     	;# 
   651     019B                     	;# 
   652     019B                     	;# 
   653     019B                     	;# 
   654     019C                     	;# 
   655     019C                     	;# 
   656     019D                     	;# 
   657     019E                     	;# 
   658     019F                     	;# 
   659     020D                     	;# 
   660     0210                     	;# 
   661     0211                     	;# 
   662     0212                     	;# 
   663     0213                     	;# 
   664     0214                     	;# 
   665     0215                     	;# 
   666     0215                     	;# 
   667     0216                     	;# 
   668     0217                     	;# 
   669     0291                     	;# 
   670     0291                     	;# 
   671     0292                     	;# 
   672     0293                     	;# 
   673     0294                     	;# 
   674     0295                     	;# 
   675     0295                     	;# 
   676     0296                     	;# 
   677     0298                     	;# 
   678     0298                     	;# 
   679     0299                     	;# 
   680     029A                     	;# 
   681     029B                     	;# 
   682     029C                     	;# 
   683     029C                     	;# 
   684     029D                     	;# 
   685     029E                     	;# 
   686     029F                     	;# 
   687     0311                     	;# 
   688     0311                     	;# 
   689     0312                     	;# 
   690     0313                     	;# 
   691     0314                     	;# 
   692     0315                     	;# 
   693     0315                     	;# 
   694     0316                     	;# 
   695     0318                     	;# 
   696     0318                     	;# 
   697     0319                     	;# 
   698     031A                     	;# 
   699     031C                     	;# 
   700     031C                     	;# 
   701     031D                     	;# 
   702     031E                     	;# 
   703     0394                     	;# 
   704     0395                     	;# 
   705     0396                     	;# 
   706     0415                     	;# 
   707     0416                     	;# 
   708     0417                     	;# 
   709     041C                     	;# 
   710     041D                     	;# 
   711     041E                     	;# 
   712     0791                     	;# 
   713     0792                     	;# 
   714     0793                     	;# 
   715     0794                     	;# 
   716     0795                     	;# 
   717     0798                     	;# 
   718     0799                     	;# 
   719     07A0                     	;# 
   720     07A1                     	;# 
   721     07A3                     	;# 
   722     07A4                     	;# 
   723     07A6                     	;# 
   724     07A7                     	;# 
   725     07A9                     	;# 
   726     07AA                     	;# 
   727     0FE4                     	;# 
   728     0FE5                     	;# 
   729     0FE6                     	;# 
   730     0FE7                     	;# 
   731     0FE8                     	;# 
   732     0FE9                     	;# 
   733     0FEA                     	;# 
   734     0FEB                     	;# 
   735     0FED                     	;# 
   736     0FEE                     	;# 
   737     0FEF                     	;# 
   738     0000                     	;# 
   739     0001                     	;# 
   740     0002                     	;# 
   741     0003                     	;# 
   742     0004                     	;# 
   743     0005                     	;# 
   744     0006                     	;# 
   745     0007                     	;# 
   746     0008                     	;# 
   747     0009                     	;# 
   748     000A                     	;# 
   749     000B                     	;# 
   750     000C                     	;# 
   751     000D                     	;# 
   752     000E                     	;# 
   753     0010                     	;# 
   754     0011                     	;# 
   755     0012                     	;# 
   756     0013                     	;# 
   757     0015                     	;# 
   758     0016                     	;# 
   759     0016                     	;# 
   760     0017                     	;# 
   761     0018                     	;# 
   762     0019                     	;# 
   763     001A                     	;# 
   764     001B                     	;# 
   765     001C                     	;# 
   766     001E                     	;# 
   767     001F                     	;# 
   768     008C                     	;# 
   769     008D                     	;# 
   770     008E                     	;# 
   771     0090                     	;# 
   772     0091                     	;# 
   773     0092                     	;# 
   774     0093                     	;# 
   775     0095                     	;# 
   776     0096                     	;# 
   777     0097                     	;# 
   778     0098                     	;# 
   779     0099                     	;# 
   780     009A                     	;# 
   781     009B                     	;# 
   782     009B                     	;# 
   783     009C                     	;# 
   784     009D                     	;# 
   785     009E                     	;# 
   786     010C                     	;# 
   787     010D                     	;# 
   788     010E                     	;# 
   789     0110                     	;# 
   790     0111                     	;# 
   791     0112                     	;# 
   792     0113                     	;# 
   793     0114                     	;# 
   794     0115                     	;# 
   795     0116                     	;# 
   796     0117                     	;# 
   797     0118                     	;# 
   798     0119                     	;# 
   799     011A                     	;# 
   800     011B                     	;# 
   801     011D                     	;# 
   802     018C                     	;# 
   803     018D                     	;# 
   804     0191                     	;# 
   805     0191                     	;# 
   806     0192                     	;# 
   807     0193                     	;# 
   808     0193                     	;# 
   809     0193                     	;# 
   810     0194                     	;# 
   811     0195                     	;# 
   812     0196                     	;# 
   813     0199                     	;# 
   814     019A                     	;# 
   815     019B                     	;# 
   816     019B                     	;# 
   817     019B                     	;# 
   818     019B                     	;# 
   819     019C                     	;# 
   820     019C                     	;# 
   821     019D                     	;# 
   822     019E                     	;# 
   823     019F                     	;# 
   824     020D                     	;# 
   825     0210                     	;# 
   826     0211                     	;# 
   827     0212                     	;# 
   828     0213                     	;# 
   829     0214                     	;# 
   830     0215                     	;# 
   831     0215                     	;# 
   832     0216                     	;# 
   833     0217                     	;# 
   834     0291                     	;# 
   835     0291                     	;# 
   836     0292                     	;# 
   837     0293                     	;# 
   838     0294                     	;# 
   839     0295                     	;# 
   840     0295                     	;# 
   841     0296                     	;# 
   842     0298                     	;# 
   843     0298                     	;# 
   844     0299                     	;# 
   845     029A                     	;# 
   846     029B                     	;# 
   847     029C                     	;# 
   848     029C                     	;# 
   849     029D                     	;# 
   850     029E                     	;# 
   851     029F                     	;# 
   852     0311                     	;# 
   853     0311                     	;# 
   854     0312                     	;# 
   855     0313                     	;# 
   856     0314                     	;# 
   857     0315                     	;# 
   858     0315                     	;# 
   859     0316                     	;# 
   860     0318                     	;# 
   861     0318                     	;# 
   862     0319                     	;# 
   863     031A                     	;# 
   864     031C                     	;# 
   865     031C                     	;# 
   866     031D                     	;# 
   867     031E                     	;# 
   868     0394                     	;# 
   869     0395                     	;# 
   870     0396                     	;# 
   871     0415                     	;# 
   872     0416                     	;# 
   873     0417                     	;# 
   874     041C                     	;# 
   875     041D                     	;# 
   876     041E                     	;# 
   877     0791                     	;# 
   878     0792                     	;# 
   879     0793                     	;# 
   880     0794                     	;# 
   881     0795                     	;# 
   882     0798                     	;# 
   883     0799                     	;# 
   884     07A0                     	;# 
   885     07A1                     	;# 
   886     07A3                     	;# 
   887     07A4                     	;# 
   888     07A6                     	;# 
   889     07A7                     	;# 
   890     07A9                     	;# 
   891     07AA                     	;# 
   892     0FE4                     	;# 
   893     0FE5                     	;# 
   894     0FE6                     	;# 
   895     0FE7                     	;# 
   896     0FE8                     	;# 
   897     0FE9                     	;# 
   898     0FEA                     	;# 
   899     0FEB                     	;# 
   900     0FED                     	;# 
   901     0FEE                     	;# 
   902     0FEF                     	;# 
   903     0000                     	;# 
   904     0001                     	;# 
   905     0002                     	;# 
   906     0003                     	;# 
   907     0004                     	;# 
   908     0005                     	;# 
   909     0006                     	;# 
   910     0007                     	;# 
   911     0008                     	;# 
   912     0009                     	;# 
   913     000A                     	;# 
   914     000B                     	;# 
   915     000C                     	;# 
   916     000D                     	;# 
   917     000E                     	;# 
   918     0010                     	;# 
   919     0011                     	;# 
   920     0012                     	;# 
   921     0013                     	;# 
   922     0015                     	;# 
   923     0016                     	;# 
   924     0016                     	;# 
   925     0017                     	;# 
   926     0018                     	;# 
   927     0019                     	;# 
   928     001A                     	;# 
   929     001B                     	;# 
   930     001C                     	;# 
   931     001E                     	;# 
   932     001F                     	;# 
   933     008C                     	;# 
   934     008D                     	;# 
   935     008E                     	;# 
   936     0090                     	;# 
   937     0091                     	;# 
   938     0092                     	;# 
   939     0093                     	;# 
   940     0095                     	;# 
   941     0096                     	;# 
   942     0097                     	;# 
   943     0098                     	;# 
   944     0099                     	;# 
   945     009A                     	;# 
   946     009B                     	;# 
   947     009B                     	;# 
   948     009C                     	;# 
   949     009D                     	;# 
   950     009E                     	;# 
   951     010C                     	;# 
   952     010D                     	;# 
   953     010E                     	;# 
   954     0110                     	;# 
   955     0111                     	;# 
   956     0112                     	;# 
   957     0113                     	;# 
   958     0114                     	;# 
   959     0115                     	;# 
   960     0116                     	;# 
   961     0117                     	;# 
   962     0118                     	;# 
   963     0119                     	;# 
   964     011A                     	;# 
   965     011B                     	;# 
   966     011D                     	;# 
   967     018C                     	;# 
   968     018D                     	;# 
   969     0191                     	;# 
   970     0191                     	;# 
   971     0192                     	;# 
   972     0193                     	;# 
   973     0193                     	;# 
   974     0193                     	;# 
   975     0194                     	;# 
   976     0195                     	;# 
   977     0196                     	;# 
   978     0199                     	;# 
   979     019A                     	;# 
   980     019B                     	;# 
   981     019B                     	;# 
   982     019B                     	;# 
   983     019B                     	;# 
   984     019C                     	;# 
   985     019C                     	;# 
   986     019D                     	;# 
   987     019E                     	;# 
   988     019F                     	;# 
   989     020D                     	;# 
   990     0210                     	;# 
   991     0211                     	;# 
   992     0212                     	;# 
   993     0213                     	;# 
   994     0214                     	;# 
   995     0215                     	;# 
   996     0215                     	;# 
   997     0216                     	;# 
   998     0217                     	;# 
   999     0291                     	;# 
  1000     0291                     	;# 
  1001     0292                     	;# 
  1002     0293                     	;# 
  1003     0294                     	;# 
  1004     0295                     	;# 
  1005     0295                     	;# 
  1006     0296                     	;# 
  1007     0298                     	;# 
  1008     0298                     	;# 
  1009     0299                     	;# 
  1010     029A                     	;# 
  1011     029B                     	;# 
  1012     029C                     	;# 
  1013     029C                     	;# 
  1014     029D                     	;# 
  1015     029E                     	;# 
  1016     029F                     	;# 
  1017     0311                     	;# 
  1018     0311                     	;# 
  1019     0312                     	;# 
  1020     0313                     	;# 
  1021     0314                     	;# 
  1022     0315                     	;# 
  1023     0315                     	;# 
  1024     0316                     	;# 
  1025     0318                     	;# 
  1026     0318                     	;# 
  1027     0319                     	;# 
  1028     031A                     	;# 
  1029     031C                     	;# 
  1030     031C                     	;# 
  1031     031D                     	;# 
  1032     031E                     	;# 
  1033     0394                     	;# 
  1034     0395                     	;# 
  1035     0396                     	;# 
  1036     0415                     	;# 
  1037     0416                     	;# 
  1038     0417                     	;# 
  1039     041C                     	;# 
  1040     041D                     	;# 
  1041     041E                     	;# 
  1042     0791                     	;# 
  1043     0792                     	;# 
  1044     0793                     	;# 
  1045     0794                     	;# 
  1046     0795                     	;# 
  1047     0798                     	;# 
  1048     0799                     	;# 
  1049     07A0                     	;# 
  1050     07A1                     	;# 
  1051     07A3                     	;# 
  1052     07A4                     	;# 
  1053     07A6                     	;# 
  1054     07A7                     	;# 
  1055     07A9                     	;# 
  1056     07AA                     	;# 
  1057     0FE4                     	;# 
  1058     0FE5                     	;# 
  1059     0FE6                     	;# 
  1060     0FE7                     	;# 
  1061     0FE8                     	;# 
  1062     0FE9                     	;# 
  1063     0FEA                     	;# 
  1064     0FEB                     	;# 
  1065     0FED                     	;# 
  1066     0FEE                     	;# 
  1067     0FEF                     	;# 
  1068     0000                     	;# 
  1069     0001                     	;# 
  1070     0002                     	;# 
  1071     0003                     	;# 
  1072     0004                     	;# 
  1073     0005                     	;# 
  1074     0006                     	;# 
  1075     0007                     	;# 
  1076     0008                     	;# 
  1077     0009                     	;# 
  1078     000A                     	;# 
  1079     000B                     	;# 
  1080     000C                     	;# 
  1081     000D                     	;# 
  1082     000E                     	;# 
  1083     0010                     	;# 
  1084     0011                     	;# 
  1085     0012                     	;# 
  1086     0013                     	;# 
  1087     0015                     	;# 
  1088     0016                     	;# 
  1089     0016                     	;# 
  1090     0017                     	;# 
  1091     0018                     	;# 
  1092     0019                     	;# 
  1093     001A                     	;# 
  1094     001B                     	;# 
  1095     001C                     	;# 
  1096     001E                     	;# 
  1097     001F                     	;# 
  1098     008C                     	;# 
  1099     008D                     	;# 
  1100     008E                     	;# 
  1101     0090                     	;# 
  1102     0091                     	;# 
  1103     0092                     	;# 
  1104     0093                     	;# 
  1105     0095                     	;# 
  1106     0096                     	;# 
  1107     0097                     	;# 
  1108     0098                     	;# 
  1109     0099                     	;# 
  1110     009A                     	;# 
  1111     009B                     	;# 
  1112     009B                     	;# 
  1113     009C                     	;# 
  1114     009D                     	;# 
  1115     009E                     	;# 
  1116     010C                     	;# 
  1117     010D                     	;# 
  1118     010E                     	;# 
  1119     0110                     	;# 
  1120     0111                     	;# 
  1121     0112                     	;# 
  1122     0113                     	;# 
  1123     0114                     	;# 
  1124     0115                     	;# 
  1125     0116                     	;# 
  1126     0117                     	;# 
  1127     0118                     	;# 
  1128     0119                     	;# 
  1129     011A                     	;# 
  1130     011B                     	;# 
  1131     011D                     	;# 
  1132     018C                     	;# 
  1133     018D                     	;# 
  1134     0191                     	;# 
  1135     0191                     	;# 
  1136     0192                     	;# 
  1137     0193                     	;# 
  1138     0193                     	;# 
  1139     0193                     	;# 
  1140     0194                     	;# 
  1141     0195                     	;# 
  1142     0196                     	;# 
  1143     0199                     	;# 
  1144     019A                     	;# 
  1145     019B                     	;# 
  1146     019B                     	;# 
  1147     019B                     	;# 
  1148     019B                     	;# 
  1149     019C                     	;# 
  1150     019C                     	;# 
  1151     019D                     	;# 
  1152     019E                     	;# 
  1153     019F                     	;# 
  1154     020D                     	;# 
  1155     0210                     	;# 
  1156     0211                     	;# 
  1157     0212                     	;# 
  1158     0213                     	;# 
  1159     0214                     	;# 
  1160     0215                     	;# 
  1161     0215                     	;# 
  1162     0216                     	;# 
  1163     0217                     	;# 
  1164     0291                     	;# 
  1165     0291                     	;# 
  1166     0292                     	;# 
  1167     0293                     	;# 
  1168     0294                     	;# 
  1169     0295                     	;# 
  1170     0295                     	;# 
  1171     0296                     	;# 
  1172     0298                     	;# 
  1173     0298                     	;# 
  1174     0299                     	;# 
  1175     029A                     	;# 
  1176     029B                     	;# 
  1177     029C                     	;# 
  1178     029C                     	;# 
  1179     029D                     	;# 
  1180     029E                     	;# 
  1181     029F                     	;# 
  1182     0311                     	;# 
  1183     0311                     	;# 
  1184     0312                     	;# 
  1185     0313                     	;# 
  1186     0314                     	;# 
  1187     0315                     	;# 
  1188     0315                     	;# 
  1189     0316                     	;# 
  1190     0318                     	;# 
  1191     0318                     	;# 
  1192     0319                     	;# 
  1193     031A                     	;# 
  1194     031C                     	;# 
  1195     031C                     	;# 
  1196     031D                     	;# 
  1197     031E                     	;# 
  1198     0394                     	;# 
  1199     0395                     	;# 
  1200     0396                     	;# 
  1201     0415                     	;# 
  1202     0416                     	;# 
  1203     0417                     	;# 
  1204     041C                     	;# 
  1205     041D                     	;# 
  1206     041E                     	;# 
  1207     0791                     	;# 
  1208     0792                     	;# 
  1209     0793                     	;# 
  1210     0794                     	;# 
  1211     0795                     	;# 
  1212     0798                     	;# 
  1213     0799                     	;# 
  1214     07A0                     	;# 
  1215     07A1                     	;# 
  1216     07A3                     	;# 
  1217     07A4                     	;# 
  1218     07A6                     	;# 
  1219     07A7                     	;# 
  1220     07A9                     	;# 
  1221     07AA                     	;# 
  1222     0FE4                     	;# 
  1223     0FE5                     	;# 
  1224     0FE6                     	;# 
  1225     0FE7                     	;# 
  1226     0FE8                     	;# 
  1227     0FE9                     	;# 
  1228     0FEA                     	;# 
  1229     0FEB                     	;# 
  1230     0FED                     	;# 
  1231     0FEE                     	;# 
  1232     0FEF                     	;# 
  1233     0000                     	;# 
  1234     0001                     	;# 
  1235     0002                     	;# 
  1236     0003                     	;# 
  1237     0004                     	;# 
  1238     0005                     	;# 
  1239     0006                     	;# 
  1240     0007                     	;# 
  1241     0008                     	;# 
  1242     0009                     	;# 
  1243     000A                     	;# 
  1244     000B                     	;# 
  1245     000C                     	;# 
  1246     000D                     	;# 
  1247     000E                     	;# 
  1248     0010                     	;# 
  1249     0011                     	;# 
  1250     0012                     	;# 
  1251     0013                     	;# 
  1252     0015                     	;# 
  1253     0016                     	;# 
  1254     0016                     	;# 
  1255     0017                     	;# 
  1256     0018                     	;# 
  1257     0019                     	;# 
  1258     001A                     	;# 
  1259     001B                     	;# 
  1260     001C                     	;# 
  1261     001E                     	;# 
  1262     001F                     	;# 
  1263     008C                     	;# 
  1264     008D                     	;# 
  1265     008E                     	;# 
  1266     0090                     	;# 
  1267     0091                     	;# 
  1268     0092                     	;# 
  1269     0093                     	;# 
  1270     0095                     	;# 
  1271     0096                     	;# 
  1272     0097                     	;# 
  1273     0098                     	;# 
  1274     0099                     	;# 
  1275     009A                     	;# 
  1276     009B                     	;# 
  1277     009B                     	;# 
  1278     009C                     	;# 
  1279     009D                     	;# 
  1280     009E                     	;# 
  1281     010C                     	;# 
  1282     010D                     	;# 
  1283     010E                     	;# 
  1284     0110                     	;# 
  1285     0111                     	;# 
  1286     0112                     	;# 
  1287     0113                     	;# 
  1288     0114                     	;# 
  1289     0115                     	;# 
  1290     0116                     	;# 
  1291     0117                     	;# 
  1292     0118                     	;# 
  1293     0119                     	;# 
  1294     011A                     	;# 
  1295     011B                     	;# 
  1296     011D                     	;# 
  1297     018C                     	;# 
  1298     018D                     	;# 
  1299     0191                     	;# 
  1300     0191                     	;# 
  1301     0192                     	;# 
  1302     0193                     	;# 
  1303     0193                     	;# 
  1304     0193                     	;# 
  1305     0194                     	;# 
  1306     0195                     	;# 
  1307     0196                     	;# 
  1308     0199                     	;# 
  1309     019A                     	;# 
  1310     019B                     	;# 
  1311     019B                     	;# 
  1312     019B                     	;# 
  1313     019B                     	;# 
  1314     019C                     	;# 
  1315     019C                     	;# 
  1316     019D                     	;# 
  1317     019E                     	;# 
  1318     019F                     	;# 
  1319     020D                     	;# 
  1320     0210                     	;# 
  1321     0211                     	;# 
  1322     0212                     	;# 
  1323     0213                     	;# 
  1324     0214                     	;# 
  1325     0215                     	;# 
  1326     0215                     	;# 
  1327     0216                     	;# 
  1328     0217                     	;# 
  1329     0291                     	;# 
  1330     0291                     	;# 
  1331     0292                     	;# 
  1332     0293                     	;# 
  1333     0294                     	;# 
  1334     0295                     	;# 
  1335     0295                     	;# 
  1336     0296                     	;# 
  1337     0298                     	;# 
  1338     0298                     	;# 
  1339     0299                     	;# 
  1340     029A                     	;# 
  1341     029B                     	;# 
  1342     029C                     	;# 
  1343     029C                     	;# 
  1344     029D                     	;# 
  1345     029E                     	;# 
  1346     029F                     	;# 
  1347     0311                     	;# 
  1348     0311                     	;# 
  1349     0312                     	;# 
  1350     0313                     	;# 
  1351     0314                     	;# 
  1352     0315                     	;# 
  1353     0315                     	;# 
  1354     0316                     	;# 
  1355     0318                     	;# 
  1356     0318                     	;# 
  1357     0319                     	;# 
  1358     031A                     	;# 
  1359     031C                     	;# 
  1360     031C                     	;# 
  1361     031D                     	;# 
  1362     031E                     	;# 
  1363     0394                     	;# 
  1364     0395                     	;# 
  1365     0396                     	;# 
  1366     0415                     	;# 
  1367     0416                     	;# 
  1368     0417                     	;# 
  1369     041C                     	;# 
  1370     041D                     	;# 
  1371     041E                     	;# 
  1372     0791                     	;# 
  1373     0792                     	;# 
  1374     0793                     	;# 
  1375     0794                     	;# 
  1376     0795                     	;# 
  1377     0798                     	;# 
  1378     0799                     	;# 
  1379     07A0                     	;# 
  1380     07A1                     	;# 
  1381     07A3                     	;# 
  1382     07A4                     	;# 
  1383     07A6                     	;# 
  1384     07A7                     	;# 
  1385     07A9                     	;# 
  1386     07AA                     	;# 
  1387     0FE4                     	;# 
  1388     0FE5                     	;# 
  1389     0FE6                     	;# 
  1390     0FE7                     	;# 
  1391     0FE8                     	;# 
  1392     0FE9                     	;# 
  1393     0FEA                     	;# 
  1394     0FEB                     	;# 
  1395     0FED                     	;# 
  1396     0FEE                     	;# 
  1397     0FEF                     	;# 
  1398     0000                     	;# 
  1399     0001                     	;# 
  1400     0002                     	;# 
  1401     0003                     	;# 
  1402     0004                     	;# 
  1403     0005                     	;# 
  1404     0006                     	;# 
  1405     0007                     	;# 
  1406     0008                     	;# 
  1407     0009                     	;# 
  1408     000A                     	;# 
  1409     000B                     	;# 
  1410     000C                     	;# 
  1411     000D                     	;# 
  1412     000E                     	;# 
  1413     0010                     	;# 
  1414     0011                     	;# 
  1415     0012                     	;# 
  1416     0013                     	;# 
  1417     0015                     	;# 
  1418     0016                     	;# 
  1419     0016                     	;# 
  1420     0017                     	;# 
  1421     0018                     	;# 
  1422     0019                     	;# 
  1423     001A                     	;# 
  1424     001B                     	;# 
  1425     001C                     	;# 
  1426     001E                     	;# 
  1427     001F                     	;# 
  1428     008C                     	;# 
  1429     008D                     	;# 
  1430     008E                     	;# 
  1431     0090                     	;# 
  1432     0091                     	;# 
  1433     0092                     	;# 
  1434     0093                     	;# 
  1435     0095                     	;# 
  1436     0096                     	;# 
  1437     0097                     	;# 
  1438     0098                     	;# 
  1439     0099                     	;# 
  1440     009A                     	;# 
  1441     009B                     	;# 
  1442     009B                     	;# 
  1443     009C                     	;# 
  1444     009D                     	;# 
  1445     009E                     	;# 
  1446     010C                     	;# 
  1447     010D                     	;# 
  1448     010E                     	;# 
  1449     0110                     	;# 
  1450     0111                     	;# 
  1451     0112                     	;# 
  1452     0113                     	;# 
  1453     0114                     	;# 
  1454     0115                     	;# 
  1455     0116                     	;# 
  1456     0117                     	;# 
  1457     0118                     	;# 
  1458     0119                     	;# 
  1459     011A                     	;# 
  1460     011B                     	;# 
  1461     011D                     	;# 
  1462     018C                     	;# 
  1463     018D                     	;# 
  1464     0191                     	;# 
  1465     0191                     	;# 
  1466     0192                     	;# 
  1467     0193                     	;# 
  1468     0193                     	;# 
  1469     0193                     	;# 
  1470     0194                     	;# 
  1471     0195                     	;# 
  1472     0196                     	;# 
  1473     0199                     	;# 
  1474     019A                     	;# 
  1475     019B                     	;# 
  1476     019B                     	;# 
  1477     019B                     	;# 
  1478     019B                     	;# 
  1479     019C                     	;# 
  1480     019C                     	;# 
  1481     019D                     	;# 
  1482     019E                     	;# 
  1483     019F                     	;# 
  1484     020D                     	;# 
  1485     0210                     	;# 
  1486     0211                     	;# 
  1487     0212                     	;# 
  1488     0213                     	;# 
  1489     0214                     	;# 
  1490     0215                     	;# 
  1491     0215                     	;# 
  1492     0216                     	;# 
  1493     0217                     	;# 
  1494     0291                     	;# 
  1495     0291                     	;# 
  1496     0292                     	;# 
  1497     0293                     	;# 
  1498     0294                     	;# 
  1499     0295                     	;# 
  1500     0295                     	;# 
  1501     0296                     	;# 
  1502     0298                     	;# 
  1503     0298                     	;# 
  1504     0299                     	;# 
  1505     029A                     	;# 
  1506     029B                     	;# 
  1507     029C                     	;# 
  1508     029C                     	;# 
  1509     029D                     	;# 
  1510     029E                     	;# 
  1511     029F                     	;# 
  1512     0311                     	;# 
  1513     0311                     	;# 
  1514     0312                     	;# 
  1515     0313                     	;# 
  1516     0314                     	;# 
  1517     0315                     	;# 
  1518     0315                     	;# 
  1519     0316                     	;# 
  1520     0318                     	;# 
  1521     0318                     	;# 
  1522     0319                     	;# 
  1523     031A                     	;# 
  1524     031C                     	;# 
  1525     031C                     	;# 
  1526     031D                     	;# 
  1527     031E                     	;# 
  1528     0394                     	;# 
  1529     0395                     	;# 
  1530     0396                     	;# 
  1531     0415                     	;# 
  1532     0416                     	;# 
  1533     0417                     	;# 
  1534     041C                     	;# 
  1535     041D                     	;# 
  1536     041E                     	;# 
  1537     0791                     	;# 
  1538     0792                     	;# 
  1539     0793                     	;# 
  1540     0794                     	;# 
  1541     0795                     	;# 
  1542     0798                     	;# 
  1543     0799                     	;# 
  1544     07A0                     	;# 
  1545     07A1                     	;# 
  1546     07A3                     	;# 
  1547     07A4                     	;# 
  1548     07A6                     	;# 
  1549     07A7                     	;# 
  1550     07A9                     	;# 
  1551     07AA                     	;# 
  1552     0FE4                     	;# 
  1553     0FE5                     	;# 
  1554     0FE6                     	;# 
  1555     0FE7                     	;# 
  1556     0FE8                     	;# 
  1557     0FE9                     	;# 
  1558     0FEA                     	;# 
  1559     0FEB                     	;# 
  1560     0FED                     	;# 
  1561     0FEE                     	;# 
  1562     0FEF                     	;# 
  1563     0000                     	;# 
  1564     0001                     	;# 
  1565     0002                     	;# 
  1566     0003                     	;# 
  1567     0004                     	;# 
  1568     0005                     	;# 
  1569     0006                     	;# 
  1570     0007                     	;# 
  1571     0008                     	;# 
  1572     0009                     	;# 
  1573     000A                     	;# 
  1574     000B                     	;# 
  1575     000C                     	;# 
  1576     000D                     	;# 
  1577     000E                     	;# 
  1578     0010                     	;# 
  1579     0011                     	;# 
  1580     0012                     	;# 
  1581     0013                     	;# 
  1582     0015                     	;# 
  1583     0016                     	;# 
  1584     0016                     	;# 
  1585     0017                     	;# 
  1586     0018                     	;# 
  1587     0019                     	;# 
  1588     001A                     	;# 
  1589     001B                     	;# 
  1590     001C                     	;# 
  1591     001E                     	;# 
  1592     001F                     	;# 
  1593     008C                     	;# 
  1594     008D                     	;# 
  1595     008E                     	;# 
  1596     0090                     	;# 
  1597     0091                     	;# 
  1598     0092                     	;# 
  1599     0093                     	;# 
  1600     0095                     	;# 
  1601     0096                     	;# 
  1602     0097                     	;# 
  1603     0098                     	;# 
  1604     0099                     	;# 
  1605     009A                     	;# 
  1606     009B                     	;# 
  1607     009B                     	;# 
  1608     009C                     	;# 
  1609     009D                     	;# 
  1610     009E                     	;# 
  1611     010C                     	;# 
  1612     010D                     	;# 
  1613     010E                     	;# 
  1614     0110                     	;# 
  1615     0111                     	;# 
  1616     0112                     	;# 
  1617     0113                     	;# 
  1618     0114                     	;# 
  1619     0115                     	;# 
  1620     0116                     	;# 
  1621     0117                     	;# 
  1622     0118                     	;# 
  1623     0119                     	;# 
  1624     011A                     	;# 
  1625     011B                     	;# 
  1626     011D                     	;# 
  1627     018C                     	;# 
  1628     018D                     	;# 
  1629     0191                     	;# 
  1630     0191                     	;# 
  1631     0192                     	;# 
  1632     0193                     	;# 
  1633     0193                     	;# 
  1634     0193                     	;# 
  1635     0194                     	;# 
  1636     0195                     	;# 
  1637     0196                     	;# 
  1638     0199                     	;# 
  1639     019A                     	;# 
  1640     019B                     	;# 
  1641     019B                     	;# 
  1642     019B                     	;# 
  1643     019B                     	;# 
  1644     019C                     	;# 
  1645     019C                     	;# 
  1646     019D                     	;# 
  1647     019E                     	;# 
  1648     019F                     	;# 
  1649     020D                     	;# 
  1650     0210                     	;# 
  1651     0211                     	;# 
  1652     0212                     	;# 
  1653     0213                     	;# 
  1654     0214                     	;# 
  1655     0215                     	;# 
  1656     0215                     	;# 
  1657     0216                     	;# 
  1658     0217                     	;# 
  1659     0291                     	;# 
  1660     0291                     	;# 
  1661     0292                     	;# 
  1662     0293                     	;# 
  1663     0294                     	;# 
  1664     0295                     	;# 
  1665     0295                     	;# 
  1666     0296                     	;# 
  1667     0298                     	;# 
  1668     0298                     	;# 
  1669     0299                     	;# 
  1670     029A                     	;# 
  1671     029B                     	;# 
  1672     029C                     	;# 
  1673     029C                     	;# 
  1674     029D                     	;# 
  1675     029E                     	;# 
  1676     029F                     	;# 
  1677     0311                     	;# 
  1678     0311                     	;# 
  1679     0312                     	;# 
  1680     0313                     	;# 
  1681     0314                     	;# 
  1682     0315                     	;# 
  1683     0315                     	;# 
  1684     0316                     	;# 
  1685     0318                     	;# 
  1686     0318                     	;# 
  1687     0319                     	;# 
  1688     031A                     	;# 
  1689     031C                     	;# 
  1690     031C                     	;# 
  1691     031D                     	;# 
  1692     031E                     	;# 
  1693     0394                     	;# 
  1694     0395                     	;# 
  1695     0396                     	;# 
  1696     0415                     	;# 
  1697     0416                     	;# 
  1698     0417                     	;# 
  1699     041C                     	;# 
  1700     041D                     	;# 
  1701     041E                     	;# 
  1702     0791                     	;# 
  1703     0792                     	;# 
  1704     0793                     	;# 
  1705     0794                     	;# 
  1706     0795                     	;# 
  1707     0798                     	;# 
  1708     0799                     	;# 
  1709     07A0                     	;# 
  1710     07A1                     	;# 
  1711     07A3                     	;# 
  1712     07A4                     	;# 
  1713     07A6                     	;# 
  1714     07A7                     	;# 
  1715     07A9                     	;# 
  1716     07AA                     	;# 
  1717     0FE4                     	;# 
  1718     0FE5                     	;# 
  1719     0FE6                     	;# 
  1720     0FE7                     	;# 
  1721     0FE8                     	;# 
  1722     0FE9                     	;# 
  1723     0FEA                     	;# 
  1724     0FEB                     	;# 
  1725     0FED                     	;# 
  1726     0FEE                     	;# 
  1727     0FEF                     	;# 
  1728     0000                     	;# 
  1729     0001                     	;# 
  1730     0002                     	;# 
  1731     0003                     	;# 
  1732     0004                     	;# 
  1733     0005                     	;# 
  1734     0006                     	;# 
  1735     0007                     	;# 
  1736     0008                     	;# 
  1737     0009                     	;# 
  1738     000A                     	;# 
  1739     000B                     	;# 
  1740     000C                     	;# 
  1741     000D                     	;# 
  1742     000E                     	;# 
  1743     0010                     	;# 
  1744     0011                     	;# 
  1745     0012                     	;# 
  1746     0013                     	;# 
  1747     0015                     	;# 
  1748     0016                     	;# 
  1749     0016                     	;# 
  1750     0017                     	;# 
  1751     0018                     	;# 
  1752     0019                     	;# 
  1753     001A                     	;# 
  1754     001B                     	;# 
  1755     001C                     	;# 
  1756     001E                     	;# 
  1757     001F                     	;# 
  1758     008C                     	;# 
  1759     008D                     	;# 
  1760     008E                     	;# 
  1761     0090                     	;# 
  1762     0091                     	;# 
  1763     0092                     	;# 
  1764     0093                     	;# 
  1765     0095                     	;# 
  1766     0096                     	;# 
  1767     0097                     	;# 
  1768     0098                     	;# 
  1769     0099                     	;# 
  1770     009A                     	;# 
  1771     009B                     	;# 
  1772     009B                     	;# 
  1773     009C                     	;# 
  1774     009D                     	;# 
  1775     009E                     	;# 
  1776     010C                     	;# 
  1777     010D                     	;# 
  1778     010E                     	;# 
  1779     0110                     	;# 
  1780     0111                     	;# 
  1781     0112                     	;# 
  1782     0113                     	;# 
  1783     0114                     	;# 
  1784     0115                     	;# 
  1785     0116                     	;# 
  1786     0117                     	;# 
  1787     0118                     	;# 
  1788     0119                     	;# 
  1789     011A                     	;# 
  1790     011B                     	;# 
  1791     011D                     	;# 
  1792     018C                     	;# 
  1793     018D                     	;# 
  1794     0191                     	;# 
  1795     0191                     	;# 
  1796     0192                     	;# 
  1797     0193                     	;# 
  1798     0193                     	;# 
  1799     0193                     	;# 
  1800     0194                     	;# 
  1801     0195                     	;# 
  1802     0196                     	;# 
  1803     0199                     	;# 
  1804     019A                     	;# 
  1805     019B                     	;# 
  1806     019B                     	;# 
  1807     019B                     	;# 
  1808     019B                     	;# 
  1809     019C                     	;# 
  1810     019C                     	;# 
  1811     019D                     	;# 
  1812     019E                     	;# 
  1813     019F                     	;# 
  1814     020D                     	;# 
  1815     0210                     	;# 
  1816     0211                     	;# 
  1817     0212                     	;# 
  1818     0213                     	;# 
  1819     0214                     	;# 
  1820     0215                     	;# 
  1821     0215                     	;# 
  1822     0216                     	;# 
  1823     0217                     	;# 
  1824     0291                     	;# 
  1825     0291                     	;# 
  1826     0292                     	;# 
  1827     0293                     	;# 
  1828     0294                     	;# 
  1829     0295                     	;# 
  1830     0295                     	;# 
  1831     0296                     	;# 
  1832     0298                     	;# 
  1833     0298                     	;# 
  1834     0299                     	;# 
  1835     029A                     	;# 
  1836     029B                     	;# 
  1837     029C                     	;# 
  1838     029C                     	;# 
  1839     029D                     	;# 
  1840     029E                     	;# 
  1841     029F                     	;# 
  1842     0311                     	;# 
  1843     0311                     	;# 
  1844     0312                     	;# 
  1845     0313                     	;# 
  1846     0314                     	;# 
  1847     0315                     	;# 
  1848     0315                     	;# 
  1849     0316                     	;# 
  1850     0318                     	;# 
  1851     0318                     	;# 
  1852     0319                     	;# 
  1853     031A                     	;# 
  1854     031C                     	;# 
  1855     031C                     	;# 
  1856     031D                     	;# 
  1857     031E                     	;# 
  1858     0394                     	;# 
  1859     0395                     	;# 
  1860     0396                     	;# 
  1861     0415                     	;# 
  1862     0416                     	;# 
  1863     0417                     	;# 
  1864     041C                     	;# 
  1865     041D                     	;# 
  1866     041E                     	;# 
  1867     0791                     	;# 
  1868     0792                     	;# 
  1869     0793                     	;# 
  1870     0794                     	;# 
  1871     0795                     	;# 
  1872     0798                     	;# 
  1873     0799                     	;# 
  1874     07A0                     	;# 
  1875     07A1                     	;# 
  1876     07A3                     	;# 
  1877     07A4                     	;# 
  1878     07A6                     	;# 
  1879     07A7                     	;# 
  1880     07A9                     	;# 
  1881     07AA                     	;# 
  1882     0FE4                     	;# 
  1883     0FE5                     	;# 
  1884     0FE6                     	;# 
  1885     0FE7                     	;# 
  1886     0FE8                     	;# 
  1887     0FE9                     	;# 
  1888     0FEA                     	;# 
  1889     0FEB                     	;# 
  1890     0FED                     	;# 
  1891     0FEE                     	;# 
  1892     0FEF                     	;# 
  1893                           
  1894                           	psect	idataBANK1
  1895     031B                     __pidataBANK1:
  1896                           
  1897                           ;initializer for _CS
  1898     031B  344C               	retlw	76
  1899     031C  349F               	retlw	159
  1900     031D  34ED               	retlw	237
  1901     031E  343E               	retlw	62
  1902     031F  349A               	retlw	154
  1903     0320  34FF               	retlw	255
  1904     0321  34FF               	retlw	255
  1905     0322  34FF               	retlw	255
  1906     0323  3427               	retlw	39
  1907     0324  34FF               	retlw	255
  1908     0325  34FF               	retlw	255
  1909     0326  34FF               	retlw	255
  1910     0327  3473               	retlw	115
  1911     0328  34A0               	retlw	160
  1912     0329  34D2               	retlw	210
  1913     032A  3401               	retlw	1
  1914     032B  348E               	retlw	142
  1915     032C  345D               	retlw	93
  1916     032D  342F               	retlw	47
  1917     032E  34FC               	retlw	252
  1918     032F  3467               	retlw	103
  1919     0330  34FF               	retlw	255
  1920     0331  34FF               	retlw	255
  1921     0332  34FF               	retlw	255
  1922     0333  34DA               	retlw	218
  1923     0334  34FF               	retlw	255
  1924     0335  34FF               	retlw	255
  1925     0336  34FF               	retlw	255
  1926     0337  34B1               	retlw	177
  1927     0338  3462               	retlw	98
  1928     0339  3410               	retlw	16
  1929     033A  34C3               	retlw	195
  1930     033B  342D               	retlw	45
  1931     033C  34FE               	retlw	254
  1932     033D  348C               	retlw	140
  1933     033E  345F               	retlw	95
  1934     033F  342C               	retlw	44
  1935     0340  34FF               	retlw	255
  1936     0341  34FF               	retlw	255
  1937     0342  34FF               	retlw	255
  1938     0343  3438               	retlw	56
  1939     0344  34EB               	retlw	235
  1940     0345  3499               	retlw	153
  1941     0346  344A               	retlw	74
  1942     0347  3412               	retlw	18
  1943     0348  34C1               	retlw	193
  1944     0349  34B3               	retlw	179
  1945     034A  3460               	retlw	96
  1946     034B  34EF               	retlw	239
  1947     034C  343C               	retlw	60
  1948     034D  344E               	retlw	78
  1949     034E  349D               	retlw	157
  1950     034F  34D1               	retlw	209
  1951     0350  34FF               	retlw	255
  1952     0351  34FF               	retlw	255
  1953     0352  34FF               	retlw	255
  1954     0353  346C               	retlw	108
  1955     0354  34FF               	retlw	255
  1956     0355  34FF               	retlw	255
  1957     0356  34FF               	retlw	255
  1958     0357  34D0               	retlw	208
  1959     0358  3403               	retlw	3
  1960     0359  3471               	retlw	113
  1961     035A  34A2               	retlw	162
  1962     001C                     _T2CONbits	set	28
  1963     001C                     _T2CON	set	28
  1964     001A                     _TMR2	set	26
  1965     001B                     _PR2	set	27
  1966     0015                     _TMR0	set	21
  1967     0019                     _T1GCONbits	set	25
  1968     0018                     _T1CONbits	set	24
  1969     0018                     _T1CON	set	24
  1970     0011                     _PIR1bits	set	17
  1971     0016                     _TMR1L	set	22
  1972     0017                     _TMR1H	set	23
  1973     0019                     _T1GCON	set	25
  1974     0013                     _PIR3bits	set	19
  1975     000B                     _INTCONbits	set	11
  1976     0089                     _TMR2IF	set	137
  1977     0095                     _OPTION_REG	set	149
  1978     0095                     _OPTION_REGbits	set	149
  1979     008E                     _TRISC	set	142
  1980     008D                     _TRISB	set	141
  1981     008C                     _TRISA	set	140
  1982     0090                     _TRISE	set	144
  1983     0093                     _PIE3bits	set	147
  1984     0097                     _WDTCON	set	151
  1985     0098                     _OSCTUNE	set	152
  1986     0099                     _OSCCON	set	153
  1987     04D6                     _PLLR	set	1238
  1988     010E                     _LATCbits	set	270
  1989     010C                     _LATAbits	set	268
  1990     010D                     _LATBbits	set	269
  1991     011D                     _APFCON	set	285
  1992     010E                     _LATC	set	270
  1993     010D                     _LATB	set	269
  1994     010C                     _LATA	set	268
  1995     0110                     _LATE	set	272
  1996     0116                     _BORCON	set	278
  1997     018C                     _ANSELA	set	396
  1998     018D                     _ANSELB	set	397
  1999     020D                     _WPUB	set	525
  2000     0210                     _WPUE	set	528
  2001     0298                     _CCPR2L	set	664
  2002     0299                     _CCPR2H	set	665
  2003     029D                     _PSTR2CON	set	669
  2004     029B                     _PWM2CON	set	667
  2005     029C                     _ECCP2AS	set	668
  2006     029A                     _CCP2CON	set	666
  2007     029E                     _CCPTMRS0bits	set	670
  2008     0291                     _CCPR1L	set	657
  2009     0292                     _CCPR1H	set	658
  2010     0296                     _PSTR1CON	set	662
  2011     0294                     _PWM1CON	set	660
  2012     0295                     _ECCP1AS	set	661
  2013     0293                     _CCP1CON	set	659
  2014     0311                     _CCPR3L	set	785
  2015     0312                     _CCPR3H	set	786
  2016     0313                     _CCP3CON	set	787
  2017                           
  2018                           	psect	cinit
  2019     0028                     start_initialization:	
  2020                           ; #config settings
  2021                           
  2022     0028                     __initialization:
  2023                           
  2024                           ; Initialize objects allocated to BANK1
  2025     0028  301B               	movlw	low __pidataBANK1
  2026     0029  0084               	movwf	4
  2027     002A  3083               	movlw	(high __pidataBANK1)| (0+128)
  2028     002B  0085               	movwf	5
  2029     002C  30A0               	movlw	low __pdataBANK1
  2030     002D  0086               	movwf	6
  2031     002E  3000               	movlw	high __pdataBANK1
  2032     002F  0087               	movwf	7
  2033     0030  3040               	movlw	64
  2034     0031  3185  2527  3180   	fcall	init_ram
  2035                           
  2036                           ; Clear objects allocated to COMMON
  2037     0034  01F0               	clrf	__pbssCOMMON& (0+127)
  2038     0035  01F1               	clrf	(__pbssCOMMON+1)& (0+127)
  2039     0036  01F2               	clrf	(__pbssCOMMON+2)& (0+127)
  2040     0037  01F3               	clrf	(__pbssCOMMON+3)& (0+127)
  2041     0038  01F4               	clrf	(__pbssCOMMON+4)& (0+127)
  2042     0039  01F5               	clrf	(__pbssCOMMON+5)& (0+127)
  2043                           
  2044                           ; Clear objects allocated to BANK0
  2045     003A  3020               	movlw	low __pbssBANK0
  2046     003B  0084               	movwf	4
  2047     003C  3000               	movlw	high __pbssBANK0
  2048     003D  0085               	movwf	5
  2049     003E  3027               	movlw	39
  2050     003F  3185  252D  3180   	fcall	clear_ram0
  2051     0042                     end_of_initialization:	
  2052                           ;End of C runtime variable initialization code
  2053                           
  2054     0042                     __end_of__initialization:
  2055     0042  107E               	bcf	int$flags,0	;clear compiler interrupt flag (level 1)
  2056     0043  0020               	movlb	0
  2057     0044  3183  2B5B         	ljmp	_main	;jump to C main() function
  2058                           
  2059                           	psect	bssCOMMON
  2060     0070                     __pbssCOMMON:
  2061     0070                     ECCP3_CallBack@falling_edge_time:
  2062     0070                     	ds	2
  2063     0072                     _csFlag:
  2064     0072                     	ds	1
  2065     0073                     _D2:
  2066     0073                     	ds	1
  2067     0074                     _rx_data:
  2068     0074                     	ds	1
  2069     0075                     _timer0ReloadVal:
  2070     0075                     	ds	1
  2071                           
  2072                           	psect	bssBANK0
  2073     0020                     __pbssBANK0:
  2074     0020                     _data_buf:
  2075     0020                     	ds	11
  2076     002B                     ECCP3_CallBack@rising_edge_time:
  2077     002B                     	ds	2
  2078     002D                     ECCP3_CallBack@pluse_width_HI:
  2079     002D                     	ds	2
  2080     002F                     ECCP3_CallBack@pluse_width_LO:
  2081     002F                     	ds	2
  2082     0031                     TMR0_ISR@CountCallBack:
  2083     0031                     	ds	2
  2084     0033                     _TMR0_InterruptHandler:
  2085     0033                     	ds	2
  2086     0035                     _timer1ReloadVal:
  2087     0035                     	ds	2
  2088     0037                     ECCP3_CallBack@data_cnt:
  2089     0037                     	ds	1
  2090     0038                     ECCP3_CallBack@fHead:
  2091     0038                     	ds	1
  2092     0039                     ECCP3_CallBack@rise_edge_flag:
  2093     0039                     	ds	1
  2094     003A                     ECCP3_CallBack@diff_us:
  2095     003A                     	ds	1
  2096     003B                     ECCP3_CallBack@LO_us:
  2097     003B                     	ds	1
  2098     003C                     ECCP3_CallBack@HI_us:
  2099     003C                     	ds	1
  2100     003D                     _fPOS_Gradually:
  2101     003D                     	ds	1
  2102     003E                     _fDRL_Gradually:
  2103     003E                     	ds	1
  2104     003F                     _fException2:
  2105     003F                     	ds	1
  2106     0040                     _fException:
  2107     0040                     	ds	1
  2108     0041                     _T10MS_CNT1:
  2109     0041                     	ds	1
  2110     0042                     _T10MS_CNT:
  2111     0042                     	ds	1
  2112     0043                     _D3:
  2113     0043                     	ds	1
  2114     0044                     _step:
  2115     0044                     	ds	1
  2116     0045                     _fFrame_OK:
  2117     0045                     	ds	1
  2118     0046                     _data_1byte_OK:
  2119     0046                     	ds	1
  2120                           
  2121                           	psect	dataBANK1
  2122     00A0                     __pdataBANK1:
  2123     00A0                     _CS:
  2124     00A0                     	ds	64
  2125                           
  2126                           	psect	inittext
  2127     0527                     init_ram:
  2128     0527  00FE               	movwf	btemp
  2129     0528                     initloop:
  2130     0528  0012               	moviw fsr0++
  2131     0529  001E               	movwi fsr1++
  2132     052A  0BFE               	decfsz	btemp,f
  2133     052B  2D28               	goto	initloop
  2134     052C  3400               	retlw	0
  2135                           
  2136                           	psect	clrtext
  2137     052D                     clear_ram0:	
  2138                           ;	Called with FSR0 containing the base address, and
  2139                           ;	WREG with the size to clear
  2140                           
  2141     052D  0064               	clrwdt	;clear the watchdog before getting into this loop
  2142     052E                     clrloop0:
  2143     052E  0180               	clrf	0	;clear RAM location pointed to by FSR
  2144     052F  3101               	addfsr 0,1
  2145     0530  0B89               	decfsz	9,f	;Have we reached the end of clearing yet?
  2146     0531  2D2E               	goto	clrloop0	;have we reached the end yet?
  2147     0532  3400               	retlw	0	;all done for this memory range, return
  2148                           
  2149                           	psect	cstackCOMMON
  2150     0076                     __pcstackCOMMON:
  2151     0076                     ?_PIN_MANAGER_Initialize:
  2152     0076                     ?_OSCILLATOR_Initialize:	
  2153                           ; 1 bytes @ 0x0
  2154                           
  2155     0076                     ?_WDT_Initialize:	
  2156                           ; 1 bytes @ 0x0
  2157                           
  2158     0076                     ?_EPWM2_Initialize:	
  2159                           ; 1 bytes @ 0x0
  2160                           
  2161     0076                     ?_EPWM1_Initialize:	
  2162                           ; 1 bytes @ 0x0
  2163                           
  2164     0076                     ?_ECCP3_Initialize:	
  2165                           ; 1 bytes @ 0x0
  2166                           
  2167     0076                     ?_TMR2_Initialize:	
  2168                           ; 1 bytes @ 0x0
  2169                           
  2170     0076                     ?_TMR1_Initialize:	
  2171                           ; 1 bytes @ 0x0
  2172                           
  2173     0076                     ?_TMR0_Initialize:	
  2174                           ; 1 bytes @ 0x0
  2175                           
  2176     0076                     ?_TMR0_ISR:	
  2177                           ; 1 bytes @ 0x0
  2178                           
  2179     0076                     ?_ECCP3_CaptureISR:	
  2180                           ; 1 bytes @ 0x0
  2181                           
  2182     0076                     ?_TMR0_DefaultInterruptHandler:	
  2183                           ; 1 bytes @ 0x0
  2184                           
  2185     0076                     ??_TMR0_DefaultInterruptHandler:	
  2186                           ; 1 bytes @ 0x0
  2187                           
  2188     0076                     ?_TMR0_CallBack:	
  2189                           ; 1 bytes @ 0x0
  2190                           
  2191     0076                     ?_ECCP3_CallBack:	
  2192                           ; 1 bytes @ 0x0
  2193                           
  2194     0076                     ?_SYSTEM_Initialize:	
  2195                           ; 1 bytes @ 0x0
  2196                           
  2197     0076                     ?_INTERRUPT_InterruptManager:	
  2198                           ; 1 bytes @ 0x0
  2199                           
  2200     0076                     ?_LoBeam_ON:	
  2201                           ; 1 bytes @ 0x0
  2202                           
  2203     0076                     ?_POS_Gradually:	
  2204                           ; 1 bytes @ 0x0
  2205                           
  2206     0076                     ?_Exception_handling:	
  2207                           ; 1 bytes @ 0x0
  2208                           
  2209     0076                     ?_DRL_Gradually:	
  2210                           ; 1 bytes @ 0x0
  2211                           
  2212     0076                     ?_DRL_ON:	
  2213                           ; 1 bytes @ 0x0
  2214                           
  2215     0076                     ?_POS_ON:	
  2216                           ; 1 bytes @ 0x0
  2217                           
  2218     0076                     ?_LED_output:	
  2219                           ; 1 bytes @ 0x0
  2220                           
  2221     0076                     ?_check_input:	
  2222                           ; 1 bytes @ 0x0
  2223                           
  2224     0076                     ?_getFrameData:	
  2225                           ; 1 bytes @ 0x0
  2226                           
  2227     0076                     ?_TMR0_EvenHandler:	
  2228                           ; 1 bytes @ 0x0
  2229                           
  2230     0076                     ??_TMR0_EvenHandler:	
  2231                           ; 1 bytes @ 0x0
  2232                           
  2233     0076                     ?_main:	
  2234                           ; 1 bytes @ 0x0
  2235                           
  2236     0076                     ECCP3_CallBack@capturedValue:	
  2237                           ; 1 bytes @ 0x0
  2238                           
  2239                           
  2240                           ; 2 bytes @ 0x0
  2241     0076                     	ds	1
  2242     0077                     ??_TMR0_ISR:
  2243     0077                     ??_TMR0_CallBack:	
  2244                           ; 1 bytes @ 0x1
  2245                           
  2246                           
  2247                           ; 1 bytes @ 0x1
  2248     0077                     	ds	1
  2249     0078                     ??_ECCP3_CallBack:
  2250                           
  2251                           ; 1 bytes @ 0x2
  2252     0078                     	ds	2
  2253     007A                     ??_ECCP3_CaptureISR:
  2254     007A                     ECCP3_CaptureISR@module:	
  2255                           ; 1 bytes @ 0x4
  2256                           
  2257                           
  2258                           ; 2 bytes @ 0x4
  2259     007A                     	ds	2
  2260     007C                     ??_INTERRUPT_InterruptManager:
  2261                           
  2262                           	psect	cstackBANK0
  2263     0047                     __pcstackBANK0:	
  2264                           ; 1 bytes @ 0x6
  2265                           
  2266     0047                     ??_PIN_MANAGER_Initialize:
  2267     0047                     ??_OSCILLATOR_Initialize:	
  2268                           ; 1 bytes @ 0x0
  2269                           
  2270     0047                     ??_WDT_Initialize:	
  2271                           ; 1 bytes @ 0x0
  2272                           
  2273     0047                     ??_EPWM2_Initialize:	
  2274                           ; 1 bytes @ 0x0
  2275                           
  2276     0047                     ??_EPWM1_Initialize:	
  2277                           ; 1 bytes @ 0x0
  2278                           
  2279     0047                     ??_ECCP3_Initialize:	
  2280                           ; 1 bytes @ 0x0
  2281                           
  2282     0047                     ??_TMR2_Initialize:	
  2283                           ; 1 bytes @ 0x0
  2284                           
  2285     0047                     ??_TMR1_Initialize:	
  2286                           ; 1 bytes @ 0x0
  2287                           
  2288     0047                     ?_TMR0_SetInterruptHandler:	
  2289                           ; 1 bytes @ 0x0
  2290                           
  2291     0047                     ??_LoBeam_ON:	
  2292                           ; 1 bytes @ 0x0
  2293                           
  2294     0047                     ??_POS_Gradually:	
  2295                           ; 1 bytes @ 0x0
  2296                           
  2297     0047                     ??_DRL_Gradually:	
  2298                           ; 1 bytes @ 0x0
  2299                           
  2300     0047                     ??_POS_ON:	
  2301                           ; 1 bytes @ 0x0
  2302                           
  2303     0047                     ??_check_input:	
  2304                           ; 1 bytes @ 0x0
  2305                           
  2306     0047                     ??_getFrameData:	
  2307                           ; 1 bytes @ 0x0
  2308                           
  2309     0047                     TMR0_SetInterruptHandler@InterruptHandler:	
  2310                           ; 1 bytes @ 0x0
  2311                           
  2312                           
  2313                           ; 2 bytes @ 0x0
  2314     0047                     	ds	1
  2315     0048                     DRL_Gradually@i:
  2316                           
  2317                           ; 1 bytes @ 0x1
  2318     0048                     	ds	1
  2319     0049                     ??_TMR0_Initialize:
  2320     0049                     ??_TMR0_SetInterruptHandler:	
  2321                           ; 1 bytes @ 0x2
  2322                           
  2323     0049                     ??_SYSTEM_Initialize:	
  2324                           ; 1 bytes @ 0x2
  2325                           
  2326     0049                     ??_DRL_ON:	
  2327                           ; 1 bytes @ 0x2
  2328                           
  2329     0049                     ??_LED_output:	
  2330                           ; 1 bytes @ 0x2
  2331                           
  2332     0049                     POS_Gradually@i:	
  2333                           ; 1 bytes @ 0x2
  2334                           
  2335                           
  2336                           ; 1 bytes @ 0x2
  2337     0049                     	ds	1
  2338     004A                     ??_Exception_handling:
  2339     004A                     LED_output@crc8:	
  2340                           ; 1 bytes @ 0x3
  2341                           
  2342                           
  2343                           ; 1 bytes @ 0x3
  2344     004A                     	ds	1
  2345     004B                     LED_output@i:
  2346                           
  2347                           ; 1 bytes @ 0x4
  2348     004B                     	ds	1
  2349     004C                     ??_main:
  2350                           
  2351                           	psect	maintext
  2352     035B                     __pmaintext:	
  2353                           ; 1 bytes @ 0x5
  2354 ;;
  2355 ;;Main: autosize = 0, tempsize = 0, incstack = 0, save=0
  2356 ;;
  2357 ;; *************** function _main *****************
  2358 ;; Defined at:
  2359 ;;		line 671 in file "main.c"
  2360 ;; Parameters:    Size  Location     Type
  2361 ;;		None
  2362 ;; Auto vars:     Size  Location     Type
  2363 ;;		None
  2364 ;; Return value:  Size  Location     Type
  2365 ;;                  1    wreg      void 
  2366 ;; Registers used:
  2367 ;;		wreg, fsr0l, fsr0h, fsr1l, fsr1h, status,2, status,0, pclath, cstack
  2368 ;; Tracked objects:
  2369 ;;		On entry : B1F/0
  2370 ;;		On exit  : 0/0
  2371 ;;		Unchanged: 0/0
  2372 ;; Data sizes:     COMMON   BANK0   BANK1   BANK2   BANK3   BANK4   BANK5   BANK6
  2373 ;;      Params:         0       0       0       0       0       0       0       0
  2374 ;;      Locals:         0       0       0       0       0       0       0       0
  2375 ;;      Temps:          0       0       0       0       0       0       0       0
  2376 ;;      Totals:         0       0       0       0       0       0       0       0
  2377 ;;Total ram usage:        0 bytes
  2378 ;; Hardware stack levels required when called: 7
  2379 ;; This function calls:
  2380 ;;		_Exception_handling
  2381 ;;		_LED_output
  2382 ;;		_LoBeam_ON
  2383 ;;		_POS_ON
  2384 ;;		_SYSTEM_Initialize
  2385 ;;		_TMR0_SetInterruptHandler
  2386 ;;		_check_input
  2387 ;;		_getFrameData
  2388 ;; This function is called by:
  2389 ;;		Startup code after reset
  2390 ;; This function uses a non-reentrant model
  2391 ;;
  2392                           
  2393     035B                     _main:	
  2394                           ;psect for function _main
  2395                           
  2396     035B                     l2838:	
  2397                           ;incstack = 0
  2398                           ; Regs used in _main: [wreg-fsr1h+status,2+status,0+pclath+cstack]
  2399                           
  2400                           
  2401                           ;main.c: 674:     SYSTEM_Initialize();
  2402     035B  3184  2415  3183   	fcall	_SYSTEM_Initialize
  2403                           
  2404                           ;main.c: 675:     TMR0_SetInterruptHandler(TMR0_EvenHandler);
  2405     035E  30AC               	movlw	low _TMR0_EvenHandler
  2406     035F  0020               	movlb	0	; select bank0
  2407     0360  00C7               	movwf	TMR0_SetInterruptHandler@InterruptHandler
  2408     0361  3004               	movlw	high _TMR0_EvenHandler
  2409     0362  00C8               	movwf	TMR0_SetInterruptHandler@InterruptHandler+1
  2410     0363  3185  2533  3183   	fcall	_TMR0_SetInterruptHandler
  2411     0366                     l2840:
  2412                           
  2413                           ;main.c: 681:     (INTCONbits.GIE = 1);
  2414     0366  178B               	bsf	11,7	;volatile
  2415     0367                     l2842:
  2416                           
  2417                           ;main.c: 684:     (INTCONbits.PEIE = 1);
  2418     0367  170B               	bsf	11,6	;volatile
  2419     0368                     l2844:
  2420                           
  2421                           ;main.c: 693:         getFrameData();
  2422     0368  3182  22AA  3183   	fcall	_getFrameData
  2423     036B                     l2846:
  2424                           
  2425                           ;main.c: 694:         check_input();
  2426     036B  3183  238F  3183   	fcall	_check_input
  2427     036E                     l2848:
  2428                           
  2429                           ;main.c: 696:         Exception_handling();
  2430     036E  3183  23C0  3183   	fcall	_Exception_handling
  2431     0371                     l2850:
  2432                           
  2433                           ;main.c: 697:         if (fException2 == 0) {
  2434     0371  0020               	movlb	0	; select bank0
  2435     0372  083F               	movf	_fException2,w
  2436     0373  1D03               	btfss	3,2
  2437     0374  2B76               	goto	u3141
  2438     0375  2B77               	goto	u3140
  2439     0376                     u3141:
  2440     0376  2B82               	goto	l2858
  2441     0377                     u3140:
  2442     0377                     l2852:
  2443                           
  2444                           ;main.c: 698:             if (fException == 1) {
  2445     0377  0340               	decf	_fException,w
  2446     0378  1D03               	btfss	3,2
  2447     0379  2B7B               	goto	u3151
  2448     037A  2B7C               	goto	u3150
  2449     037B                     u3151:
  2450     037B  2B7E               	goto	l2856
  2451     037C                     u3150:
  2452     037C                     l2854:
  2453                           
  2454                           ;main.c: 700:                 fException = 0;
  2455     037C  01C0               	clrf	_fException
  2456                           
  2457                           ;main.c: 701:             } else
  2458     037D  2B68               	goto	l2844
  2459     037E                     l2856:
  2460                           
  2461                           ;main.c: 702:                 LED_output();
  2462     037E  3180  2046  3183   	fcall	_LED_output
  2463     0381  2B68               	goto	l2844
  2464     0382                     l2858:
  2465                           
  2466                           ;main.c: 705:             fException2 = 0;
  2467     0382  01BF               	clrf	_fException2
  2468     0383                     l2860:
  2469     0383  0022               	movlb	2	; select bank2
  2470     0384  178D               	bsf	13,7	;volatile
  2471     0385                     l2862:
  2472     0385  140C               	bsf	12,0	;volatile
  2473     0386                     l2864:
  2474                           
  2475                           ;main.c: 708:             LoBeam_ON();
  2476     0386  3185  2520  3183   	fcall	_LoBeam_ON
  2477     0389                     l2866:
  2478                           
  2479                           ;main.c: 709:             POS_ON();
  2480     0389  3185  253D  3183   	fcall	_POS_ON
  2481     038C  2B68               	goto	l2844
  2482     038D  3180  2826         	ljmp	start
  2483     038F                     __end_of_main:
  2484                           
  2485                           	psect	text1
  2486     02AA                     __ptext1:	
  2487 ;; *************** function _getFrameData *****************
  2488 ;; Defined at:
  2489 ;;		line 516 in file "main.c"
  2490 ;; Parameters:    Size  Location     Type
  2491 ;;		None
  2492 ;; Auto vars:     Size  Location     Type
  2493 ;;		None
  2494 ;; Return value:  Size  Location     Type
  2495 ;;                  1    wreg      void 
  2496 ;; Registers used:
  2497 ;;		wreg, fsr0l, fsr0h, status,2, status,0
  2498 ;; Tracked objects:
  2499 ;;		On entry : 0/0
  2500 ;;		On exit  : 0/0
  2501 ;;		Unchanged: 0/0
  2502 ;; Data sizes:     COMMON   BANK0   BANK1   BANK2   BANK3   BANK4   BANK5   BANK6
  2503 ;;      Params:         0       0       0       0       0       0       0       0
  2504 ;;      Locals:         0       0       0       0       0       0       0       0
  2505 ;;      Temps:          0       0       0       0       0       0       0       0
  2506 ;;      Totals:         0       0       0       0       0       0       0       0
  2507 ;;Total ram usage:        0 bytes
  2508 ;; Hardware stack levels used: 1
  2509 ;; Hardware stack levels required when called: 4
  2510 ;; This function calls:
  2511 ;;		Nothing
  2512 ;; This function is called by:
  2513 ;;		_main
  2514 ;; This function uses a non-reentrant model
  2515 ;;
  2516                           
  2517     02AA                     _getFrameData:	
  2518                           ;psect for function _getFrameData
  2519                           
  2520     02AA                     l2792:	
  2521                           ;incstack = 0
  2522                           ; Regs used in _getFrameData: [wreg-fsr0h+status,2+status,0]
  2523                           
  2524                           
  2525                           ;main.c: 518:     if (data_1byte_OK == 1) {
  2526     02AA  0020               	movlb	0	; select bank0
  2527     02AB  0346               	decf	_data_1byte_OK,w	;volatile
  2528     02AC  1D03               	btfss	3,2
  2529     02AD  2AAF               	goto	u3111
  2530     02AE  2AB0               	goto	u3110
  2531     02AF                     u3111:
  2532     02AF  2B1A               	goto	l479
  2533     02B0                     u3110:
  2534     02B0                     l2794:
  2535                           
  2536                           ;main.c: 519:         data_1byte_OK = 0;
  2537     02B0  01C6               	clrf	_data_1byte_OK	;volatile
  2538                           
  2539                           ;main.c: 522:         switch (step) {
  2540     02B1  2AF7               	goto	l2836
  2541     02B2                     l2796:
  2542                           
  2543                           ;main.c: 524:             if (rx_data == 0xC8) {
  2544     02B2  30C8               	movlw	200
  2545     02B3  0674               	xorwf	_rx_data,w
  2546     02B4  1D03               	btfss	3,2
  2547     02B5  2AB7               	goto	u3121
  2548     02B6  2AB8               	goto	u3120
  2549     02B7                     u3121:
  2550     02B7  2ABD               	goto	l2802
  2551     02B8                     u3120:
  2552     02B8                     l2798:
  2553                           
  2554                           ;main.c: 525:                 step = 1;
  2555     02B8  01C4               	clrf	_step
  2556     02B9  0AC4               	incf	_step,f
  2557     02BA                     l2800:
  2558                           
  2559                           ;main.c: 526:                 data_buf[0] = rx_data;
  2560     02BA  0874               	movf	_rx_data,w
  2561     02BB  00A0               	movwf	_data_buf
  2562                           
  2563                           ;main.c: 527:             } else {
  2564     02BC  2B1A               	goto	l479
  2565     02BD                     l2802:
  2566                           
  2567                           ;main.c: 528:                 step = 0;
  2568     02BD  01C4               	clrf	_step
  2569     02BE  2B1A               	goto	l479
  2570     02BF                     l2804:
  2571                           
  2572                           ;main.c: 532:             if (rx_data == 0x8B) {
  2573     02BF  308B               	movlw	139
  2574     02C0  0674               	xorwf	_rx_data,w
  2575     02C1  1D03               	btfss	3,2
  2576     02C2  2AC4               	goto	u3131
  2577     02C3  2AC5               	goto	u3130
  2578     02C4                     u3131:
  2579     02C4  2ABD               	goto	l2802
  2580     02C5                     u3130:
  2581     02C5                     l2806:
  2582                           
  2583                           ;main.c: 533:                 data_buf[1] = rx_data;
  2584     02C5  0874               	movf	_rx_data,w
  2585     02C6  00A1               	movwf	_data_buf+1
  2586                           
  2587                           ;main.c: 534:                 step = 2;
  2588     02C7  3002               	movlw	2
  2589     02C8  00C4               	movwf	_step
  2590                           
  2591                           ;main.c: 535:             } else {
  2592     02C9  2B1A               	goto	l479
  2593     02CA                     l2810:
  2594                           
  2595                           ;main.c: 540:             data_buf[2] = rx_data;
  2596     02CA  0874               	movf	_rx_data,w
  2597     02CB  00A2               	movwf	_data_buf+2
  2598                           
  2599                           ;main.c: 541:             step = 3;
  2600     02CC  3003               	movlw	3
  2601     02CD  00C4               	movwf	_step
  2602                           
  2603                           ;main.c: 542:             break;
  2604     02CE  2B1A               	goto	l479
  2605     02CF                     l2812:
  2606                           
  2607                           ;main.c: 544:             data_buf[3] = rx_data;
  2608     02CF  0874               	movf	_rx_data,w
  2609     02D0  00A3               	movwf	_data_buf+3
  2610                           
  2611                           ;main.c: 545:             step = 4;
  2612     02D1  3004               	movlw	4
  2613     02D2  00C4               	movwf	_step
  2614                           
  2615                           ;main.c: 546:             break;
  2616     02D3  2B1A               	goto	l479
  2617     02D4                     l2814:
  2618                           
  2619                           ;main.c: 548:             data_buf[4] = rx_data;
  2620     02D4  0874               	movf	_rx_data,w
  2621     02D5  00A4               	movwf	_data_buf+4
  2622                           
  2623                           ;main.c: 549:             step = 5;
  2624     02D6  3005               	movlw	5
  2625     02D7  00C4               	movwf	_step
  2626                           
  2627                           ;main.c: 550:             break;
  2628     02D8  2B1A               	goto	l479
  2629     02D9                     l2816:
  2630                           
  2631                           ;main.c: 552:             data_buf[5] = rx_data;
  2632     02D9  0874               	movf	_rx_data,w
  2633     02DA  00A5               	movwf	_data_buf+5
  2634                           
  2635                           ;main.c: 553:             step = 6;
  2636     02DB  3006               	movlw	6
  2637     02DC  00C4               	movwf	_step
  2638                           
  2639                           ;main.c: 554:             break;
  2640     02DD  2B1A               	goto	l479
  2641     02DE                     l2818:
  2642                           
  2643                           ;main.c: 556:             data_buf[6] = rx_data;
  2644     02DE  0874               	movf	_rx_data,w
  2645     02DF  00A6               	movwf	_data_buf+6
  2646                           
  2647                           ;main.c: 557:             step = 7;
  2648     02E0  3007               	movlw	7
  2649     02E1  00C4               	movwf	_step
  2650                           
  2651                           ;main.c: 558:             break;
  2652     02E2  2B1A               	goto	l479
  2653     02E3                     l2820:
  2654                           
  2655                           ;main.c: 560:             data_buf[7] = rx_data;
  2656     02E3  0874               	movf	_rx_data,w
  2657     02E4  00A7               	movwf	_data_buf+7
  2658                           
  2659                           ;main.c: 561:             step = 8;
  2660     02E5  3008               	movlw	8
  2661     02E6  00C4               	movwf	_step
  2662                           
  2663                           ;main.c: 562:             break;
  2664     02E7  2B1A               	goto	l479
  2665     02E8                     l2822:
  2666                           
  2667                           ;main.c: 564:             data_buf[8] = rx_data;
  2668     02E8  0874               	movf	_rx_data,w
  2669     02E9  00A8               	movwf	_data_buf+8
  2670                           
  2671                           ;main.c: 565:             step = 9;
  2672     02EA  3009               	movlw	9
  2673     02EB  00C4               	movwf	_step
  2674                           
  2675                           ;main.c: 566:             break;
  2676     02EC  2B1A               	goto	l479
  2677     02ED                     l2824:
  2678                           
  2679                           ;main.c: 568:             data_buf[9] = rx_data;
  2680     02ED  0874               	movf	_rx_data,w
  2681     02EE  00A9               	movwf	_data_buf+9
  2682                           
  2683                           ;main.c: 569:             step = 10;
  2684     02EF  300A               	movlw	10
  2685     02F0  00C4               	movwf	_step
  2686                           
  2687                           ;main.c: 570:             break;
  2688     02F1  2B1A               	goto	l479
  2689     02F2                     l2826:
  2690                           
  2691                           ;main.c: 572:             data_buf[10] = rx_data;
  2692     02F2  0874               	movf	_rx_data,w
  2693     02F3  00AA               	movwf	_data_buf+10
  2694     02F4                     l2828:
  2695                           
  2696                           ;main.c: 573:             fFrame_OK = 1;
  2697     02F4  01C5               	clrf	_fFrame_OK
  2698     02F5  0AC5               	incf	_fFrame_OK,f
  2699     02F6  2ABD               	goto	l2802
  2700     02F7                     l2836:
  2701     02F7  0844               	movf	_step,w
  2702                           
  2703                           ; Switch size 1, requested type "simple"
  2704                           ; Number of cases is 11, Range of values is 0 to 10
  2705                           ; switch strategies available:
  2706                           ; Name         Instructions Cycles
  2707                           ; direct_byte           28     6 (fixed)
  2708                           ; simple_byte           34    18 (average)
  2709                           ; jumptable            260     6 (fixed)
  2710                           ;	Chosen strategy is simple_byte
  2711     02F8  3A00               	xorlw	0	; case 0
  2712     02F9  1903               	skipnz
  2713     02FA  2AB2               	goto	l2796
  2714     02FB  3A01               	xorlw	1	; case 1
  2715     02FC  1903               	skipnz
  2716     02FD  2ABF               	goto	l2804
  2717     02FE  3A03               	xorlw	3	; case 2
  2718     02FF  1903               	skipnz
  2719     0300  2ACA               	goto	l2810
  2720     0301  3A01               	xorlw	1	; case 3
  2721     0302  1903               	skipnz
  2722     0303  2ACF               	goto	l2812
  2723     0304  3A07               	xorlw	7	; case 4
  2724     0305  1903               	skipnz
  2725     0306  2AD4               	goto	l2814
  2726     0307  3A01               	xorlw	1	; case 5
  2727     0308  1903               	skipnz
  2728     0309  2AD9               	goto	l2816
  2729     030A  3A03               	xorlw	3	; case 6
  2730     030B  1903               	skipnz
  2731     030C  2ADE               	goto	l2818
  2732     030D  3A01               	xorlw	1	; case 7
  2733     030E  1903               	skipnz
  2734     030F  2AE3               	goto	l2820
  2735     0310  3A0F               	xorlw	15	; case 8
  2736     0311  1903               	skipnz
  2737     0312  2AE8               	goto	l2822
  2738     0313  3A01               	xorlw	1	; case 9
  2739     0314  1903               	skipnz
  2740     0315  2AED               	goto	l2824
  2741     0316  3A03               	xorlw	3	; case 10
  2742     0317  1903               	skipnz
  2743     0318  2AF2               	goto	l2826
  2744     0319  2ABD               	goto	l2802
  2745     031A                     l479:
  2746     031A  0008               	return
  2747     031B                     __end_of_getFrameData:
  2748                           
  2749                           	psect	text2
  2750     038F                     __ptext2:	
  2751 ;; *************** function _check_input *****************
  2752 ;; Defined at:
  2753 ;;		line 473 in file "main.c"
  2754 ;; Parameters:    Size  Location     Type
  2755 ;;		None
  2756 ;; Auto vars:     Size  Location     Type
  2757 ;;		None
  2758 ;; Return value:  Size  Location     Type
  2759 ;;                  1    wreg      void 
  2760 ;; Registers used:
  2761 ;;		wreg, status,2
  2762 ;; Tracked objects:
  2763 ;;		On entry : 0/0
  2764 ;;		On exit  : 0/0
  2765 ;;		Unchanged: 0/0
  2766 ;; Data sizes:     COMMON   BANK0   BANK1   BANK2   BANK3   BANK4   BANK5   BANK6
  2767 ;;      Params:         0       0       0       0       0       0       0       0
  2768 ;;      Locals:         0       0       0       0       0       0       0       0
  2769 ;;      Temps:          0       0       0       0       0       0       0       0
  2770 ;;      Totals:         0       0       0       0       0       0       0       0
  2771 ;;Total ram usage:        0 bytes
  2772 ;; Hardware stack levels used: 1
  2773 ;; Hardware stack levels required when called: 4
  2774 ;; This function calls:
  2775 ;;		Nothing
  2776 ;; This function is called by:
  2777 ;;		_main
  2778 ;; This function uses a non-reentrant model
  2779 ;;
  2780                           
  2781     038F                     _check_input:	
  2782                           ;psect for function _check_input
  2783                           
  2784     038F                     l2774:	
  2785                           ;incstack = 0
  2786                           ; Regs used in _check_input: [wreg+status,2]
  2787                           
  2788                           
  2789                           ;main.c: 475:     D2.Byte = data_buf[2];
  2790     038F  0020               	movlb	0	; select bank0
  2791     0390  0822               	movf	_data_buf+2,w
  2792     0391  00F3               	movwf	_D2
  2793                           
  2794                           ;main.c: 476:     D3.Byte = data_buf[3];
  2795     0392  0823               	movf	_data_buf+3,w
  2796     0393  00C3               	movwf	_D3
  2797     0394                     l2776:
  2798                           
  2799                           ;main.c: 477:     csFlag.Byte = 0;
  2800     0394  01F2               	clrf	_csFlag
  2801     0395                     l2778:
  2802                           
  2803                           ;main.c: 480:     if (D2.POS == 1)
  2804     0395  1D73               	btfss	_D2,2
  2805     0396  2B98               	goto	u3051
  2806     0397  2B99               	goto	u3050
  2807     0398                     u3051:
  2808     0398  2B9B               	goto	l445
  2809     0399                     u3050:
  2810     0399                     l2780:
  2811                           
  2812                           ;main.c: 481:         csFlag.POS = 1;
  2813     0399  16F2               	bsf	_csFlag,5
  2814     039A  2B9C               	goto	l446
  2815     039B                     l445:	
  2816                           ;main.c: 482:     else
  2817                           
  2818                           
  2819                           ;main.c: 483:         csFlag.POS = 0;
  2820     039B  12F2               	bcf	_csFlag,5
  2821     039C                     l446:
  2822                           
  2823                           ;main.c: 486:     if (D2.DRL == 1)
  2824     039C  1DF3               	btfss	_D2,3
  2825     039D  2B9F               	goto	u3061
  2826     039E  2BA0               	goto	u3060
  2827     039F                     u3061:
  2828     039F  2BA2               	goto	l447
  2829     03A0                     u3060:
  2830     03A0                     l2782:
  2831                           
  2832                           ;main.c: 487:         csFlag.DRL = 1;
  2833     03A0  1672               	bsf	_csFlag,4
  2834     03A1  2BA3               	goto	l448
  2835     03A2                     l447:	
  2836                           ;main.c: 488:     else
  2837                           
  2838                           
  2839                           ;main.c: 489:         csFlag.DRL = 0;
  2840     03A2  1272               	bcf	_csFlag,4
  2841     03A3                     l448:
  2842                           
  2843                           ;main.c: 492:     if (D2.LoBeam == 1)
  2844     03A3  1E73               	btfss	_D2,4
  2845     03A4  2BA6               	goto	u3071
  2846     03A5  2BA7               	goto	u3070
  2847     03A6                     u3071:
  2848     03A6  2BA9               	goto	l449
  2849     03A7                     u3070:
  2850     03A7                     l2784:
  2851                           
  2852                           ;main.c: 493:         csFlag.LoBeam = 1;
  2853     03A7  15F2               	bsf	_csFlag,3
  2854     03A8  2BAA               	goto	l450
  2855     03A9                     l449:	
  2856                           ;main.c: 494:     else
  2857                           
  2858                           
  2859                           ;main.c: 495:         csFlag.LoBeam = 0;
  2860     03A9  11F2               	bcf	_csFlag,3
  2861     03AA                     l450:
  2862                           
  2863                           ;main.c: 498:     if (D2.HiBeam == 1)
  2864     03AA  1EF3               	btfss	_D2,5
  2865     03AB  2BAD               	goto	u3081
  2866     03AC  2BAE               	goto	u3080
  2867     03AD                     u3081:
  2868     03AD  2BB0               	goto	l451
  2869     03AE                     u3080:
  2870     03AE                     l2786:
  2871                           
  2872                           ;main.c: 499:         csFlag.HiBeam = 1;
  2873     03AE  1572               	bsf	_csFlag,2
  2874     03AF  2BB1               	goto	l452
  2875     03B0                     l451:	
  2876                           ;main.c: 500:     else
  2877                           
  2878                           
  2879                           ;main.c: 501:         csFlag.HiBeam = 0;
  2880     03B0  1172               	bcf	_csFlag,2
  2881     03B1                     l452:
  2882                           
  2883                           ;main.c: 504:     if (D3.turnLight_L == 1)
  2884     03B1  1EC3               	btfss	_D3,5
  2885     03B2  2BB4               	goto	u3091
  2886     03B3  2BB5               	goto	u3090
  2887     03B4                     u3091:
  2888     03B4  2BB7               	goto	l453
  2889     03B5                     u3090:
  2890     03B5                     l2788:
  2891                           
  2892                           ;main.c: 505:         csFlag.turnLight_L = 1;
  2893     03B5  14F2               	bsf	_csFlag,1
  2894     03B6  2BB8               	goto	l454
  2895     03B7                     l453:	
  2896                           ;main.c: 506:     else
  2897                           
  2898                           
  2899                           ;main.c: 507:         csFlag.turnLight_L = 0;
  2900     03B7  10F2               	bcf	_csFlag,1
  2901     03B8                     l454:
  2902                           
  2903                           ;main.c: 510:     if (D3.turnLight_R == 1)
  2904     03B8  1F43               	btfss	_D3,6
  2905     03B9  2BBB               	goto	u3101
  2906     03BA  2BBC               	goto	u3100
  2907     03BB                     u3101:
  2908     03BB  2BBE               	goto	l455
  2909     03BC                     u3100:
  2910     03BC                     l2790:
  2911                           
  2912                           ;main.c: 511:         csFlag.turnLight_R = 1;
  2913     03BC  1472               	bsf	_csFlag,0
  2914     03BD  2BBF               	goto	l457
  2915     03BE                     l455:	
  2916                           ;main.c: 512:     else
  2917                           
  2918                           
  2919                           ;main.c: 513:         csFlag.turnLight_R = 0;
  2920     03BE  1072               	bcf	_csFlag,0
  2921     03BF                     l457:
  2922     03BF  0008               	return
  2923     03C0                     __end_of_check_input:
  2924                           
  2925                           	psect	text3
  2926     0415                     __ptext3:	
  2927 ;; *************** function _SYSTEM_Initialize *****************
  2928 ;; Defined at:
  2929 ;;		line 50 in file "mcc_generated_files/mcc.c"
  2930 ;; Parameters:    Size  Location     Type
  2931 ;;		None
  2932 ;; Auto vars:     Size  Location     Type
  2933 ;;		None
  2934 ;; Return value:  Size  Location     Type
  2935 ;;                  1    wreg      void 
  2936 ;; Registers used:
  2937 ;;		wreg, status,2, status,0, pclath, cstack
  2938 ;; Tracked objects:
  2939 ;;		On entry : 0/0
  2940 ;;		On exit  : 0/0
  2941 ;;		Unchanged: 0/0
  2942 ;; Data sizes:     COMMON   BANK0   BANK1   BANK2   BANK3   BANK4   BANK5   BANK6
  2943 ;;      Params:         0       0       0       0       0       0       0       0
  2944 ;;      Locals:         0       0       0       0       0       0       0       0
  2945 ;;      Temps:          0       0       0       0       0       0       0       0
  2946 ;;      Totals:         0       0       0       0       0       0       0       0
  2947 ;;Total ram usage:        0 bytes
  2948 ;; Hardware stack levels used: 1
  2949 ;; Hardware stack levels required when called: 6
  2950 ;; This function calls:
  2951 ;;		_ECCP3_Initialize
  2952 ;;		_EPWM1_Initialize
  2953 ;;		_EPWM2_Initialize
  2954 ;;		_OSCILLATOR_Initialize
  2955 ;;		_PIN_MANAGER_Initialize
  2956 ;;		_TMR0_Initialize
  2957 ;;		_TMR1_Initialize
  2958 ;;		_TMR2_Initialize
  2959 ;;		_WDT_Initialize
  2960 ;; This function is called by:
  2961 ;;		_main
  2962 ;; This function uses a non-reentrant model
  2963 ;;
  2964                           
  2965     0415                     _SYSTEM_Initialize:	
  2966                           ;psect for function _SYSTEM_Initialize
  2967                           
  2968     0415                     l2534:	
  2969                           ;incstack = 0
  2970                           ; Regs used in _SYSTEM_Initialize: [wreg+status,2+status,0+pclath+cstack]
  2971                           
  2972                           
  2973                           ;mcc_generated_files/mcc.c: 53:     PIN_MANAGER_Initialize();
  2974     0415  3184  2431  3184   	fcall	_PIN_MANAGER_Initialize
  2975                           
  2976                           ;mcc_generated_files/mcc.c: 54:     OSCILLATOR_Initialize();
  2977     0418  3185  2502  3184   	fcall	_OSCILLATOR_Initialize
  2978                           
  2979                           ;mcc_generated_files/mcc.c: 55:     WDT_Initialize();
  2980     041B  3185  2539  3184   	fcall	_WDT_Initialize
  2981                           
  2982                           ;mcc_generated_files/mcc.c: 56:     EPWM2_Initialize();
  2983     041E  3184  24DB  3184   	fcall	_EPWM2_Initialize
  2984                           
  2985                           ;mcc_generated_files/mcc.c: 57:     EPWM1_Initialize();
  2986     0421  3184  24E8  3184   	fcall	_EPWM1_Initialize
  2987                           
  2988                           ;mcc_generated_files/mcc.c: 58:     ECCP3_Initialize();
  2989     0424  3185  250E  3184   	fcall	_ECCP3_Initialize
  2990                           
  2991                           ;mcc_generated_files/mcc.c: 59:     TMR2_Initialize();
  2992     0427  3185  2518  3184   	fcall	_TMR2_Initialize
  2993                           
  2994                           ;mcc_generated_files/mcc.c: 60:     TMR1_Initialize();
  2995     042A  3184  24CE  3184   	fcall	_TMR1_Initialize
  2996                           
  2997                           ;mcc_generated_files/mcc.c: 61:     TMR0_Initialize();
  2998     042D  3184  2498  3184   	fcall	_TMR0_Initialize
  2999     0430                     l31:
  3000     0430  0008               	return
  3001     0431                     __end_of_SYSTEM_Initialize:
  3002                           
  3003                           	psect	text4
  3004     0539                     __ptext4:	
  3005 ;; *************** function _WDT_Initialize *****************
  3006 ;; Defined at:
  3007 ;;		line 78 in file "mcc_generated_files/mcc.c"
  3008 ;; Parameters:    Size  Location     Type
  3009 ;;		None
  3010 ;; Auto vars:     Size  Location     Type
  3011 ;;		None
  3012 ;; Return value:  Size  Location     Type
  3013 ;;                  1    wreg      void 
  3014 ;; Registers used:
  3015 ;;		wreg
  3016 ;; Tracked objects:
  3017 ;;		On entry : 0/0
  3018 ;;		On exit  : 0/0
  3019 ;;		Unchanged: 0/0
  3020 ;; Data sizes:     COMMON   BANK0   BANK1   BANK2   BANK3   BANK4   BANK5   BANK6
  3021 ;;      Params:         0       0       0       0       0       0       0       0
  3022 ;;      Locals:         0       0       0       0       0       0       0       0
  3023 ;;      Temps:          0       0       0       0       0       0       0       0
  3024 ;;      Totals:         0       0       0       0       0       0       0       0
  3025 ;;Total ram usage:        0 bytes
  3026 ;; Hardware stack levels used: 1
  3027 ;; Hardware stack levels required when called: 4
  3028 ;; This function calls:
  3029 ;;		Nothing
  3030 ;; This function is called by:
  3031 ;;		_SYSTEM_Initialize
  3032 ;; This function uses a non-reentrant model
  3033 ;;
  3034                           
  3035     0539                     _WDT_Initialize:	
  3036                           ;psect for function _WDT_Initialize
  3037                           
  3038     0539                     l2426:	
  3039                           ;incstack = 0
  3040                           ; Regs used in _WDT_Initialize: [wreg]
  3041                           
  3042                           
  3043                           ;mcc_generated_files/mcc.c: 81:     WDTCON = 0x16;
  3044     0539  3016               	movlw	22
  3045     053A  0021               	movlb	1	; select bank1
  3046     053B  0097               	movwf	23	;volatile
  3047     053C                     l40:
  3048     053C  0008               	return
  3049     053D                     __end_of_WDT_Initialize:
  3050                           
  3051                           	psect	text5
  3052     0518                     __ptext5:	
  3053 ;; *************** function _TMR2_Initialize *****************
  3054 ;; Defined at:
  3055 ;;		line 62 in file "mcc_generated_files/tmr2.c"
  3056 ;; Parameters:    Size  Location     Type
  3057 ;;		None
  3058 ;; Auto vars:     Size  Location     Type
  3059 ;;		None
  3060 ;; Return value:  Size  Location     Type
  3061 ;;                  1    wreg      void 
  3062 ;; Registers used:
  3063 ;;		wreg, status,2
  3064 ;; Tracked objects:
  3065 ;;		On entry : 0/0
  3066 ;;		On exit  : 0/0
  3067 ;;		Unchanged: 0/0
  3068 ;; Data sizes:     COMMON   BANK0   BANK1   BANK2   BANK3   BANK4   BANK5   BANK6
  3069 ;;      Params:         0       0       0       0       0       0       0       0
  3070 ;;      Locals:         0       0       0       0       0       0       0       0
  3071 ;;      Temps:          0       0       0       0       0       0       0       0
  3072 ;;      Totals:         0       0       0       0       0       0       0       0
  3073 ;;Total ram usage:        0 bytes
  3074 ;; Hardware stack levels used: 1
  3075 ;; Hardware stack levels required when called: 4
  3076 ;; This function calls:
  3077 ;;		Nothing
  3078 ;; This function is called by:
  3079 ;;		_SYSTEM_Initialize
  3080 ;; This function uses a non-reentrant model
  3081 ;;
  3082                           
  3083     0518                     _TMR2_Initialize:	
  3084                           ;psect for function _TMR2_Initialize
  3085                           
  3086     0518                     l2466:	
  3087                           ;incstack = 0
  3088                           ; Regs used in _TMR2_Initialize: [wreg+status,2]
  3089                           
  3090                           
  3091                           ;mcc_generated_files/tmr2.c: 67:     PR2 = 0xC8;
  3092     0518  30C8               	movlw	200
  3093     0519  0020               	movlb	0	; select bank0
  3094     051A  009B               	movwf	27	;volatile
  3095     051B                     l2468:
  3096                           
  3097                           ;mcc_generated_files/tmr2.c: 70:     TMR2 = 0x00;
  3098     051B  019A               	clrf	26	;volatile
  3099     051C                     l2470:
  3100                           
  3101                           ;mcc_generated_files/tmr2.c: 73:     PIR1bits.TMR2IF = 0;
  3102     051C  1091               	bcf	17,1	;volatile
  3103     051D                     l2472:
  3104                           
  3105                           ;mcc_generated_files/tmr2.c: 76:     T2CON = 0x07;
  3106     051D  3007               	movlw	7
  3107     051E  009C               	movwf	28	;volatile
  3108     051F                     l197:
  3109     051F  0008               	return
  3110     0520                     __end_of_TMR2_Initialize:
  3111                           
  3112                           	psect	text6
  3113     04CE                     __ptext6:	
  3114 ;; *************** function _TMR1_Initialize *****************
  3115 ;; Defined at:
  3116 ;;		line 63 in file "mcc_generated_files/tmr1.c"
  3117 ;; Parameters:    Size  Location     Type
  3118 ;;		None
  3119 ;; Auto vars:     Size  Location     Type
  3120 ;;		None
  3121 ;; Return value:  Size  Location     Type
  3122 ;;                  1    wreg      void 
  3123 ;; Registers used:
  3124 ;;		wreg, status,2
  3125 ;; Tracked objects:
  3126 ;;		On entry : 0/0
  3127 ;;		On exit  : 0/0
  3128 ;;		Unchanged: 0/0
  3129 ;; Data sizes:     COMMON   BANK0   BANK1   BANK2   BANK3   BANK4   BANK5   BANK6
  3130 ;;      Params:         0       0       0       0       0       0       0       0
  3131 ;;      Locals:         0       0       0       0       0       0       0       0
  3132 ;;      Temps:          0       0       0       0       0       0       0       0
  3133 ;;      Totals:         0       0       0       0       0       0       0       0
  3134 ;;Total ram usage:        0 bytes
  3135 ;; Hardware stack levels used: 1
  3136 ;; Hardware stack levels required when called: 4
  3137 ;; This function calls:
  3138 ;;		Nothing
  3139 ;; This function is called by:
  3140 ;;		_SYSTEM_Initialize
  3141 ;; This function uses a non-reentrant model
  3142 ;;
  3143                           
  3144     04CE                     _TMR1_Initialize:	
  3145                           ;psect for function _TMR1_Initialize
  3146                           
  3147     04CE                     l2474:	
  3148                           ;incstack = 0
  3149                           ; Regs used in _TMR1_Initialize: [wreg+status,2]
  3150                           
  3151                           
  3152                           ;mcc_generated_files/tmr1.c: 68:     T1GCON = 0x10;
  3153     04CE  3010               	movlw	16
  3154     04CF  0020               	movlb	0	; select bank0
  3155     04D0  0099               	movwf	25	;volatile
  3156     04D1                     l2476:
  3157                           
  3158                           ;mcc_generated_files/tmr1.c: 71:     TMR1H = 0x00;
  3159     04D1  0197               	clrf	23	;volatile
  3160     04D2                     l2478:
  3161                           
  3162                           ;mcc_generated_files/tmr1.c: 74:     TMR1L = 0x00;
  3163     04D2  0196               	clrf	22	;volatile
  3164     04D3                     l2480:
  3165                           
  3166                           ;mcc_generated_files/tmr1.c: 77:     PIR1bits.TMR1IF = 0;
  3167     04D3  1011               	bcf	17,0	;volatile
  3168                           
  3169                           ;mcc_generated_files/tmr1.c: 80:     timer1ReloadVal=(uint16_t)((TMR1H << 8) | TMR1L);
  3170     04D4  0817               	movf	23,w	;volatile
  3171     04D5  00B6               	movwf	_timer1ReloadVal+1	;volatile
  3172     04D6  0816               	movf	22,w	;volatile
  3173     04D7  00B5               	movwf	_timer1ReloadVal	;volatile
  3174                           
  3175                           ;mcc_generated_files/tmr1.c: 83:     T1CON = 0x01;
  3176     04D8  3001               	movlw	1
  3177     04D9  0098               	movwf	24	;volatile
  3178     04DA                     l80:
  3179     04DA  0008               	return
  3180     04DB                     __end_of_TMR1_Initialize:
  3181                           
  3182                           	psect	text7
  3183     0498                     __ptext7:	
  3184 ;; *************** function _TMR0_Initialize *****************
  3185 ;; Defined at:
  3186 ;;		line 64 in file "mcc_generated_files/tmr0.c"
  3187 ;; Parameters:    Size  Location     Type
  3188 ;;		None
  3189 ;; Auto vars:     Size  Location     Type
  3190 ;;		None
  3191 ;; Return value:  Size  Location     Type
  3192 ;;                  1    wreg      void 
  3193 ;; Registers used:
  3194 ;;		wreg, status,2, status,0, pclath, cstack
  3195 ;; Tracked objects:
  3196 ;;		On entry : 0/0
  3197 ;;		On exit  : 0/0
  3198 ;;		Unchanged: 0/0
  3199 ;; Data sizes:     COMMON   BANK0   BANK1   BANK2   BANK3   BANK4   BANK5   BANK6
  3200 ;;      Params:         0       0       0       0       0       0       0       0
  3201 ;;      Locals:         0       0       0       0       0       0       0       0
  3202 ;;      Temps:          0       0       0       0       0       0       0       0
  3203 ;;      Totals:         0       0       0       0       0       0       0       0
  3204 ;;Total ram usage:        0 bytes
  3205 ;; Hardware stack levels used: 1
  3206 ;; Hardware stack levels required when called: 5
  3207 ;; This function calls:
  3208 ;;		_TMR0_SetInterruptHandler
  3209 ;; This function is called by:
  3210 ;;		_SYSTEM_Initialize
  3211 ;; This function uses a non-reentrant model
  3212 ;;
  3213                           
  3214     0498                     _TMR0_Initialize:	
  3215                           ;psect for function _TMR0_Initialize
  3216                           
  3217     0498                     l2482:	
  3218                           ;incstack = 0
  3219                           ; Regs used in _TMR0_Initialize: [wreg+status,2+status,0+pclath+cstack]
  3220                           
  3221                           
  3222                           ;mcc_generated_files/tmr0.c: 69:     OPTION_REG = (uint8_t)((OPTION_REG & 0xC0) | (0xD4 
      +                          & 0x3F));
  3223     0498  0021               	movlb	1	; select bank1
  3224     0499  0815               	movf	21,w	;volatile
  3225     049A  39C0               	andlw	192
  3226     049B  3814               	iorlw	20
  3227     049C  0095               	movwf	21	;volatile
  3228     049D                     l2484:
  3229                           
  3230                           ;mcc_generated_files/tmr0.c: 72:     TMR0 = 0x06;
  3231     049D  3006               	movlw	6
  3232     049E  0020               	movlb	0	; select bank0
  3233     049F  0095               	movwf	21	;volatile
  3234     04A0                     l2486:
  3235                           
  3236                           ;mcc_generated_files/tmr0.c: 75:     timer0ReloadVal= 6;
  3237     04A0  3006               	movlw	6
  3238     04A1  00F5               	movwf	_timer0ReloadVal	;volatile
  3239     04A2                     l2488:
  3240                           
  3241                           ;mcc_generated_files/tmr0.c: 78:     INTCONbits.TMR0IF = 0;
  3242     04A2  110B               	bcf	11,2	;volatile
  3243     04A3                     l2490:
  3244                           
  3245                           ;mcc_generated_files/tmr0.c: 81:     INTCONbits.TMR0IE = 1;
  3246     04A3  168B               	bsf	11,5	;volatile
  3247     04A4                     l2492:
  3248                           
  3249                           ;mcc_generated_files/tmr0.c: 84:     TMR0_SetInterruptHandler(TMR0_DefaultInterruptHandl
      +                          er);
  3250     04A4  3041               	movlw	low _TMR0_DefaultInterruptHandler
  3251     04A5  00C7               	movwf	TMR0_SetInterruptHandler@InterruptHandler
  3252     04A6  3005               	movlw	high _TMR0_DefaultInterruptHandler
  3253     04A7  00C8               	movwf	TMR0_SetInterruptHandler@InterruptHandler+1
  3254     04A8  3185  2533  3184   	fcall	_TMR0_SetInterruptHandler
  3255     04AB                     l159:
  3256     04AB  0008               	return
  3257     04AC                     __end_of_TMR0_Initialize:
  3258                           
  3259                           	psect	text8
  3260     0533                     __ptext8:	
  3261 ;; *************** function _TMR0_SetInterruptHandler *****************
  3262 ;; Defined at:
  3263 ;;		line 140 in file "mcc_generated_files/tmr0.c"
  3264 ;; Parameters:    Size  Location     Type
  3265 ;;  InterruptHan    2    0[BANK0 ] PTR FTN()void 
  3266 ;;		 -> TMR0_EvenHandler(1), TMR0_DefaultInterruptHandler(1), 
  3267 ;; Auto vars:     Size  Location     Type
  3268 ;;		None
  3269 ;; Return value:  Size  Location     Type
  3270 ;;                  1    wreg      void 
  3271 ;; Registers used:
  3272 ;;		wreg
  3273 ;; Tracked objects:
  3274 ;;		On entry : 0/0
  3275 ;;		On exit  : 0/0
  3276 ;;		Unchanged: 0/0
  3277 ;; Data sizes:     COMMON   BANK0   BANK1   BANK2   BANK3   BANK4   BANK5   BANK6
  3278 ;;      Params:         0       2       0       0       0       0       0       0
  3279 ;;      Locals:         0       0       0       0       0       0       0       0
  3280 ;;      Temps:          0       0       0       0       0       0       0       0
  3281 ;;      Totals:         0       2       0       0       0       0       0       0
  3282 ;;Total ram usage:        2 bytes
  3283 ;; Hardware stack levels used: 1
  3284 ;; Hardware stack levels required when called: 4
  3285 ;; This function calls:
  3286 ;;		Nothing
  3287 ;; This function is called by:
  3288 ;;		_TMR0_Initialize
  3289 ;;		_main
  3290 ;; This function uses a non-reentrant model
  3291 ;;
  3292                           
  3293     0533                     _TMR0_SetInterruptHandler:	
  3294                           ;psect for function _TMR0_SetInterruptHandler
  3295                           
  3296     0533                     l2382:	
  3297                           ;incstack = 0
  3298                           ; Regs used in _TMR0_SetInterruptHandler: [wreg]
  3299                           
  3300                           
  3301                           ;mcc_generated_files/tmr0.c: 141:     TMR0_InterruptHandler = InterruptHandler;
  3302     0533  0020               	movlb	0	; select bank0
  3303     0534  0848               	movf	TMR0_SetInterruptHandler@InterruptHandler+1,w
  3304     0535  00B4               	movwf	_TMR0_InterruptHandler+1
  3305     0536  0847               	movf	TMR0_SetInterruptHandler@InterruptHandler,w
  3306     0537  00B3               	movwf	_TMR0_InterruptHandler
  3307     0538                     l181:
  3308     0538  0008               	return
  3309     0539                     __end_of_TMR0_SetInterruptHandler:
  3310                           
  3311                           	psect	text9
  3312     0431                     __ptext9:	
  3313 ;; *************** function _PIN_MANAGER_Initialize *****************
  3314 ;; Defined at:
  3315 ;;		line 55 in file "mcc_generated_files/pin_manager.c"
  3316 ;; Parameters:    Size  Location     Type
  3317 ;;		None
  3318 ;; Auto vars:     Size  Location     Type
  3319 ;;		None
  3320 ;; Return value:  Size  Location     Type
  3321 ;;                  1    wreg      void 
  3322 ;; Registers used:
  3323 ;;		wreg, status,2
  3324 ;; Tracked objects:
  3325 ;;		On entry : 0/0
  3326 ;;		On exit  : 0/0
  3327 ;;		Unchanged: 0/0
  3328 ;; Data sizes:     COMMON   BANK0   BANK1   BANK2   BANK3   BANK4   BANK5   BANK6
  3329 ;;      Params:         0       0       0       0       0       0       0       0
  3330 ;;      Locals:         0       0       0       0       0       0       0       0
  3331 ;;      Temps:          0       0       0       0       0       0       0       0
  3332 ;;      Totals:         0       0       0       0       0       0       0       0
  3333 ;;Total ram usage:        0 bytes
  3334 ;; Hardware stack levels used: 1
  3335 ;; Hardware stack levels required when called: 4
  3336 ;; This function calls:
  3337 ;;		Nothing
  3338 ;; This function is called by:
  3339 ;;		_SYSTEM_Initialize
  3340 ;; This function uses a non-reentrant model
  3341 ;;
  3342                           
  3343     0431                     _PIN_MANAGER_Initialize:	
  3344                           ;psect for function _PIN_MANAGER_Initialize
  3345                           
  3346     0431                     l2396:	
  3347                           ;incstack = 0
  3348                           ; Regs used in _PIN_MANAGER_Initialize: [wreg+status,2]
  3349                           
  3350                           
  3351                           ;mcc_generated_files/pin_manager.c: 60:     LATE = 0x00;
  3352     0431  0022               	movlb	2	; select bank2
  3353     0432  0190               	clrf	16	;volatile
  3354                           
  3355                           ;mcc_generated_files/pin_manager.c: 61:     LATA = 0x00;
  3356     0433  018C               	clrf	12	;volatile
  3357                           
  3358                           ;mcc_generated_files/pin_manager.c: 62:     LATB = 0x00;
  3359     0434  018D               	clrf	13	;volatile
  3360     0435                     l2398:
  3361                           
  3362                           ;mcc_generated_files/pin_manager.c: 63:     LATC = 0x10;
  3363     0435  3010               	movlw	16
  3364     0436  008E               	movwf	14	;volatile
  3365     0437                     l2400:
  3366                           
  3367                           ;mcc_generated_files/pin_manager.c: 68:     TRISE = 0x08;
  3368     0437  3008               	movlw	8
  3369     0438  0021               	movlb	1	; select bank1
  3370     0439  0090               	movwf	16	;volatile
  3371     043A                     l2402:
  3372                           
  3373                           ;mcc_generated_files/pin_manager.c: 69:     TRISA = 0xFE;
  3374     043A  30FE               	movlw	254
  3375     043B  008C               	movwf	12	;volatile
  3376     043C                     l2404:
  3377                           
  3378                           ;mcc_generated_files/pin_manager.c: 70:     TRISB = 0x7F;
  3379     043C  307F               	movlw	127
  3380     043D  008D               	movwf	13	;volatile
  3381     043E                     l2406:
  3382                           
  3383                           ;mcc_generated_files/pin_manager.c: 71:     TRISC = 0xF9;
  3384     043E  30F9               	movlw	249
  3385     043F  008E               	movwf	14	;volatile
  3386     0440                     l2408:
  3387                           
  3388                           ;mcc_generated_files/pin_manager.c: 76:     ANSELB = 0x3F;
  3389     0440  303F               	movlw	63
  3390     0441  0023               	movlb	3	; select bank3
  3391     0442  008D               	movwf	13	;volatile
  3392     0443                     l2410:
  3393                           
  3394                           ;mcc_generated_files/pin_manager.c: 77:     ANSELA = 0x3F;
  3395     0443  303F               	movlw	63
  3396     0444  008C               	movwf	12	;volatile
  3397     0445                     l2412:
  3398                           
  3399                           ;mcc_generated_files/pin_manager.c: 82:     WPUE = 0x00;
  3400     0445  0024               	movlb	4	; select bank4
  3401     0446  0190               	clrf	16	;volatile
  3402     0447                     l2414:
  3403                           
  3404                           ;mcc_generated_files/pin_manager.c: 83:     WPUB = 0x00;
  3405     0447  018D               	clrf	13	;volatile
  3406     0448                     l2416:
  3407                           
  3408                           ;mcc_generated_files/pin_manager.c: 84:     OPTION_REGbits.nWPUEN = 1;
  3409     0448  0021               	movlb	1	; select bank1
  3410     0449  1795               	bsf	21,7	;volatile
  3411     044A                     l2418:
  3412                           
  3413                           ;mcc_generated_files/pin_manager.c: 90:     APFCON = 0x00;
  3414     044A  0022               	movlb	2	; select bank2
  3415     044B  019D               	clrf	29	;volatile
  3416     044C                     l137:
  3417     044C  0008               	return
  3418     044D                     __end_of_PIN_MANAGER_Initialize:
  3419                           
  3420                           	psect	text10
  3421     0502                     __ptext10:	
  3422 ;; *************** function _OSCILLATOR_Initialize *****************
  3423 ;; Defined at:
  3424 ;;		line 64 in file "mcc_generated_files/mcc.c"
  3425 ;; Parameters:    Size  Location     Type
  3426 ;;		None
  3427 ;; Auto vars:     Size  Location     Type
  3428 ;;		None
  3429 ;; Return value:  Size  Location     Type
  3430 ;;                  1    wreg      void 
  3431 ;; Registers used:
  3432 ;;		wreg, status,2
  3433 ;; Tracked objects:
  3434 ;;		On entry : 0/0
  3435 ;;		On exit  : 0/0
  3436 ;;		Unchanged: 0/0
  3437 ;; Data sizes:     COMMON   BANK0   BANK1   BANK2   BANK3   BANK4   BANK5   BANK6
  3438 ;;      Params:         0       0       0       0       0       0       0       0
  3439 ;;      Locals:         0       0       0       0       0       0       0       0
  3440 ;;      Temps:          0       0       0       0       0       0       0       0
  3441 ;;      Totals:         0       0       0       0       0       0       0       0
  3442 ;;Total ram usage:        0 bytes
  3443 ;; Hardware stack levels used: 1
  3444 ;; Hardware stack levels required when called: 4
  3445 ;; This function calls:
  3446 ;;		Nothing
  3447 ;; This function is called by:
  3448 ;;		_SYSTEM_Initialize
  3449 ;; This function uses a non-reentrant model
  3450 ;;
  3451                           
  3452     0502                     _OSCILLATOR_Initialize:	
  3453                           ;psect for function _OSCILLATOR_Initialize
  3454                           
  3455     0502                     l2420:	
  3456                           ;incstack = 0
  3457                           ; Regs used in _OSCILLATOR_Initialize: [wreg+status,2]
  3458                           
  3459                           
  3460                           ;mcc_generated_files/mcc.c: 67:     OSCCON = 0x70;
  3461     0502  3070               	movlw	112
  3462     0503  0021               	movlb	1	; select bank1
  3463     0504  0099               	movwf	25	;volatile
  3464     0505                     l2422:
  3465                           
  3466                           ;mcc_generated_files/mcc.c: 69:     OSCTUNE = 0x00;
  3467     0505  0198               	clrf	24	;volatile
  3468     0506                     l2424:
  3469                           
  3470                           ;mcc_generated_files/mcc.c: 71:     BORCON = 0x00;
  3471     0506  0022               	movlb	2	; select bank2
  3472     0507  0196               	clrf	22	;volatile
  3473     0508                     l34:	
  3474                           ;mcc_generated_files/mcc.c: 74:     {;mcc_generated_files/mcc.c: 75:     }
  3475                           
  3476                           
  3477                           ;mcc_generated_files/mcc.c: 73:     while(PLLR == 0)
  3478     0508  0021               	movlb	1	; select bank1
  3479     0509  1F1A               	btfss	26,6	;volatile
  3480     050A  2D0C               	goto	u2281
  3481     050B  2D0D               	goto	u2280
  3482     050C                     u2281:
  3483     050C  2D08               	goto	l34
  3484     050D                     u2280:
  3485     050D                     l37:
  3486     050D  0008               	return
  3487     050E                     __end_of_OSCILLATOR_Initialize:
  3488                           
  3489                           	psect	text11
  3490     04DB                     __ptext11:	
  3491 ;; *************** function _EPWM2_Initialize *****************
  3492 ;; Defined at:
  3493 ;;		line 64 in file "mcc_generated_files/epwm2.c"
  3494 ;; Parameters:    Size  Location     Type
  3495 ;;		None
  3496 ;; Auto vars:     Size  Location     Type
  3497 ;;		None
  3498 ;; Return value:  Size  Location     Type
  3499 ;;                  1    wreg      void 
  3500 ;; Registers used:
  3501 ;;		wreg, status,2, status,0
  3502 ;; Tracked objects:
  3503 ;;		On entry : 0/0
  3504 ;;		On exit  : 0/0
  3505 ;;		Unchanged: 0/0
  3506 ;; Data sizes:     COMMON   BANK0   BANK1   BANK2   BANK3   BANK4   BANK5   BANK6
  3507 ;;      Params:         0       0       0       0       0       0       0       0
  3508 ;;      Locals:         0       0       0       0       0       0       0       0
  3509 ;;      Temps:          0       0       0       0       0       0       0       0
  3510 ;;      Totals:         0       0       0       0       0       0       0       0
  3511 ;;Total ram usage:        0 bytes
  3512 ;; Hardware stack levels used: 1
  3513 ;; Hardware stack levels required when called: 4
  3514 ;; This function calls:
  3515 ;;		Nothing
  3516 ;; This function is called by:
  3517 ;;		_SYSTEM_Initialize
  3518 ;; This function uses a non-reentrant model
  3519 ;;
  3520                           
  3521     04DB                     _EPWM2_Initialize:	
  3522                           ;psect for function _EPWM2_Initialize
  3523                           
  3524     04DB                     l2428:	
  3525                           ;incstack = 0
  3526                           ; Regs used in _EPWM2_Initialize: [wreg+status,2+status,0]
  3527                           
  3528                           
  3529                           ;mcc_generated_files/epwm2.c: 69:  CCP2CON = 0x0C;
  3530     04DB  300C               	movlw	12
  3531     04DC  0025               	movlb	5	; select bank5
  3532     04DD  009A               	movwf	26	;volatile
  3533     04DE                     l2430:
  3534                           
  3535                           ;mcc_generated_files/epwm2.c: 72:  ECCP2AS = 0x00;
  3536     04DE  019C               	clrf	28	;volatile
  3537     04DF                     l2432:
  3538                           
  3539                           ;mcc_generated_files/epwm2.c: 75:  PWM2CON = 0x80;
  3540     04DF  3080               	movlw	128
  3541     04E0  009B               	movwf	27	;volatile
  3542     04E1                     l2434:
  3543                           
  3544                           ;mcc_generated_files/epwm2.c: 78:  PSTR2CON = 0x01;
  3545     04E1  3001               	movlw	1
  3546     04E2  009D               	movwf	29	;volatile
  3547     04E3                     l2436:
  3548                           
  3549                           ;mcc_generated_files/epwm2.c: 81:  CCPR2H = 0x00;
  3550     04E3  0199               	clrf	25	;volatile
  3551     04E4                     l2438:
  3552                           
  3553                           ;mcc_generated_files/epwm2.c: 84:  CCPR2L = 0x00;
  3554     04E4  0198               	clrf	24	;volatile
  3555     04E5                     l2440:
  3556                           
  3557                           ;mcc_generated_files/epwm2.c: 87:  CCPTMRS0bits.C2TSEL = 0x0;
  3558     04E5  30F3               	movlw	-13
  3559     04E6  059E               	andwf	30,f	;volatile
  3560     04E7                     l271:
  3561     04E7  0008               	return
  3562     04E8                     __end_of_EPWM2_Initialize:
  3563                           
  3564                           	psect	text12
  3565     04E8                     __ptext12:	
  3566 ;; *************** function _EPWM1_Initialize *****************
  3567 ;; Defined at:
  3568 ;;		line 64 in file "mcc_generated_files/epwm1.c"
  3569 ;; Parameters:    Size  Location     Type
  3570 ;;		None
  3571 ;; Auto vars:     Size  Location     Type
  3572 ;;		None
  3573 ;; Return value:  Size  Location     Type
  3574 ;;                  1    wreg      void 
  3575 ;; Registers used:
  3576 ;;		wreg, status,2, status,0
  3577 ;; Tracked objects:
  3578 ;;		On entry : 0/0
  3579 ;;		On exit  : 0/0
  3580 ;;		Unchanged: 0/0
  3581 ;; Data sizes:     COMMON   BANK0   BANK1   BANK2   BANK3   BANK4   BANK5   BANK6
  3582 ;;      Params:         0       0       0       0       0       0       0       0
  3583 ;;      Locals:         0       0       0       0       0       0       0       0
  3584 ;;      Temps:          0       0       0       0       0       0       0       0
  3585 ;;      Totals:         0       0       0       0       0       0       0       0
  3586 ;;Total ram usage:        0 bytes
  3587 ;; Hardware stack levels used: 1
  3588 ;; Hardware stack levels required when called: 4
  3589 ;; This function calls:
  3590 ;;		Nothing
  3591 ;; This function is called by:
  3592 ;;		_SYSTEM_Initialize
  3593 ;; This function uses a non-reentrant model
  3594 ;;
  3595                           
  3596     04E8                     _EPWM1_Initialize:	
  3597                           ;psect for function _EPWM1_Initialize
  3598                           
  3599     04E8                     l2442:	
  3600                           ;incstack = 0
  3601                           ; Regs used in _EPWM1_Initialize: [wreg+status,2+status,0]
  3602                           
  3603                           
  3604                           ;mcc_generated_files/epwm1.c: 69:  CCP1CON = 0x0C;
  3605     04E8  300C               	movlw	12
  3606     04E9  0025               	movlb	5	; select bank5
  3607     04EA  0093               	movwf	19	;volatile
  3608     04EB                     l2444:
  3609                           
  3610                           ;mcc_generated_files/epwm1.c: 72:  ECCP1AS = 0x00;
  3611     04EB  0195               	clrf	21	;volatile
  3612     04EC                     l2446:
  3613                           
  3614                           ;mcc_generated_files/epwm1.c: 75:  PWM1CON = 0x80;
  3615     04EC  3080               	movlw	128
  3616     04ED  0094               	movwf	20	;volatile
  3617     04EE                     l2448:
  3618                           
  3619                           ;mcc_generated_files/epwm1.c: 78:  PSTR1CON = 0x01;
  3620     04EE  3001               	movlw	1
  3621     04EF  0096               	movwf	22	;volatile
  3622     04F0                     l2450:
  3623                           
  3624                           ;mcc_generated_files/epwm1.c: 81:  CCPR1H = 0x00;
  3625     04F0  0192               	clrf	18	;volatile
  3626     04F1                     l2452:
  3627                           
  3628                           ;mcc_generated_files/epwm1.c: 84:  CCPR1L = 0x00;
  3629     04F1  0191               	clrf	17	;volatile
  3630     04F2                     l2454:
  3631                           
  3632                           ;mcc_generated_files/epwm1.c: 87:  CCPTMRS0bits.C1TSEL = 0x0;
  3633     04F2  30FC               	movlw	-4
  3634     04F3  059E               	andwf	30,f	;volatile
  3635     04F4                     l251:
  3636     04F4  0008               	return
  3637     04F5                     __end_of_EPWM1_Initialize:
  3638                           
  3639                           	psect	text13
  3640     050E                     __ptext13:	
  3641 ;; *************** function _ECCP3_Initialize *****************
  3642 ;; Defined at:
  3643 ;;		line 59 in file "mcc_generated_files/eccp3.c"
  3644 ;; Parameters:    Size  Location     Type
  3645 ;;		None
  3646 ;; Auto vars:     Size  Location     Type
  3647 ;;		None
  3648 ;; Return value:  Size  Location     Type
  3649 ;;                  1    wreg      void 
  3650 ;; Registers used:
  3651 ;;		wreg, status,2
  3652 ;; Tracked objects:
  3653 ;;		On entry : 0/0
  3654 ;;		On exit  : 0/0
  3655 ;;		Unchanged: 0/0
  3656 ;; Data sizes:     COMMON   BANK0   BANK1   BANK2   BANK3   BANK4   BANK5   BANK6
  3657 ;;      Params:         0       0       0       0       0       0       0       0
  3658 ;;      Locals:         0       0       0       0       0       0       0       0
  3659 ;;      Temps:          0       0       0       0       0       0       0       0
  3660 ;;      Totals:         0       0       0       0       0       0       0       0
  3661 ;;Total ram usage:        0 bytes
  3662 ;; Hardware stack levels used: 1
  3663 ;; Hardware stack levels required when called: 4
  3664 ;; This function calls:
  3665 ;;		Nothing
  3666 ;; This function is called by:
  3667 ;;		_SYSTEM_Initialize
  3668 ;; This function uses a non-reentrant model
  3669 ;;
  3670                           
  3671     050E                     _ECCP3_Initialize:	
  3672                           ;psect for function _ECCP3_Initialize
  3673                           
  3674     050E                     l2456:	
  3675                           ;incstack = 0
  3676                           ; Regs used in _ECCP3_Initialize: [wreg+status,2]
  3677                           
  3678                           
  3679                           ;mcc_generated_files/eccp3.c: 64:  CCP3CON = 0x05;
  3680     050E  3005               	movlw	5
  3681     050F  0026               	movlb	6	; select bank6
  3682     0510  0093               	movwf	19	;volatile
  3683     0511                     l2458:
  3684                           
  3685                           ;mcc_generated_files/eccp3.c: 67:  CCPR3H = 0x00;
  3686     0511  0192               	clrf	18	;volatile
  3687     0512                     l2460:
  3688                           
  3689                           ;mcc_generated_files/eccp3.c: 70:  CCPR3L = 0x00;
  3690     0512  0191               	clrf	17	;volatile
  3691     0513                     l2462:
  3692                           
  3693                           ;mcc_generated_files/eccp3.c: 73:     PIR3bits.CCP3IF = 0;
  3694     0513  0020               	movlb	0	; select bank0
  3695     0514  1213               	bcf	19,4	;volatile
  3696     0515                     l2464:
  3697                           
  3698                           ;mcc_generated_files/eccp3.c: 76:     PIE3bits.CCP3IE = 1;
  3699     0515  0021               	movlb	1	; select bank1
  3700     0516  1613               	bsf	19,4	;volatile
  3701     0517                     l231:
  3702     0517  0008               	return
  3703     0518                     __end_of_ECCP3_Initialize:
  3704                           
  3705                           	psect	text14
  3706     0046                     __ptext14:	
  3707 ;; *************** function _LED_output *****************
  3708 ;; Defined at:
  3709 ;;		line 337 in file "main.c"
  3710 ;; Parameters:    Size  Location     Type
  3711 ;;		None
  3712 ;; Auto vars:     Size  Location     Type
  3713 ;;  i               1    4[BANK0 ] unsigned char 
  3714 ;;  crc8            1    3[BANK0 ] unsigned char 
  3715 ;; Return value:  Size  Location     Type
  3716 ;;                  1    wreg      void 
  3717 ;; Registers used:
  3718 ;;		wreg, fsr1l, fsr1h, status,2, status,0, pclath, cstack
  3719 ;; Tracked objects:
  3720 ;;		On entry : 0/0
  3721 ;;		On exit  : 0/0
  3722 ;;		Unchanged: 0/0
  3723 ;; Data sizes:     COMMON   BANK0   BANK1   BANK2   BANK3   BANK4   BANK5   BANK6
  3724 ;;      Params:         0       0       0       0       0       0       0       0
  3725 ;;      Locals:         0       2       0       0       0       0       0       0
  3726 ;;      Temps:          0       1       0       0       0       0       0       0
  3727 ;;      Totals:         0       3       0       0       0       0       0       0
  3728 ;;Total ram usage:        3 bytes
  3729 ;; Hardware stack levels used: 1
  3730 ;; Hardware stack levels required when called: 6
  3731 ;; This function calls:
  3732 ;;		_DRL_ON
  3733 ;;		_LoBeam_ON
  3734 ;;		_POS_ON
  3735 ;; This function is called by:
  3736 ;;		_main
  3737 ;; This function uses a non-reentrant model
  3738 ;;
  3739                           
  3740     0046                     _LED_output:	
  3741                           ;psect for function _LED_output
  3742                           
  3743     0046                     l2564:	
  3744                           ;incstack = 0
  3745                           ; Regs used in _LED_output: [wreg+fsr1l+fsr1h+status,2+status,0+pclath+cstack]
  3746                           
  3747                           
  3748                           ;main.c: 339:     uint8_t crc8 = CS[csFlag.Byte];
  3749     0046  0872               	movf	_csFlag,w
  3750     0047  3EA0               	addlw	(low (_CS| 0))& (0+255)
  3751     0048  0086               	movwf	6
  3752     0049  0187               	clrf	7
  3753     004A  0801               	movf	1,w
  3754     004B  0020               	movlb	0	; select bank0
  3755     004C  00CA               	movwf	LED_output@crc8
  3756     004D                     l2566:
  3757                           
  3758                           ;main.c: 341:     if (data_buf[10] != crc8)
  3759     004D  082A               	movf	_data_buf+10,w
  3760     004E  064A               	xorwf	LED_output@crc8,w
  3761     004F  1903               	skipnz
  3762     0050  2852               	goto	u2361
  3763     0051  2853               	goto	u2360
  3764     0052                     u2361:
  3765     0052  2854               	goto	l2570
  3766     0053                     u2360:
  3767     0053  29DD               	goto	l369
  3768     0054                     l2570:
  3769                           
  3770                           ;main.c: 343:     if (data_buf[0] != 0xC8)
  3771     0054  30C8               	movlw	200
  3772     0055  0620               	xorwf	_data_buf,w
  3773     0056  1903               	btfsc	3,2
  3774     0057  2859               	goto	u2371
  3775     0058  285A               	goto	u2370
  3776     0059                     u2371:
  3777     0059  285B               	goto	l2574
  3778     005A                     u2370:
  3779     005A  29DD               	goto	l369
  3780     005B                     l2574:
  3781                           
  3782                           ;main.c: 345:     if (data_buf[1] != 0x8B)
  3783     005B  308B               	movlw	139
  3784     005C  0621               	xorwf	_data_buf+1,w
  3785     005D  1903               	btfsc	3,2
  3786     005E  2860               	goto	u2381
  3787     005F  2861               	goto	u2380
  3788     0060                     u2381:
  3789     0060  2862               	goto	l2578
  3790     0061                     u2380:
  3791     0061  29DD               	goto	l369
  3792     0062                     l2578:
  3793                           
  3794                           ;main.c: 348:     T10MS_CNT = 0;
  3795     0062  01C2               	clrf	_T10MS_CNT	;volatile
  3796     0063                     l2580:
  3797                           
  3798                           ;main.c: 351:     if (csFlag.POS == 1) {
  3799     0063  1EF2               	btfss	_csFlag,5
  3800     0064  2866               	goto	u2391
  3801     0065  2867               	goto	u2390
  3802     0066                     u2391:
  3803     0066  286A               	goto	l376
  3804     0067                     u2390:
  3805     0067                     l373:	
  3806                           ;main.c: 352:         do { LATBbits.LATB7 = 1; } while(0);
  3807                           
  3808     0067  0022               	movlb	2	; select bank2
  3809     0068  178D               	bsf	13,7	;volatile
  3810     0069  286C               	goto	l375
  3811     006A                     l376:	
  3812                           ;main.c: 354:         do { LATBbits.LATB7 = 0; } while(0);
  3813                           
  3814     006A  0022               	movlb	2	; select bank2
  3815     006B  138D               	bcf	13,7	;volatile
  3816     006C                     l375:	
  3817                           ;main.c: 355:     }
  3818                           
  3819                           
  3820                           ;main.c: 357:     if (csFlag.HiBeam == 0 && csFlag.LoBeam == 0 && csFlag.DRL == 0 &&
  3821     006C  1972               	btfsc	_csFlag,2
  3822     006D  286F               	goto	u2401
  3823     006E  2870               	goto	u2400
  3824     006F                     u2401:
  3825     006F  2883               	goto	l378
  3826     0070                     u2400:
  3827     0070                     l2582:
  3828     0070  19F2               	btfsc	_csFlag,3
  3829     0071  2873               	goto	u2411
  3830     0072  2874               	goto	u2410
  3831     0073                     u2411:
  3832     0073  2883               	goto	l378
  3833     0074                     u2410:
  3834     0074                     l2584:
  3835     0074  1A72               	btfsc	_csFlag,4
  3836     0075  2877               	goto	u2421
  3837     0076  2878               	goto	u2420
  3838     0077                     u2421:
  3839     0077  2883               	goto	l378
  3840     0078                     u2420:
  3841     0078                     l2586:
  3842     0078  1AF2               	btfsc	_csFlag,5
  3843     0079  287B               	goto	u2431
  3844     007A  287C               	goto	u2430
  3845     007B                     u2431:
  3846     007B  2883               	goto	l378
  3847     007C                     u2430:
  3848     007C                     l2588:
  3849                           
  3850                           ;main.c: 358:         csFlag.POS == 0) {;main.c: 360:         CCPR1L = 0;
  3851     007C  0025               	movlb	5	; select bank5
  3852     007D  0191               	clrf	17	;volatile
  3853     007E                     l2590:
  3854     007E  0022               	movlb	2	; select bank2
  3855     007F  140C               	bsf	12,0	;volatile
  3856     0080                     l380:
  3857                           
  3858                           ;main.c: 362:         CCPR2L = 0;
  3859     0080  0025               	movlb	5	; select bank5
  3860     0081  0198               	clrf	24	;volatile
  3861                           
  3862                           ;main.c: 363:     } else if (csFlag.HiBeam == 0 && csFlag.LoBeam == 0 && csFlag.DRL == 0
      +                           &&
  3863     0082  29CC               	goto	l2762
  3864     0083                     l378:
  3865     0083  1972               	btfsc	_csFlag,2
  3866     0084  2886               	goto	u2441
  3867     0085  2887               	goto	u2440
  3868     0086                     u2441:
  3869     0086  289B               	goto	l382
  3870     0087                     u2440:
  3871     0087                     l2592:
  3872     0087  19F2               	btfsc	_csFlag,3
  3873     0088  288A               	goto	u2451
  3874     0089  288B               	goto	u2450
  3875     008A                     u2451:
  3876     008A  289B               	goto	l382
  3877     008B                     u2450:
  3878     008B                     l2594:
  3879     008B  1A72               	btfsc	_csFlag,4
  3880     008C  288E               	goto	u2461
  3881     008D  288F               	goto	u2460
  3882     008E                     u2461:
  3883     008E  289B               	goto	l382
  3884     008F                     u2460:
  3885     008F                     l2596:
  3886     008F  1EF2               	btfss	_csFlag,5
  3887     0090  2892               	goto	u2471
  3888     0091  2893               	goto	u2470
  3889     0092                     u2471:
  3890     0092  289B               	goto	l382
  3891     0093                     u2470:
  3892     0093                     l2598:
  3893                           
  3894                           ;main.c: 364:                csFlag.POS == 1) {;main.c: 366:         CCPR1L = 0;
  3895     0093  0025               	movlb	5	; select bank5
  3896     0094  0191               	clrf	17	;volatile
  3897     0095                     l2600:
  3898     0095  0022               	movlb	2	; select bank2
  3899     0096  140C               	bsf	12,0	;volatile
  3900     0097                     l2602:
  3901                           
  3902                           ;main.c: 368:         POS_ON();
  3903     0097  3185  253D  3180   	fcall	_POS_ON
  3904                           
  3905                           ;main.c: 369:     } else if (csFlag.HiBeam == 0 && csFlag.LoBeam == 0 && csFlag.DRL == 1
      +                           &&
  3906     009A  29CC               	goto	l2762
  3907     009B                     l382:
  3908     009B  1972               	btfsc	_csFlag,2
  3909     009C  289E               	goto	u2481
  3910     009D  289F               	goto	u2480
  3911     009E                     u2481:
  3912     009E  28B3               	goto	l386
  3913     009F                     u2480:
  3914     009F                     l2604:
  3915     009F  19F2               	btfsc	_csFlag,3
  3916     00A0  28A2               	goto	u2491
  3917     00A1  28A3               	goto	u2490
  3918     00A2                     u2491:
  3919     00A2  28B3               	goto	l386
  3920     00A3                     u2490:
  3921     00A3                     l2606:
  3922     00A3  1E72               	btfss	_csFlag,4
  3923     00A4  28A6               	goto	u2501
  3924     00A5  28A7               	goto	u2500
  3925     00A6                     u2501:
  3926     00A6  28B3               	goto	l386
  3927     00A7                     u2500:
  3928     00A7                     l2608:
  3929     00A7  1AF2               	btfsc	_csFlag,5
  3930     00A8  28AA               	goto	u2511
  3931     00A9  28AB               	goto	u2510
  3932     00AA                     u2511:
  3933     00AA  28B3               	goto	l386
  3934     00AB                     u2510:
  3935     00AB                     l2610:
  3936                           
  3937                           ;main.c: 370:                csFlag.POS == 0) {;main.c: 372:         CCPR1L = 0;
  3938     00AB  0025               	movlb	5	; select bank5
  3939     00AC  0191               	clrf	17	;volatile
  3940     00AD                     l2612:
  3941     00AD  0022               	movlb	2	; select bank2
  3942     00AE  140C               	bsf	12,0	;volatile
  3943     00AF                     l2614:
  3944                           
  3945                           ;main.c: 374:         DRL_ON();
  3946     00AF  3184  244D  3180   	fcall	_DRL_ON
  3947                           
  3948                           ;main.c: 375:     } else if (csFlag.HiBeam == 0 && csFlag.LoBeam == 0 && csFlag.DRL == 1
      +                           &&
  3949     00B2  29CC               	goto	l2762
  3950     00B3                     l386:
  3951     00B3  1972               	btfsc	_csFlag,2
  3952     00B4  28B6               	goto	u2521
  3953     00B5  28B7               	goto	u2520
  3954     00B6                     u2521:
  3955     00B6  28C8               	goto	l390
  3956     00B7                     u2520:
  3957     00B7                     l2616:
  3958     00B7  19F2               	btfsc	_csFlag,3
  3959     00B8  28BA               	goto	u2531
  3960     00B9  28BB               	goto	u2530
  3961     00BA                     u2531:
  3962     00BA  28C8               	goto	l390
  3963     00BB                     u2530:
  3964     00BB                     l2618:
  3965     00BB  1E72               	btfss	_csFlag,4
  3966     00BC  28BE               	goto	u2541
  3967     00BD  28BF               	goto	u2540
  3968     00BE                     u2541:
  3969     00BE  28C8               	goto	l390
  3970     00BF                     u2540:
  3971     00BF                     l2620:
  3972     00BF  1EF2               	btfss	_csFlag,5
  3973     00C0  28C2               	goto	u2551
  3974     00C1  28C3               	goto	u2550
  3975     00C2                     u2551:
  3976     00C2  28C8               	goto	l390
  3977     00C3                     u2550:
  3978     00C3                     l2622:
  3979                           
  3980                           ;main.c: 376:                csFlag.POS == 1) {;main.c: 378:         CCPR1L = 0;
  3981     00C3  0025               	movlb	5	; select bank5
  3982     00C4  0191               	clrf	17	;volatile
  3983     00C5                     l2624:
  3984     00C5  0022               	movlb	2	; select bank2
  3985     00C6  140C               	bsf	12,0	;volatile
  3986     00C7  28AF               	goto	l2614
  3987     00C8                     l390:
  3988     00C8  1972               	btfsc	_csFlag,2
  3989     00C9  28CB               	goto	u2561
  3990     00CA  28CC               	goto	u2560
  3991     00CB                     u2561:
  3992     00CB  28DE               	goto	l394
  3993     00CC                     u2560:
  3994     00CC                     l2628:
  3995     00CC  1DF2               	btfss	_csFlag,3
  3996     00CD  28CF               	goto	u2571
  3997     00CE  28D0               	goto	u2570
  3998     00CF                     u2571:
  3999     00CF  28DE               	goto	l394
  4000     00D0                     u2570:
  4001     00D0                     l2630:
  4002     00D0  1A72               	btfsc	_csFlag,4
  4003     00D1  28D3               	goto	u2581
  4004     00D2  28D4               	goto	u2580
  4005     00D3                     u2581:
  4006     00D3  28DE               	goto	l394
  4007     00D4                     u2580:
  4008     00D4                     l2632:
  4009     00D4  1AF2               	btfsc	_csFlag,5
  4010     00D5  28D7               	goto	u2591
  4011     00D6  28D8               	goto	u2590
  4012     00D7                     u2591:
  4013     00D7  28DE               	goto	l394
  4014     00D8                     u2590:
  4015     00D8                     l2634:
  4016                           
  4017                           ;main.c: 382:                csFlag.POS == 0) {;main.c: 384:         LoBeam_ON();
  4018     00D8  3185  2520  3180   	fcall	_LoBeam_ON
  4019     00DB                     l2636:
  4020     00DB  0022               	movlb	2	; select bank2
  4021     00DC  140C               	bsf	12,0	;volatile
  4022     00DD  2880               	goto	l380
  4023     00DE                     l394:
  4024     00DE  1972               	btfsc	_csFlag,2
  4025     00DF  28E1               	goto	u2601
  4026     00E0  28E2               	goto	u2600
  4027     00E1                     u2601:
  4028     00E1  28F4               	goto	l398
  4029     00E2                     u2600:
  4030     00E2                     l2640:
  4031     00E2  1DF2               	btfss	_csFlag,3
  4032     00E3  28E5               	goto	u2611
  4033     00E4  28E6               	goto	u2610
  4034     00E5                     u2611:
  4035     00E5  28F4               	goto	l398
  4036     00E6                     u2610:
  4037     00E6                     l2642:
  4038     00E6  1A72               	btfsc	_csFlag,4
  4039     00E7  28E9               	goto	u2621
  4040     00E8  28EA               	goto	u2620
  4041     00E9                     u2621:
  4042     00E9  28F4               	goto	l398
  4043     00EA                     u2620:
  4044     00EA                     l2644:
  4045     00EA  1EF2               	btfss	_csFlag,5
  4046     00EB  28ED               	goto	u2631
  4047     00EC  28EE               	goto	u2630
  4048     00ED                     u2631:
  4049     00ED  28F4               	goto	l398
  4050     00EE                     u2630:
  4051     00EE                     l2646:
  4052                           
  4053                           ;main.c: 388:                csFlag.POS == 1) {;main.c: 390:         LoBeam_ON();
  4054     00EE  3185  2520  3180   	fcall	_LoBeam_ON
  4055     00F1                     l2648:
  4056     00F1  0022               	movlb	2	; select bank2
  4057     00F2  140C               	bsf	12,0	;volatile
  4058     00F3  2897               	goto	l2602
  4059     00F4                     l398:
  4060     00F4  1972               	btfsc	_csFlag,2
  4061     00F5  28F7               	goto	u2641
  4062     00F6  28F8               	goto	u2640
  4063     00F7                     u2641:
  4064     00F7  290A               	goto	l402
  4065     00F8                     u2640:
  4066     00F8                     l2650:
  4067     00F8  1DF2               	btfss	_csFlag,3
  4068     00F9  28FB               	goto	u2651
  4069     00FA  28FC               	goto	u2650
  4070     00FB                     u2651:
  4071     00FB  290A               	goto	l402
  4072     00FC                     u2650:
  4073     00FC                     l2652:
  4074     00FC  1E72               	btfss	_csFlag,4
  4075     00FD  28FF               	goto	u2661
  4076     00FE  2900               	goto	u2660
  4077     00FF                     u2661:
  4078     00FF  290A               	goto	l402
  4079     0100                     u2660:
  4080     0100                     l2654:
  4081     0100  1AF2               	btfsc	_csFlag,5
  4082     0101  2903               	goto	u2671
  4083     0102  2904               	goto	u2670
  4084     0103                     u2671:
  4085     0103  290A               	goto	l402
  4086     0104                     u2670:
  4087     0104                     l2656:
  4088                           
  4089                           ;main.c: 394:                csFlag.POS == 0) {;main.c: 396:         LoBeam_ON();
  4090     0104  3185  2520  3180   	fcall	_LoBeam_ON
  4091     0107                     l2658:
  4092     0107  0022               	movlb	2	; select bank2
  4093     0108  140C               	bsf	12,0	;volatile
  4094     0109  2880               	goto	l380
  4095     010A                     l402:
  4096     010A  1972               	btfsc	_csFlag,2
  4097     010B  290D               	goto	u2681
  4098     010C  290E               	goto	u2680
  4099     010D                     u2681:
  4100     010D  2920               	goto	l406
  4101     010E                     u2680:
  4102     010E                     l2662:
  4103     010E  1DF2               	btfss	_csFlag,3
  4104     010F  2911               	goto	u2691
  4105     0110  2912               	goto	u2690
  4106     0111                     u2691:
  4107     0111  2920               	goto	l406
  4108     0112                     u2690:
  4109     0112                     l2664:
  4110     0112  1E72               	btfss	_csFlag,4
  4111     0113  2915               	goto	u2701
  4112     0114  2916               	goto	u2700
  4113     0115                     u2701:
  4114     0115  2920               	goto	l406
  4115     0116                     u2700:
  4116     0116                     l2666:
  4117     0116  1EF2               	btfss	_csFlag,5
  4118     0117  2919               	goto	u2711
  4119     0118  291A               	goto	u2710
  4120     0119                     u2711:
  4121     0119  2920               	goto	l406
  4122     011A                     u2710:
  4123     011A                     l2668:
  4124                           
  4125                           ;main.c: 400:                csFlag.POS == 1) {;main.c: 402:         LoBeam_ON();
  4126     011A  3185  2520  3180   	fcall	_LoBeam_ON
  4127     011D                     l2670:
  4128     011D  0022               	movlb	2	; select bank2
  4129     011E  140C               	bsf	12,0	;volatile
  4130     011F  2897               	goto	l2602
  4131     0120                     l406:
  4132     0120  1D72               	btfss	_csFlag,2
  4133     0121  2923               	goto	u2721
  4134     0122  2924               	goto	u2720
  4135     0123                     u2721:
  4136     0123  2935               	goto	l410
  4137     0124                     u2720:
  4138     0124                     l2672:
  4139     0124  19F2               	btfsc	_csFlag,3
  4140     0125  2927               	goto	u2731
  4141     0126  2928               	goto	u2730
  4142     0127                     u2731:
  4143     0127  2935               	goto	l410
  4144     0128                     u2730:
  4145     0128                     l2674:
  4146     0128  1A72               	btfsc	_csFlag,4
  4147     0129  292B               	goto	u2741
  4148     012A  292C               	goto	u2740
  4149     012B                     u2741:
  4150     012B  2935               	goto	l410
  4151     012C                     u2740:
  4152     012C                     l2676:
  4153     012C  1AF2               	btfsc	_csFlag,5
  4154     012D  292F               	goto	u2751
  4155     012E  2930               	goto	u2750
  4156     012F                     u2751:
  4157     012F  2935               	goto	l410
  4158     0130                     u2750:
  4159     0130                     l2678:
  4160                           
  4161                           ;main.c: 406:                csFlag.POS == 0) {;main.c: 408:         CCPR1L = 0;
  4162     0130  0025               	movlb	5	; select bank5
  4163     0131  0191               	clrf	17	;volatile
  4164     0132                     l2680:
  4165     0132  0022               	movlb	2	; select bank2
  4166     0133  140C               	bsf	12,0	;volatile
  4167     0134  2880               	goto	l380
  4168     0135                     l410:
  4169     0135  1D72               	btfss	_csFlag,2
  4170     0136  2938               	goto	u2761
  4171     0137  2939               	goto	u2760
  4172     0138                     u2761:
  4173     0138  294A               	goto	l414
  4174     0139                     u2760:
  4175     0139                     l2682:
  4176     0139  19F2               	btfsc	_csFlag,3
  4177     013A  293C               	goto	u2771
  4178     013B  293D               	goto	u2770
  4179     013C                     u2771:
  4180     013C  294A               	goto	l414
  4181     013D                     u2770:
  4182     013D                     l2684:
  4183     013D  1A72               	btfsc	_csFlag,4
  4184     013E  2940               	goto	u2781
  4185     013F  2941               	goto	u2780
  4186     0140                     u2781:
  4187     0140  294A               	goto	l414
  4188     0141                     u2780:
  4189     0141                     l2686:
  4190     0141  1EF2               	btfss	_csFlag,5
  4191     0142  2944               	goto	u2791
  4192     0143  2945               	goto	u2790
  4193     0144                     u2791:
  4194     0144  294A               	goto	l414
  4195     0145                     u2790:
  4196     0145                     l2688:
  4197                           
  4198                           ;main.c: 412:                csFlag.POS == 1) {;main.c: 414:         CCPR1L = 0;
  4199     0145  0025               	movlb	5	; select bank5
  4200     0146  0191               	clrf	17	;volatile
  4201     0147                     l2690:
  4202     0147  0022               	movlb	2	; select bank2
  4203     0148  140C               	bsf	12,0	;volatile
  4204     0149  2897               	goto	l2602
  4205     014A                     l414:
  4206     014A  1D72               	btfss	_csFlag,2
  4207     014B  294D               	goto	u2801
  4208     014C  294E               	goto	u2800
  4209     014D                     u2801:
  4210     014D  295F               	goto	l418
  4211     014E                     u2800:
  4212     014E                     l2694:
  4213     014E  19F2               	btfsc	_csFlag,3
  4214     014F  2951               	goto	u2811
  4215     0150  2952               	goto	u2810
  4216     0151                     u2811:
  4217     0151  295F               	goto	l418
  4218     0152                     u2810:
  4219     0152                     l2696:
  4220     0152  1E72               	btfss	_csFlag,4
  4221     0153  2955               	goto	u2821
  4222     0154  2956               	goto	u2820
  4223     0155                     u2821:
  4224     0155  295F               	goto	l418
  4225     0156                     u2820:
  4226     0156                     l2698:
  4227     0156  1AF2               	btfsc	_csFlag,5
  4228     0157  2959               	goto	u2831
  4229     0158  295A               	goto	u2830
  4230     0159                     u2831:
  4231     0159  295F               	goto	l418
  4232     015A                     u2830:
  4233     015A                     l2700:
  4234                           
  4235                           ;main.c: 418:                csFlag.POS == 0) {;main.c: 420:         CCPR1L = 0;
  4236     015A  0025               	movlb	5	; select bank5
  4237     015B  0191               	clrf	17	;volatile
  4238     015C                     l2702:
  4239     015C  0022               	movlb	2	; select bank2
  4240     015D  140C               	bsf	12,0	;volatile
  4241     015E  28AF               	goto	l2614
  4242     015F                     l418:
  4243     015F  1D72               	btfss	_csFlag,2
  4244     0160  2962               	goto	u2841
  4245     0161  2963               	goto	u2840
  4246     0162                     u2841:
  4247     0162  2974               	goto	l422
  4248     0163                     u2840:
  4249     0163                     l2706:
  4250     0163  19F2               	btfsc	_csFlag,3
  4251     0164  2966               	goto	u2851
  4252     0165  2967               	goto	u2850
  4253     0166                     u2851:
  4254     0166  2974               	goto	l422
  4255     0167                     u2850:
  4256     0167                     l2708:
  4257     0167  1E72               	btfss	_csFlag,4
  4258     0168  296A               	goto	u2861
  4259     0169  296B               	goto	u2860
  4260     016A                     u2861:
  4261     016A  2974               	goto	l422
  4262     016B                     u2860:
  4263     016B                     l2710:
  4264     016B  1EF2               	btfss	_csFlag,5
  4265     016C  296E               	goto	u2871
  4266     016D  296F               	goto	u2870
  4267     016E                     u2871:
  4268     016E  2974               	goto	l422
  4269     016F                     u2870:
  4270     016F                     l2712:
  4271                           
  4272                           ;main.c: 424:                csFlag.POS == 1) {;main.c: 426:         CCPR1L = 0;
  4273     016F  0025               	movlb	5	; select bank5
  4274     0170  0191               	clrf	17	;volatile
  4275     0171                     l2714:
  4276     0171  0022               	movlb	2	; select bank2
  4277     0172  140C               	bsf	12,0	;volatile
  4278     0173  28AF               	goto	l2614
  4279     0174                     l422:
  4280     0174  1D72               	btfss	_csFlag,2
  4281     0175  2977               	goto	u2881
  4282     0176  2978               	goto	u2880
  4283     0177                     u2881:
  4284     0177  298A               	goto	l426
  4285     0178                     u2880:
  4286     0178                     l2718:
  4287     0178  1DF2               	btfss	_csFlag,3
  4288     0179  297B               	goto	u2891
  4289     017A  297C               	goto	u2890
  4290     017B                     u2891:
  4291     017B  298A               	goto	l426
  4292     017C                     u2890:
  4293     017C                     l2720:
  4294     017C  1A72               	btfsc	_csFlag,4
  4295     017D  297F               	goto	u2901
  4296     017E  2980               	goto	u2900
  4297     017F                     u2901:
  4298     017F  298A               	goto	l426
  4299     0180                     u2900:
  4300     0180                     l2722:
  4301     0180  1AF2               	btfsc	_csFlag,5
  4302     0181  2983               	goto	u2911
  4303     0182  2984               	goto	u2910
  4304     0183                     u2911:
  4305     0183  298A               	goto	l426
  4306     0184                     u2910:
  4307     0184                     l2724:
  4308                           
  4309                           ;main.c: 430:                csFlag.POS == 0) {;main.c: 432:         LoBeam_ON();
  4310     0184  3185  2520  3180   	fcall	_LoBeam_ON
  4311     0187                     l2726:
  4312     0187  0022               	movlb	2	; select bank2
  4313     0188  100C               	bcf	12,0	;volatile
  4314     0189  2880               	goto	l380
  4315     018A                     l426:
  4316     018A  1D72               	btfss	_csFlag,2
  4317     018B  298D               	goto	u2921
  4318     018C  298E               	goto	u2920
  4319     018D                     u2921:
  4320     018D  29A0               	goto	l430
  4321     018E                     u2920:
  4322     018E                     l2730:
  4323     018E  1DF2               	btfss	_csFlag,3
  4324     018F  2991               	goto	u2931
  4325     0190  2992               	goto	u2930
  4326     0191                     u2931:
  4327     0191  29A0               	goto	l430
  4328     0192                     u2930:
  4329     0192                     l2732:
  4330     0192  1A72               	btfsc	_csFlag,4
  4331     0193  2995               	goto	u2941
  4332     0194  2996               	goto	u2940
  4333     0195                     u2941:
  4334     0195  29A0               	goto	l430
  4335     0196                     u2940:
  4336     0196                     l2734:
  4337     0196  1EF2               	btfss	_csFlag,5
  4338     0197  2999               	goto	u2951
  4339     0198  299A               	goto	u2950
  4340     0199                     u2951:
  4341     0199  29A0               	goto	l430
  4342     019A                     u2950:
  4343     019A                     l2736:
  4344                           
  4345                           ;main.c: 436:                csFlag.POS == 1) {;main.c: 438:         LoBeam_ON();
  4346     019A  3185  2520  3180   	fcall	_LoBeam_ON
  4347     019D                     l2738:
  4348     019D  0022               	movlb	2	; select bank2
  4349     019E  100C               	bcf	12,0	;volatile
  4350     019F  2897               	goto	l2602
  4351     01A0                     l430:
  4352     01A0  1D72               	btfss	_csFlag,2
  4353     01A1  29A3               	goto	u2961
  4354     01A2  29A4               	goto	u2960
  4355     01A3                     u2961:
  4356     01A3  29B6               	goto	l434
  4357     01A4                     u2960:
  4358     01A4                     l2740:
  4359     01A4  1DF2               	btfss	_csFlag,3
  4360     01A5  29A7               	goto	u2971
  4361     01A6  29A8               	goto	u2970
  4362     01A7                     u2971:
  4363     01A7  29B6               	goto	l434
  4364     01A8                     u2970:
  4365     01A8                     l2742:
  4366     01A8  1E72               	btfss	_csFlag,4
  4367     01A9  29AB               	goto	u2981
  4368     01AA  29AC               	goto	u2980
  4369     01AB                     u2981:
  4370     01AB  29B6               	goto	l434
  4371     01AC                     u2980:
  4372     01AC                     l2744:
  4373     01AC  1AF2               	btfsc	_csFlag,5
  4374     01AD  29AF               	goto	u2991
  4375     01AE  29B0               	goto	u2990
  4376     01AF                     u2991:
  4377     01AF  29B6               	goto	l434
  4378     01B0                     u2990:
  4379     01B0                     l2746:
  4380                           
  4381                           ;main.c: 442:                csFlag.POS == 0) {;main.c: 444:         LoBeam_ON();
  4382     01B0  3185  2520  3180   	fcall	_LoBeam_ON
  4383     01B3                     l2748:
  4384     01B3  0022               	movlb	2	; select bank2
  4385     01B4  100C               	bcf	12,0	;volatile
  4386     01B5  2880               	goto	l380
  4387     01B6                     l434:
  4388     01B6  1D72               	btfss	_csFlag,2
  4389     01B7  29B9               	goto	u3001
  4390     01B8  29BA               	goto	u3000
  4391     01B9                     u3001:
  4392     01B9  29CC               	goto	l429
  4393     01BA                     u3000:
  4394     01BA                     l2752:
  4395     01BA  1DF2               	btfss	_csFlag,3
  4396     01BB  29BD               	goto	u3011
  4397     01BC  29BE               	goto	u3010
  4398     01BD                     u3011:
  4399     01BD  29CC               	goto	l429
  4400     01BE                     u3010:
  4401     01BE                     l2754:
  4402     01BE  1E72               	btfss	_csFlag,4
  4403     01BF  29C1               	goto	u3021
  4404     01C0  29C2               	goto	u3020
  4405     01C1                     u3021:
  4406     01C1  29CC               	goto	l429
  4407     01C2                     u3020:
  4408     01C2                     l2756:
  4409     01C2  1EF2               	btfss	_csFlag,5
  4410     01C3  29C5               	goto	u3031
  4411     01C4  29C6               	goto	u3030
  4412     01C5                     u3031:
  4413     01C5  29CC               	goto	l429
  4414     01C6                     u3030:
  4415     01C6                     l2758:
  4416                           
  4417                           ;main.c: 448:                csFlag.POS == 1) {;main.c: 450:         LoBeam_ON();
  4418     01C6  3185  2520  3180   	fcall	_LoBeam_ON
  4419     01C9                     l2760:
  4420     01C9  0022               	movlb	2	; select bank2
  4421     01CA  100C               	bcf	12,0	;volatile
  4422     01CB  2897               	goto	l2602
  4423     01CC                     l429:
  4424     01CC                     l2762:
  4425                           
  4426                           ;main.c: 455:     for (uint8_t i = 0; i < 11; i++) {
  4427     01CC  0020               	movlb	0	; select bank0
  4428     01CD  01CB               	clrf	LED_output@i
  4429     01CE                     l2768:
  4430                           
  4431                           ;main.c: 456:         data_buf[i] = 0;
  4432     01CE  084B               	movf	LED_output@i,w
  4433     01CF  3E20               	addlw	(low (_data_buf| 0))& (0+255)
  4434     01D0  0086               	movwf	6
  4435     01D1  0187               	clrf	7
  4436     01D2  0181               	clrf	1
  4437     01D3                     l2770:
  4438                           
  4439                           ;main.c: 457:     }
  4440     01D3  3001               	movlw	1
  4441     01D4  00C9               	movwf	??_LED_output
  4442     01D5  0849               	movf	??_LED_output,w
  4443     01D6  07CB               	addwf	LED_output@i,f
  4444     01D7                     l2772:
  4445     01D7  300B               	movlw	11
  4446     01D8  024B               	subwf	LED_output@i,w
  4447     01D9  1C03               	skipc
  4448     01DA  29DC               	goto	u3041
  4449     01DB  29DD               	goto	u3040
  4450     01DC                     u3041:
  4451     01DC  29CE               	goto	l2768
  4452     01DD                     u3040:
  4453     01DD                     l369:
  4454     01DD  0008               	return
  4455     01DE                     __end_of_LED_output:
  4456                           
  4457                           	psect	text15
  4458     053D                     __ptext15:	
  4459 ;; *************** function _POS_ON *****************
  4460 ;; Defined at:
  4461 ;;		line 332 in file "main.c"
  4462 ;; Parameters:    Size  Location     Type
  4463 ;;		None
  4464 ;; Auto vars:     Size  Location     Type
  4465 ;;		None
  4466 ;; Return value:  Size  Location     Type
  4467 ;;                  1    wreg      void 
  4468 ;; Registers used:
  4469 ;;		wreg
  4470 ;; Tracked objects:
  4471 ;;		On entry : 0/0
  4472 ;;		On exit  : 0/0
  4473 ;;		Unchanged: 0/0
  4474 ;; Data sizes:     COMMON   BANK0   BANK1   BANK2   BANK3   BANK4   BANK5   BANK6
  4475 ;;      Params:         0       0       0       0       0       0       0       0
  4476 ;;      Locals:         0       0       0       0       0       0       0       0
  4477 ;;      Temps:          0       0       0       0       0       0       0       0
  4478 ;;      Totals:         0       0       0       0       0       0       0       0
  4479 ;;Total ram usage:        0 bytes
  4480 ;; Hardware stack levels used: 1
  4481 ;; Hardware stack levels required when called: 4
  4482 ;; This function calls:
  4483 ;;		Nothing
  4484 ;; This function is called by:
  4485 ;;		_LED_output
  4486 ;;		_main
  4487 ;; This function uses a non-reentrant model
  4488 ;;
  4489                           
  4490     053D                     _POS_ON:	
  4491                           ;psect for function _POS_ON
  4492                           
  4493     053D                     l2532:	
  4494                           ;incstack = 0
  4495                           ; Regs used in _POS_ON: [wreg]
  4496                           
  4497                           
  4498                           ;main.c: 334:     CCPR2L = 14;
  4499     053D  300E               	movlw	14
  4500     053E  0025               	movlb	5	; select bank5
  4501     053F  0098               	movwf	24	;volatile
  4502     0540                     l365:
  4503     0540  0008               	return
  4504     0541                     __end_of_POS_ON:
  4505                           
  4506                           	psect	text16
  4507     0520                     __ptext16:	
  4508 ;; *************** function _LoBeam_ON *****************
  4509 ;; Defined at:
  4510 ;;		line 155 in file "main.c"
  4511 ;; Parameters:    Size  Location     Type
  4512 ;;		None
  4513 ;; Auto vars:     Size  Location     Type
  4514 ;;		None
  4515 ;; Return value:  Size  Location     Type
  4516 ;;                  1    wreg      void 
  4517 ;; Registers used:
  4518 ;;		wreg
  4519 ;; Tracked objects:
  4520 ;;		On entry : 0/0
  4521 ;;		On exit  : 0/0
  4522 ;;		Unchanged: 0/0
  4523 ;; Data sizes:     COMMON   BANK0   BANK1   BANK2   BANK3   BANK4   BANK5   BANK6
  4524 ;;      Params:         0       0       0       0       0       0       0       0
  4525 ;;      Locals:         0       0       0       0       0       0       0       0
  4526 ;;      Temps:          0       0       0       0       0       0       0       0
  4527 ;;      Totals:         0       0       0       0       0       0       0       0
  4528 ;;Total ram usage:        0 bytes
  4529 ;; Hardware stack levels used: 1
  4530 ;; Hardware stack levels required when called: 4
  4531 ;; This function calls:
  4532 ;;		Nothing
  4533 ;; This function is called by:
  4534 ;;		_LED_output
  4535 ;;		_main
  4536 ;; This function uses a non-reentrant model
  4537 ;;
  4538                           
  4539     0520                     _LoBeam_ON:	
  4540                           ;psect for function _LoBeam_ON
  4541                           
  4542     0520                     l2494:	
  4543                           ;incstack = 0
  4544                           ; Regs used in _LoBeam_ON: [wreg]
  4545                           
  4546                           
  4547                           ;main.c: 158:     CCPR1L = 201;
  4548     0520  30C9               	movlw	201
  4549     0521  0025               	movlb	5	; select bank5
  4550     0522  0091               	movwf	17	;volatile
  4551     0523                     l2496:
  4552                           
  4553                           ;main.c: 159:     __nop();
  4554     0523  0000               	nop
  4555     0524                     l2498:
  4556                           
  4557                           ;main.c: 160:     __nop();
  4558     0524  0000               	nop
  4559     0525                     l2500:
  4560                           
  4561                           ;main.c: 161:     __nop();
  4562     0525  0000               	nop
  4563     0526                     l329:
  4564     0526  0008               	return
  4565     0527                     __end_of_LoBeam_ON:
  4566                           
  4567                           	psect	text17
  4568     044D                     __ptext17:	
  4569 ;; *************** function _DRL_ON *****************
  4570 ;; Defined at:
  4571 ;;		line 300 in file "main.c"
  4572 ;; Parameters:    Size  Location     Type
  4573 ;;		None
  4574 ;; Auto vars:     Size  Location     Type
  4575 ;;		None
  4576 ;; Return value:  Size  Location     Type
  4577 ;;                  1    wreg      void 
  4578 ;; Registers used:
  4579 ;;		wreg, status,2, status,0, pclath, cstack
  4580 ;; Tracked objects:
  4581 ;;		On entry : 0/0
  4582 ;;		On exit  : 0/0
  4583 ;;		Unchanged: 0/0
  4584 ;; Data sizes:     COMMON   BANK0   BANK1   BANK2   BANK3   BANK4   BANK5   BANK6
  4585 ;;      Params:         0       0       0       0       0       0       0       0
  4586 ;;      Locals:         0       0       0       0       0       0       0       0
  4587 ;;      Temps:          0       0       0       0       0       0       0       0
  4588 ;;      Totals:         0       0       0       0       0       0       0       0
  4589 ;;Total ram usage:        0 bytes
  4590 ;; Hardware stack levels used: 1
  4591 ;; Hardware stack levels required when called: 5
  4592 ;; This function calls:
  4593 ;;		_DRL_Gradually
  4594 ;; This function is called by:
  4595 ;;		_LED_output
  4596 ;; This function uses a non-reentrant model
  4597 ;;
  4598                           
  4599     044D                     _DRL_ON:	
  4600                           ;psect for function _DRL_ON
  4601                           
  4602     044D                     l2518:	
  4603                           ;incstack = 0
  4604                           ; Regs used in _DRL_ON: [wreg+status,2+status,0+pclath+cstack]
  4605                           
  4606                           
  4607                           ;main.c: 305:     if (csFlag.turnLight_L == 1) {
  4608     044D  1CF2               	btfss	_csFlag,1
  4609     044E  2C50               	goto	u2301
  4610     044F  2C51               	goto	u2300
  4611     0450                     u2301:
  4612     0450  2C57               	goto	l2524
  4613     0451                     u2300:
  4614     0451                     l2520:
  4615                           
  4616                           ;main.c: 306:         CCPR2L = 0;
  4617     0451  0025               	movlb	5	; select bank5
  4618     0452  0198               	clrf	24	;volatile
  4619     0453                     l2522:
  4620                           
  4621                           ;main.c: 307:         fDRL_Gradually = 1;
  4622     0453  0020               	movlb	0	; select bank0
  4623     0454  01BE               	clrf	_fDRL_Gradually
  4624     0455  0ABE               	incf	_fDRL_Gradually,f
  4625                           
  4626                           ;main.c: 308:     } else {
  4627     0456  2C66               	goto	l362
  4628     0457                     l2524:
  4629                           
  4630                           ;main.c: 309:         if (fDRL_Gradually == 0) {
  4631     0457  0020               	movlb	0	; select bank0
  4632     0458  083E               	movf	_fDRL_Gradually,w
  4633     0459  1D03               	btfss	3,2
  4634     045A  2C5C               	goto	u2311
  4635     045B  2C5D               	goto	u2310
  4636     045C                     u2311:
  4637     045C  2C61               	goto	l360
  4638     045D                     u2310:
  4639     045D                     l2526:
  4640                           
  4641                           ;main.c: 310:             CCPR2L = 201;
  4642     045D  30C9               	movlw	201
  4643     045E  0025               	movlb	5	; select bank5
  4644     045F  0098               	movwf	24	;volatile
  4645                           
  4646                           ;main.c: 311:         } else {
  4647     0460  2C66               	goto	l362
  4648     0461                     l360:
  4649                           
  4650                           ;main.c: 312:             (INTCONbits.GIE = 0);
  4651     0461  138B               	bcf	11,7	;volatile
  4652     0462                     l2528:
  4653                           
  4654                           ;main.c: 313:             DRL_Gradually();
  4655     0462  3184  2467  3184   	fcall	_DRL_Gradually
  4656     0465                     l2530:
  4657                           
  4658                           ;main.c: 314:             (INTCONbits.GIE = 1);
  4659     0465  178B               	bsf	11,7	;volatile
  4660     0466                     l362:
  4661     0466  0008               	return
  4662     0467                     __end_of_DRL_ON:
  4663                           
  4664                           	psect	text18
  4665     0467                     __ptext18:	
  4666 ;; *************** function _DRL_Gradually *****************
  4667 ;; Defined at:
  4668 ;;		line 289 in file "main.c"
  4669 ;; Parameters:    Size  Location     Type
  4670 ;;		None
  4671 ;; Auto vars:     Size  Location     Type
  4672 ;;  i               1    1[BANK0 ] unsigned char 
  4673 ;; Return value:  Size  Location     Type
  4674 ;;                  1    wreg      void 
  4675 ;; Registers used:
  4676 ;;		wreg, status,2, status,0
  4677 ;; Tracked objects:
  4678 ;;		On entry : 0/0
  4679 ;;		On exit  : 0/0
  4680 ;;		Unchanged: 0/0
  4681 ;; Data sizes:     COMMON   BANK0   BANK1   BANK2   BANK3   BANK4   BANK5   BANK6
  4682 ;;      Params:         0       0       0       0       0       0       0       0
  4683 ;;      Locals:         0       1       0       0       0       0       0       0
  4684 ;;      Temps:          0       1       0       0       0       0       0       0
  4685 ;;      Totals:         0       2       0       0       0       0       0       0
  4686 ;;Total ram usage:        2 bytes
  4687 ;; Hardware stack levels used: 1
  4688 ;; Hardware stack levels required when called: 4
  4689 ;; This function calls:
  4690 ;;		Nothing
  4691 ;; This function is called by:
  4692 ;;		_DRL_ON
  4693 ;; This function uses a non-reentrant model
  4694 ;;
  4695                           
  4696     0467                     _DRL_Gradually:	
  4697                           ;psect for function _DRL_Gradually
  4698                           
  4699     0467                     l2384:	
  4700                           ;incstack = 0
  4701                           ; Regs used in _DRL_Gradually: [wreg+status,2+status,0]
  4702                           
  4703                           
  4704                           ;main.c: 291:     for (uint8_t i = 0; i < 201; i++) {
  4705     0467  0020               	movlb	0	; select bank0
  4706     0468  01C8               	clrf	DRL_Gradually@i
  4707     0469                     l352:	
  4708                           ;main.c: 293:             ;
  4709                           
  4710                           
  4711                           ;main.c: 292:         while (!TMR2IF)
  4712     0469  1C91               	btfss	17,1	;volatile
  4713     046A  2C6C               	goto	u2261
  4714     046B  2C6D               	goto	u2260
  4715     046C                     u2261:
  4716     046C  2C69               	goto	l352
  4717     046D                     u2260:
  4718     046D                     l354:
  4719                           
  4720                           ;main.c: 294:         TMR2IF = 0;
  4721     046D  1091               	bcf	17,1	;volatile
  4722     046E                     l2390:
  4723                           
  4724                           ;main.c: 295:         CCPR2L++;
  4725     046E  3001               	movlw	1
  4726     046F  00C7               	movwf	??_DRL_Gradually
  4727     0470  0847               	movf	??_DRL_Gradually,w
  4728     0471  0025               	movlb	5	; select bank5
  4729     0472  0798               	addwf	24,f	;volatile
  4730                           
  4731                           ;main.c: 296:     }
  4732     0473  3001               	movlw	1
  4733     0474  0020               	movlb	0	; select bank0
  4734     0475  00C7               	movwf	??_DRL_Gradually
  4735     0476  0847               	movf	??_DRL_Gradually,w
  4736     0477  07C8               	addwf	DRL_Gradually@i,f
  4737     0478                     l2392:
  4738     0478  30C9               	movlw	201
  4739     0479  0248               	subwf	DRL_Gradually@i,w
  4740     047A  1C03               	skipc
  4741     047B  2C7D               	goto	u2271
  4742     047C  2C7E               	goto	u2270
  4743     047D                     u2271:
  4744     047D  2C69               	goto	l352
  4745     047E                     u2270:
  4746     047E                     l2394:
  4747                           
  4748                           ;main.c: 297:     fDRL_Gradually = 0;
  4749     047E  01BE               	clrf	_fDRL_Gradually
  4750     047F                     l355:
  4751     047F  0008               	return
  4752     0480                     __end_of_DRL_Gradually:
  4753                           
  4754                           	psect	text19
  4755     03C0                     __ptext19:	
  4756 ;; *************** function _Exception_handling *****************
  4757 ;; Defined at:
  4758 ;;		line 266 in file "main.c"
  4759 ;; Parameters:    Size  Location     Type
  4760 ;;		None
  4761 ;; Auto vars:     Size  Location     Type
  4762 ;;		None
  4763 ;; Return value:  Size  Location     Type
  4764 ;;                  1    wreg      void 
  4765 ;; Registers used:
  4766 ;;		wreg, status,2, status,0, pclath, cstack
  4767 ;; Tracked objects:
  4768 ;;		On entry : 0/0
  4769 ;;		On exit  : 0/0
  4770 ;;		Unchanged: 0/0
  4771 ;; Data sizes:     COMMON   BANK0   BANK1   BANK2   BANK3   BANK4   BANK5   BANK6
  4772 ;;      Params:         0       0       0       0       0       0       0       0
  4773 ;;      Locals:         0       0       0       0       0       0       0       0
  4774 ;;      Temps:          0       0       0       0       0       0       0       0
  4775 ;;      Totals:         0       0       0       0       0       0       0       0
  4776 ;;Total ram usage:        0 bytes
  4777 ;; Hardware stack levels used: 1
  4778 ;; Hardware stack levels required when called: 5
  4779 ;; This function calls:
  4780 ;;		_POS_Gradually
  4781 ;; This function is called by:
  4782 ;;		_main
  4783 ;; This function uses a non-reentrant model
  4784 ;;
  4785                           
  4786     03C0                     _Exception_handling:	
  4787                           ;psect for function _Exception_handling
  4788                           
  4789     03C0                     l2536:	
  4790                           ;incstack = 0
  4791                           ; Regs used in _Exception_handling: [wreg+status,2+status,0+pclath+cstack]
  4792                           
  4793                           
  4794                           ;main.c: 268:     if ((data_buf[2] == 6) && (data_buf[10] == 0xD5)) {
  4795     03C0  3006               	movlw	6
  4796     03C1  0020               	movlb	0	; select bank0
  4797     03C2  0622               	xorwf	_data_buf+2,w
  4798     03C3  1D03               	btfss	3,2
  4799     03C4  2BC6               	goto	u2321
  4800     03C5  2BC7               	goto	u2320
  4801     03C6                     u2321:
  4802     03C6  2BE5               	goto	l2556
  4803     03C7                     u2320:
  4804     03C7                     l2538:
  4805     03C7  30D5               	movlw	213
  4806     03C8  062A               	xorwf	_data_buf+10,w
  4807     03C9  1D03               	btfss	3,2
  4808     03CA  2BCC               	goto	u2331
  4809     03CB  2BCD               	goto	u2330
  4810     03CC                     u2331:
  4811     03CC  2BE5               	goto	l2556
  4812     03CD                     u2330:
  4813     03CD                     l340:	
  4814                           ;main.c: 269:         do { LATBbits.LATB7 = 1; } while(0);
  4815                           
  4816     03CD  0022               	movlb	2	; select bank2
  4817     03CE  178D               	bsf	13,7	;volatile
  4818     03CF                     l341:
  4819                           
  4820                           ;main.c: 270:         fException = 1;
  4821     03CF  0020               	movlb	0	; select bank0
  4822     03D0  01C0               	clrf	_fException
  4823     03D1  0AC0               	incf	_fException,f
  4824     03D2                     l2540:
  4825                           
  4826                           ;main.c: 271:         CCPR1L = 0;
  4827     03D2  0025               	movlb	5	; select bank5
  4828     03D3  0191               	clrf	17	;volatile
  4829     03D4                     l2542:
  4830     03D4  0022               	movlb	2	; select bank2
  4831     03D5  140C               	bsf	12,0	;volatile
  4832     03D6                     l2544:
  4833                           
  4834                           ;main.c: 273:         if (fPOS_Gradually == 0) {
  4835     03D6  0020               	movlb	0	; select bank0
  4836     03D7  083D               	movf	_fPOS_Gradually,w
  4837     03D8  1D03               	btfss	3,2
  4838     03D9  2BDB               	goto	u2341
  4839     03DA  2BDC               	goto	u2340
  4840     03DB                     u2341:
  4841     03DB  2BE1               	goto	l2552
  4842     03DC                     u2340:
  4843     03DC                     l2546:
  4844                           
  4845                           ;main.c: 274:             (INTCONbits.GIE = 0);
  4846     03DC  138B               	bcf	11,7	;volatile
  4847     03DD                     l2548:
  4848                           
  4849                           ;main.c: 275:             POS_Gradually();
  4850     03DD  3183  23F0  3183   	fcall	_POS_Gradually
  4851     03E0                     l2550:
  4852                           
  4853                           ;main.c: 276:             (INTCONbits.GIE = 1);
  4854     03E0  178B               	bsf	11,7	;volatile
  4855     03E1                     l2552:
  4856                           
  4857                           ;main.c: 278:         T10MS_CNT = 0;
  4858     03E1  0020               	movlb	0	; select bank0
  4859     03E2  01C2               	clrf	_T10MS_CNT	;volatile
  4860     03E3                     l2554:
  4861                           
  4862                           ;main.c: 279:         T10MS_CNT1 = 0;
  4863     03E3  01C1               	clrf	_T10MS_CNT1	;volatile
  4864                           
  4865                           ;main.c: 280:     } else {
  4866     03E4  2BEF               	goto	l347
  4867     03E5                     l2556:
  4868                           
  4869                           ;main.c: 281:         fException = 0;
  4870     03E5  01C0               	clrf	_fException
  4871     03E6                     l2558:
  4872                           
  4873                           ;main.c: 282:         if (T10MS_CNT1 > 50) {
  4874     03E6  3033               	movlw	51
  4875     03E7  0241               	subwf	_T10MS_CNT1,w	;volatile
  4876     03E8  1C03               	skipc
  4877     03E9  2BEB               	goto	u2351
  4878     03EA  2BEC               	goto	u2350
  4879     03EB                     u2351:
  4880     03EB  2BEF               	goto	l347
  4881     03EC                     u2350:
  4882     03EC                     l2560:
  4883                           
  4884                           ;main.c: 283:             T10MS_CNT1 = 50;
  4885     03EC  3032               	movlw	50
  4886     03ED  00C1               	movwf	_T10MS_CNT1	;volatile
  4887     03EE                     l2562:
  4888                           
  4889                           ;main.c: 284:             fPOS_Gradually = 0;
  4890     03EE  01BD               	clrf	_fPOS_Gradually
  4891     03EF                     l347:
  4892     03EF  0008               	return
  4893     03F0                     __end_of_Exception_handling:
  4894                           
  4895                           	psect	text20
  4896     03F0                     __ptext20:	
  4897 ;; *************** function _POS_Gradually *****************
  4898 ;; Defined at:
  4899 ;;		line 254 in file "main.c"
  4900 ;; Parameters:    Size  Location     Type
  4901 ;;		None
  4902 ;; Auto vars:     Size  Location     Type
  4903 ;;  i               1    2[BANK0 ] unsigned char 
  4904 ;; Return value:  Size  Location     Type
  4905 ;;                  1    wreg      void 
  4906 ;; Registers used:
  4907 ;;		wreg, status,2, status,0
  4908 ;; Tracked objects:
  4909 ;;		On entry : 0/0
  4910 ;;		On exit  : 0/0
  4911 ;;		Unchanged: 0/0
  4912 ;; Data sizes:     COMMON   BANK0   BANK1   BANK2   BANK3   BANK4   BANK5   BANK6
  4913 ;;      Params:         0       0       0       0       0       0       0       0
  4914 ;;      Locals:         0       1       0       0       0       0       0       0
  4915 ;;      Temps:          0       2       0       0       0       0       0       0
  4916 ;;      Totals:         0       3       0       0       0       0       0       0
  4917 ;;Total ram usage:        3 bytes
  4918 ;; Hardware stack levels used: 1
  4919 ;; Hardware stack levels required when called: 4
  4920 ;; This function calls:
  4921 ;;		Nothing
  4922 ;; This function is called by:
  4923 ;;		_Exception_handling
  4924 ;; This function uses a non-reentrant model
  4925 ;;
  4926                           
  4927     03F0                     _POS_Gradually:	
  4928                           ;psect for function _POS_Gradually
  4929                           
  4930     03F0                     l2502:	
  4931                           ;incstack = 0
  4932                           ; Regs used in _POS_Gradually: [wreg+status,2+status,0]
  4933                           
  4934                           
  4935                           ;main.c: 256:     for (uint8_t i = 0; i < 49; i++) {
  4936     03F0  0020               	movlb	0	; select bank0
  4937     03F1  01C9               	clrf	POS_Gradually@i
  4938     03F2                     l2508:
  4939                           
  4940                           ;main.c: 257:         CCPR2L = i + 12;
  4941     03F2  0849               	movf	POS_Gradually@i,w
  4942     03F3  3E0C               	addlw	12
  4943     03F4  0025               	movlb	5	; select bank5
  4944     03F5  0098               	movwf	24	;volatile
  4945     03F6                     l2510:
  4946                           
  4947                           ;main.c: 258:         _delay((unsigned long)((41)*(32000000/4000.0)));
  4948     03F6  3002               	movlw	2
  4949     03F7  0020               	movlb	0	; select bank0
  4950     03F8  00C8               	movwf	??_POS_Gradually+1
  4951     03F9  30AA               	movlw	170
  4952     03FA  00C7               	movwf	??_POS_Gradually
  4953     03FB  30F6               	movlw	246
  4954     03FC                     u3167:
  4955     03FC  0B89               	decfsz	9,f
  4956     03FD  2BFC               	goto	u3167
  4957     03FE  0BC7               	decfsz	??_POS_Gradually,f
  4958     03FF  2BFC               	goto	u3167
  4959     0400  0BC8               	decfsz	??_POS_Gradually+1,f
  4960     0401  2BFC               	goto	u3167
  4961     0402  0000               	nop
  4962     0403                     l2512:
  4963                           
  4964                           ;main.c: 259:     }
  4965     0403  3001               	movlw	1
  4966     0404  0020               	movlb	0	; select bank0
  4967     0405  00C7               	movwf	??_POS_Gradually
  4968     0406  0847               	movf	??_POS_Gradually,w
  4969     0407  07C9               	addwf	POS_Gradually@i,f
  4970     0408  3031               	movlw	49
  4971     0409  0249               	subwf	POS_Gradually@i,w
  4972     040A  1C03               	skipc
  4973     040B  2C0D               	goto	u2291
  4974     040C  2C0E               	goto	u2290
  4975     040D                     u2291:
  4976     040D  2BF2               	goto	l2508
  4977     040E                     u2290:
  4978     040E                     l2514:
  4979                           
  4980                           ;main.c: 260:     CCPR2L = 60;
  4981     040E  303C               	movlw	60
  4982     040F  0025               	movlb	5	; select bank5
  4983     0410  0098               	movwf	24	;volatile
  4984     0411                     l2516:
  4985                           
  4986                           ;main.c: 261:     fPOS_Gradually = 1;
  4987     0411  0020               	movlb	0	; select bank0
  4988     0412  01BD               	clrf	_fPOS_Gradually
  4989     0413  0ABD               	incf	_fPOS_Gradually,f
  4990     0414                     l336:
  4991     0414  0008               	return
  4992     0415                     __end_of_POS_Gradually:
  4993                           
  4994                           	psect	intentry
  4995     0004                     __pintentry:	
  4996 ;; *************** function _INTERRUPT_InterruptManager *****************
  4997 ;; Defined at:
  4998 ;;		line 52 in file "mcc_generated_files/interrupt_manager.c"
  4999 ;; Parameters:    Size  Location     Type
  5000 ;;		None
  5001 ;; Auto vars:     Size  Location     Type
  5002 ;;		None
  5003 ;; Return value:  Size  Location     Type
  5004 ;;                  1    wreg      void 
  5005 ;; Registers used:
  5006 ;;		wreg, status,2, status,0, pclath, cstack
  5007 ;; Tracked objects:
  5008 ;;		On entry : 0/0
  5009 ;;		On exit  : 0/0
  5010 ;;		Unchanged: 0/0
  5011 ;; Data sizes:     COMMON   BANK0   BANK1   BANK2   BANK3   BANK4   BANK5   BANK6
  5012 ;;      Params:         0       0       0       0       0       0       0       0
  5013 ;;      Locals:         0       0       0       0       0       0       0       0
  5014 ;;      Temps:          0       0       0       0       0       0       0       0
  5015 ;;      Totals:         0       0       0       0       0       0       0       0
  5016 ;;Total ram usage:        0 bytes
  5017 ;; Hardware stack levels used: 1
  5018 ;; Hardware stack levels required when called: 3
  5019 ;; This function calls:
  5020 ;;		_ECCP3_CaptureISR
  5021 ;;		_TMR0_ISR
  5022 ;; This function is called by:
  5023 ;;		Interrupt level 1
  5024 ;; This function uses a non-reentrant model
  5025 ;;
  5026                           
  5027     0004                     _INTERRUPT_InterruptManager:
  5028                           
  5029                           ;incstack = 0
  5030     0004  147E               	bsf	int$flags,0	;set compiler interrupt flag (level 1)
  5031                           
  5032                           ; Regs used in _INTERRUPT_InterruptManager: [wreg+status,2+status,0+pclath+cstack]
  5033     0005  3180               	pagesel	$
  5034     0006                     i1l2338:
  5035                           
  5036                           ;mcc_generated_files/interrupt_manager.c: 55:     if(INTCONbits.TMR0IE == 1 && INTCONbit
      +                          s.TMR0IF == 1)
  5037     0006  1E8B               	btfss	11,5	;volatile
  5038     0007  2809               	goto	u219_21
  5039     0008  280A               	goto	u219_20
  5040     0009                     u219_21:
  5041     0009  2812               	goto	i1l55
  5042     000A                     u219_20:
  5043     000A                     i1l2340:
  5044     000A  1D0B               	btfss	11,2	;volatile
  5045     000B  280D               	goto	u220_21
  5046     000C  280E               	goto	u220_20
  5047     000D                     u220_21:
  5048     000D  2812               	goto	i1l55
  5049     000E                     u220_20:
  5050     000E                     i1l2342:
  5051                           
  5052                           ;mcc_generated_files/interrupt_manager.c: 56:     {;mcc_generated_files/interrupt_manage
      +                          r.c: 57:         TMR0_ISR();
  5053     000E  3184  2480  3180   	fcall	_TMR0_ISR
  5054                           
  5055                           ;mcc_generated_files/interrupt_manager.c: 58:     }
  5056     0011  2824               	goto	i1l61
  5057     0012                     i1l55:	
  5058                           ;mcc_generated_files/interrupt_manager.c: 59:     else if(INTCONbits.PEIE == 1)
  5059                           
  5060     0012  1F0B               	btfss	11,6	;volatile
  5061     0013  2815               	goto	u221_21
  5062     0014  2816               	goto	u221_20
  5063     0015                     u221_21:
  5064     0015  2824               	goto	i1l61
  5065     0016                     u221_20:
  5066     0016                     i1l2344:
  5067                           
  5068                           ;mcc_generated_files/interrupt_manager.c: 60:     {;mcc_generated_files/interrupt_manage
      +                          r.c: 61:         if(PIE3bits.CCP3IE == 1 && PIR3bits.CCP3IF == 1)
  5069     0016  0021               	movlb	1	; select bank1
  5070     0017  1E13               	btfss	19,4	;volatile
  5071     0018  281A               	goto	u222_21
  5072     0019  281B               	goto	u222_20
  5073     001A                     u222_21:
  5074     001A  2824               	goto	i1l60
  5075     001B                     u222_20:
  5076     001B                     i1l2346:
  5077     001B  0020               	movlb	0	; select bank0
  5078     001C  1E13               	btfss	19,4	;volatile
  5079     001D  281F               	goto	u223_21
  5080     001E  2820               	goto	u223_20
  5081     001F                     u223_21:
  5082     001F  2824               	goto	i1l60
  5083     0020                     u223_20:
  5084     0020                     i1l2348:
  5085                           
  5086                           ;mcc_generated_files/interrupt_manager.c: 62:         {;mcc_generated_files/interrupt_ma
      +                          nager.c: 63:             ECCP3_CaptureISR();
  5087     0020  3184  24BF  3180   	fcall	_ECCP3_CaptureISR
  5088                           
  5089                           ;mcc_generated_files/interrupt_manager.c: 64:         }
  5090     0023  2824               	goto	i1l61
  5091     0024                     i1l60:	
  5092                           ;mcc_generated_files/interrupt_manager.c: 71:     {;mcc_generated_files/interrupt_manage
      +                          r.c: 73:     }
  5093                           
  5094     0024                     i1l61:
  5095     0024  107E               	bcf	int$flags,0	;clear compiler interrupt flag (level 1)
  5096     0025  0009               	retfie
  5097     0026                     __end_of_INTERRUPT_InterruptManager:
  5098                           
  5099                           	psect	text22
  5100     0480                     __ptext22:	
  5101 ;; *************** function _TMR0_ISR *****************
  5102 ;; Defined at:
  5103 ;;		line 108 in file "mcc_generated_files/tmr0.c"
  5104 ;; Parameters:    Size  Location     Type
  5105 ;;		None
  5106 ;; Auto vars:     Size  Location     Type
  5107 ;;		None
  5108 ;; Return value:  Size  Location     Type
  5109 ;;                  1    wreg      void 
  5110 ;; Registers used:
  5111 ;;		wreg, status,2, status,0, pclath, cstack
  5112 ;; Tracked objects:
  5113 ;;		On entry : 0/0
  5114 ;;		On exit  : 0/0
  5115 ;;		Unchanged: 0/0
  5116 ;; Data sizes:     COMMON   BANK0   BANK1   BANK2   BANK3   BANK4   BANK5   BANK6
  5117 ;;      Params:         0       0       0       0       0       0       0       0
  5118 ;;      Locals:         0       0       0       0       0       0       0       0
  5119 ;;      Temps:          0       0       0       0       0       0       0       0
  5120 ;;      Totals:         0       0       0       0       0       0       0       0
  5121 ;;Total ram usage:        0 bytes
  5122 ;; Hardware stack levels used: 1
  5123 ;; Hardware stack levels required when called: 2
  5124 ;; This function calls:
  5125 ;;		_TMR0_CallBack
  5126 ;; This function is called by:
  5127 ;;		_INTERRUPT_InterruptManager
  5128 ;; This function uses a non-reentrant model
  5129 ;;
  5130                           
  5131     0480                     _TMR0_ISR:	
  5132                           ;psect for function _TMR0_ISR
  5133                           
  5134     0480                     i1l2008:	
  5135                           ;incstack = 0
  5136                           ; Regs used in _TMR0_ISR: [wreg+status,2+status,0+pclath+cstack]
  5137                           
  5138                           
  5139                           ;mcc_generated_files/tmr0.c: 110:     static volatile uint16_t CountCallBack = 0;;mcc_ge
      +                          nerated_files/tmr0.c: 113:     INTCONbits.TMR0IF = 0;
  5140     0480  110B               	bcf	11,2	;volatile
  5141     0481                     i1l2010:
  5142                           
  5143                           ;mcc_generated_files/tmr0.c: 115:     TMR0 = timer0ReloadVal;
  5144     0481  0875               	movf	_timer0ReloadVal,w	;volatile
  5145     0482  0020               	movlb	0	; select bank0
  5146     0483  0095               	movwf	21	;volatile
  5147                           
  5148                           ;mcc_generated_files/tmr0.c: 118:     if (++CountCallBack >= 10)
  5149     0484  3001               	movlw	1
  5150     0485  07B1               	addwf	TMR0_ISR@CountCallBack,f	;volatile
  5151     0486  3000               	movlw	0
  5152     0487  3DB2               	addwfc	TMR0_ISR@CountCallBack+1,f	;volatile
  5153     0488  3000               	movlw	0
  5154     0489  0232               	subwf	TMR0_ISR@CountCallBack+1,w	;volatile
  5155     048A  300A               	movlw	10
  5156     048B  1903               	skipnz
  5157     048C  0231               	subwf	TMR0_ISR@CountCallBack,w	;volatile
  5158     048D  1C03               	skipc
  5159     048E  2C90               	goto	u135_21
  5160     048F  2C91               	goto	u135_20
  5161     0490                     u135_21:
  5162     0490  2C97               	goto	i1l174
  5163     0491                     u135_20:
  5164     0491                     i1l2012:
  5165                           
  5166                           ;mcc_generated_files/tmr0.c: 119:     {;mcc_generated_files/tmr0.c: 121:         TMR0_Ca
      +                          llBack();
  5167     0491  3184  24F5  3184   	fcall	_TMR0_CallBack
  5168     0494                     i1l2014:
  5169                           
  5170                           ;mcc_generated_files/tmr0.c: 124:         CountCallBack = 0;
  5171     0494  0020               	movlb	0	; select bank0
  5172     0495  01B1               	clrf	TMR0_ISR@CountCallBack	;volatile
  5173     0496  01B2               	clrf	TMR0_ISR@CountCallBack+1	;volatile
  5174     0497                     i1l174:
  5175     0497  0008               	return
  5176     0498                     __end_of_TMR0_ISR:
  5177                           
  5178                           	psect	text23
  5179     04F5                     __ptext23:	
  5180 ;; *************** function _TMR0_CallBack *****************
  5181 ;; Defined at:
  5182 ;;		line 130 in file "mcc_generated_files/tmr0.c"
  5183 ;; Parameters:    Size  Location     Type
  5184 ;;		None
  5185 ;; Auto vars:     Size  Location     Type
  5186 ;;		None
  5187 ;; Return value:  Size  Location     Type
  5188 ;;                  1    wreg      void 
  5189 ;; Registers used:
  5190 ;;		wreg, status,2, status,0, pclath, cstack
  5191 ;; Tracked objects:
  5192 ;;		On entry : 0/0
  5193 ;;		On exit  : 0/0
  5194 ;;		Unchanged: 0/0
  5195 ;; Data sizes:     COMMON   BANK0   BANK1   BANK2   BANK3   BANK4   BANK5   BANK6
  5196 ;;      Params:         0       0       0       0       0       0       0       0
  5197 ;;      Locals:         0       0       0       0       0       0       0       0
  5198 ;;      Temps:          0       0       0       0       0       0       0       0
  5199 ;;      Totals:         0       0       0       0       0       0       0       0
  5200 ;;Total ram usage:        0 bytes
  5201 ;; Hardware stack levels used: 1
  5202 ;; Hardware stack levels required when called: 1
  5203 ;; This function calls:
  5204 ;;		NULL
  5205 ;;		_TMR0_DefaultInterruptHandler
  5206 ;;		_TMR0_EvenHandler
  5207 ;; This function is called by:
  5208 ;;		_TMR0_ISR
  5209 ;; This function uses a non-reentrant model
  5210 ;;
  5211                           
  5212     04F5                     _TMR0_CallBack:	
  5213                           ;psect for function _TMR0_CallBack
  5214                           
  5215     04F5                     i1l1912:	
  5216                           ;incstack = 0
  5217                           ; Regs used in _TMR0_CallBack: [wreg+status,2+status,0+pclath+cstack]
  5218                           
  5219                           
  5220                           ;mcc_generated_files/tmr0.c: 134:     if(TMR0_InterruptHandler)
  5221     04F5  0020               	movlb	0	; select bank0
  5222     04F6  0833               	movf	_TMR0_InterruptHandler,w
  5223     04F7  0434               	iorwf	_TMR0_InterruptHandler+1,w
  5224     04F8  1903               	btfsc	3,2
  5225     04F9  2CFB               	goto	u119_21
  5226     04FA  2CFC               	goto	u119_20
  5227     04FB                     u119_21:
  5228     04FB  2D01               	goto	i1l178
  5229     04FC                     u119_20:
  5230     04FC                     i1l1914:
  5231                           
  5232                           ;mcc_generated_files/tmr0.c: 135:     {;mcc_generated_files/tmr0.c: 136:         TMR0_In
      +                          terruptHandler();
  5233     04FC  0834               	movf	_TMR0_InterruptHandler+1,w
  5234     04FD  008A               	movwf	10
  5235     04FE  0833               	movf	_TMR0_InterruptHandler,w
  5236     04FF  000A               	callw
  5237     0500  3184               	pagesel	$
  5238     0501                     i1l178:
  5239     0501  0008               	return
  5240     0502                     __end_of_TMR0_CallBack:
  5241                           
  5242                           	psect	text24
  5243     0541                     __ptext24:	
  5244 ;; *************** function _TMR0_DefaultInterruptHandler *****************
  5245 ;; Defined at:
  5246 ;;		line 144 in file "mcc_generated_files/tmr0.c"
  5247 ;; Parameters:    Size  Location     Type
  5248 ;;		None
  5249 ;; Auto vars:     Size  Location     Type
  5250 ;;		None
  5251 ;; Return value:  Size  Location     Type
  5252 ;;                  1    wreg      void 
  5253 ;; Registers used:
  5254 ;;		None
  5255 ;; Tracked objects:
  5256 ;;		On entry : 0/0
  5257 ;;		On exit  : 0/0
  5258 ;;		Unchanged: 0/0
  5259 ;; Data sizes:     COMMON   BANK0   BANK1   BANK2   BANK3   BANK4   BANK5   BANK6
  5260 ;;      Params:         0       0       0       0       0       0       0       0
  5261 ;;      Locals:         0       0       0       0       0       0       0       0
  5262 ;;      Temps:          0       0       0       0       0       0       0       0
  5263 ;;      Totals:         0       0       0       0       0       0       0       0
  5264 ;;Total ram usage:        0 bytes
  5265 ;; Hardware stack levels used: 1
  5266 ;; This function calls:
  5267 ;;		Nothing
  5268 ;; This function is called by:
  5269 ;;		_TMR0_Initialize
  5270 ;;		_TMR0_CallBack
  5271 ;; This function uses a non-reentrant model
  5272 ;;
  5273                           
  5274     0541                     _TMR0_DefaultInterruptHandler:	
  5275                           ;psect for function _TMR0_DefaultInterruptHandler
  5276                           
  5277     0541                     i1l184:	
  5278                           ;incstack = 0
  5279                           ; Regs used in _TMR0_DefaultInterruptHandler: []
  5280                           
  5281     0541  0008               	return
  5282     0542                     __end_of_TMR0_DefaultInterruptHandler:
  5283                           
  5284                           	psect	text25
  5285     04AC                     __ptext25:	
  5286 ;; *************** function _TMR0_EvenHandler *****************
  5287 ;; Defined at:
  5288 ;;		line 658 in file "main.c"
  5289 ;; Parameters:    Size  Location     Type
  5290 ;;		None
  5291 ;; Auto vars:     Size  Location     Type
  5292 ;;		None
  5293 ;; Return value:  Size  Location     Type
  5294 ;;                  1    wreg      void 
  5295 ;; Registers used:
  5296 ;;		wreg, status,2, status,0
  5297 ;; Tracked objects:
  5298 ;;		On entry : 0/0
  5299 ;;		On exit  : 0/0
  5300 ;;		Unchanged: 0/0
  5301 ;; Data sizes:     COMMON   BANK0   BANK1   BANK2   BANK3   BANK4   BANK5   BANK6
  5302 ;;      Params:         0       0       0       0       0       0       0       0
  5303 ;;      Locals:         0       0       0       0       0       0       0       0
  5304 ;;      Temps:          1       0       0       0       0       0       0       0
  5305 ;;      Totals:         1       0       0       0       0       0       0       0
  5306 ;;Total ram usage:        1 bytes
  5307 ;; Hardware stack levels used: 1
  5308 ;; This function calls:
  5309 ;;		Nothing
  5310 ;; This function is called by:
  5311 ;;		_main
  5312 ;;		_TMR0_CallBack
  5313 ;; This function uses a non-reentrant model
  5314 ;;
  5315                           
  5316     04AC                     _TMR0_EvenHandler:	
  5317                           ;psect for function _TMR0_EvenHandler
  5318                           
  5319     04AC                     i1l1806:	
  5320                           ;incstack = 0
  5321                           ; Regs used in _TMR0_EvenHandler: [wreg+status,2+status,0]
  5322                           
  5323                           
  5324                           ;main.c: 660:     T10MS_CNT++;
  5325     04AC  3001               	movlw	1
  5326     04AD  00F6               	movwf	??_TMR0_EvenHandler
  5327     04AE  0876               	movf	??_TMR0_EvenHandler,w
  5328     04AF  0020               	movlb	0	; select bank0
  5329     04B0  07C2               	addwf	_T10MS_CNT,f	;volatile
  5330                           
  5331                           ;main.c: 661:     T10MS_CNT1++;
  5332     04B1  3001               	movlw	1
  5333     04B2  00F6               	movwf	??_TMR0_EvenHandler
  5334     04B3  0876               	movf	??_TMR0_EvenHandler,w
  5335     04B4  07C1               	addwf	_T10MS_CNT1,f	;volatile
  5336     04B5                     i1l1808:
  5337                           
  5338                           ;main.c: 662:     if (T10MS_CNT >= 200) {
  5339     04B5  30C8               	movlw	200
  5340     04B6  0242               	subwf	_T10MS_CNT,w	;volatile
  5341     04B7  1C03               	skipc
  5342     04B8  2CBA               	goto	u117_21
  5343     04B9  2CBB               	goto	u117_20
  5344     04BA                     u117_21:
  5345     04BA  2CBE               	goto	i1l530
  5346     04BB                     u117_20:
  5347     04BB                     i1l1810:
  5348                           
  5349                           ;main.c: 663:         fException2 = 1;
  5350     04BB  01BF               	clrf	_fException2
  5351     04BC  0ABF               	incf	_fException2,f
  5352     04BD                     i1l1812:
  5353                           
  5354                           ;main.c: 664:         T10MS_CNT = 0;
  5355     04BD  01C2               	clrf	_T10MS_CNT	;volatile
  5356     04BE                     i1l530:
  5357     04BE  0008               	return
  5358     04BF                     __end_of_TMR0_EvenHandler:
  5359                           
  5360                           	psect	text26
  5361     04BF                     __ptext26:	
  5362 ;; *************** function _ECCP3_CaptureISR *****************
  5363 ;; Defined at:
  5364 ;;		line 80 in file "mcc_generated_files/eccp3.c"
  5365 ;; Parameters:    Size  Location     Type
  5366 ;;		None
  5367 ;; Auto vars:     Size  Location     Type
  5368 ;;  module          2    4[COMMON] struct CCPR3Reg_tag
  5369 ;; Return value:  Size  Location     Type
  5370 ;;                  1    wreg      void 
  5371 ;; Registers used:
  5372 ;;		wreg, status,2, status,0, pclath, cstack
  5373 ;; Tracked objects:
  5374 ;;		On entry : 0/0
  5375 ;;		On exit  : 0/0
  5376 ;;		Unchanged: 0/0
  5377 ;; Data sizes:     COMMON   BANK0   BANK1   BANK2   BANK3   BANK4   BANK5   BANK6
  5378 ;;      Params:         0       0       0       0       0       0       0       0
  5379 ;;      Locals:         2       0       0       0       0       0       0       0
  5380 ;;      Temps:          0       0       0       0       0       0       0       0
  5381 ;;      Totals:         2       0       0       0       0       0       0       0
  5382 ;;Total ram usage:        2 bytes
  5383 ;; Hardware stack levels used: 1
  5384 ;; Hardware stack levels required when called: 1
  5385 ;; This function calls:
  5386 ;;		_ECCP3_CallBack
  5387 ;; This function is called by:
  5388 ;;		_INTERRUPT_InterruptManager
  5389 ;; This function uses a non-reentrant model
  5390 ;;
  5391                           
  5392     04BF                     _ECCP3_CaptureISR:	
  5393                           ;psect for function _ECCP3_CaptureISR
  5394                           
  5395     04BF                     i1l2016:	
  5396                           ;incstack = 0
  5397                           ; Regs used in _ECCP3_CaptureISR: [wreg+status,2+status,0+pclath+cstack]
  5398                           
  5399                           
  5400                           ;mcc_generated_files/eccp3.c: 82:     CCP3_PERIOD_REG_T module;;mcc_generated_files/eccp
      +                          3.c: 85:     PIR3bits.CCP3IF = 0;
  5401     04BF  0020               	movlb	0	; select bank0
  5402     04C0  1213               	bcf	19,4	;volatile
  5403     04C1                     i1l2018:
  5404                           
  5405                           ;mcc_generated_files/eccp3.c: 88:     module.ccpr3l = CCPR3L;
  5406     04C1  0026               	movlb	6	; select bank6
  5407     04C2  0811               	movf	17,w	;volatile
  5408     04C3  00FA               	movwf	ECCP3_CaptureISR@module
  5409                           
  5410                           ;mcc_generated_files/eccp3.c: 89:     module.ccpr3h = CCPR3H;
  5411     04C4  0812               	movf	18,w	;volatile
  5412     04C5  00FB               	movwf	ECCP3_CaptureISR@module+1
  5413     04C6                     i1l2020:
  5414                           
  5415                           ;mcc_generated_files/eccp3.c: 92:     ECCP3_CallBack(module.ccpr3_16Bit);
  5416     04C6  087B               	movf	ECCP3_CaptureISR@module+1,w
  5417     04C7  00F7               	movwf	ECCP3_CallBack@capturedValue+1
  5418     04C8  087A               	movf	ECCP3_CaptureISR@module,w
  5419     04C9  00F6               	movwf	ECCP3_CallBack@capturedValue
  5420     04CA  3181  21DE  3184   	fcall	_ECCP3_CallBack
  5421     04CD                     i1l234:
  5422     04CD  0008               	return
  5423     04CE                     __end_of_ECCP3_CaptureISR:
  5424                           
  5425                           	psect	text27
  5426     01DE                     __ptext27:	
  5427 ;; *************** function _ECCP3_CallBack *****************
  5428 ;; Defined at:
  5429 ;;		line 583 in file "main.c"
  5430 ;; Parameters:    Size  Location     Type
  5431 ;;  capturedValu    2    0[COMMON] unsigned short 
  5432 ;; Auto vars:     Size  Location     Type
  5433 ;;		None
  5434 ;; Return value:  Size  Location     Type
  5435 ;;                  1    wreg      void 
  5436 ;; Registers used:
  5437 ;;		wreg, status,2, status,0
  5438 ;; Tracked objects:
  5439 ;;		On entry : 0/0
  5440 ;;		On exit  : 0/0
  5441 ;;		Unchanged: 0/0
  5442 ;; Data sizes:     COMMON   BANK0   BANK1   BANK2   BANK3   BANK4   BANK5   BANK6
  5443 ;;      Params:         2       0       0       0       0       0       0       0
  5444 ;;      Locals:         0       0       0       0       0       0       0       0
  5445 ;;      Temps:          2       0       0       0       0       0       0       0
  5446 ;;      Totals:         4       0       0       0       0       0       0       0
  5447 ;;Total ram usage:        4 bytes
  5448 ;; Hardware stack levels used: 1
  5449 ;; This function calls:
  5450 ;;		Nothing
  5451 ;; This function is called by:
  5452 ;;		_ECCP3_CaptureISR
  5453 ;; This function uses a non-reentrant model
  5454 ;;
  5455                           
  5456     01DE                     _ECCP3_CallBack:	
  5457                           ;psect for function _ECCP3_CallBack
  5458                           
  5459     01DE                     i1l1916:	
  5460                           ;incstack = 0
  5461                           ; Regs used in _ECCP3_CallBack: [wreg+status,2+status,0]
  5462                           
  5463                           
  5464                           ;main.c: 583: void ECCP3_CallBack(uint16_t capturedValue);main.c: 584: {;main.c: 585:   
      +                            static uint16_t pluse_width_LO = 0;;main.c: 586:     static uint16_t pluse_width_HI = 
      +                          0;;main.c: 587:     static uint8_t HI_us = 0;;main.c: 588:     static uint8_t LO_us = 0;
      +                          ;main.c: 589:     static uint8_t diff_us = 0;;main.c: 590:     static uint16_t falling_e
      +                          dge_time = 0;;main.c: 591:     static uint16_t rising_edge_time = 0;;main.c: 592:     st
      +                          atic _Bool rise_edge_flag = 0;;main.c: 593:     static _Bool fHead = 0;;main.c: 594:    
      +                           static uint8_t data_cnt = 0;
  5465     01DE  3004               	movlw	4
  5466     01DF  0026               	movlb	6	; select bank6
  5467     01E0  0613               	xorwf	19,w	;volatile
  5468     01E1  1D03               	btfss	3,2
  5469     01E2  29E4               	goto	u120_21
  5470     01E3  29E5               	goto	u120_20
  5471     01E4                     u120_21:
  5472     01E4  2A7B               	goto	i1l1956
  5473     01E5                     u120_20:
  5474     01E5                     i1l1918:
  5475                           
  5476                           ;main.c: 598:         falling_edge_time = capturedValue;
  5477     01E5  0877               	movf	ECCP3_CallBack@capturedValue+1,w
  5478     01E6  00F1               	movwf	ECCP3_CallBack@falling_edge_time+1
  5479     01E7  0876               	movf	ECCP3_CallBack@capturedValue,w
  5480     01E8  00F0               	movwf	ECCP3_CallBack@falling_edge_time
  5481                           
  5482                           ;main.c: 599:         CCP3CON = 0x05;
  5483     01E9  3005               	movlw	5
  5484     01EA  0093               	movwf	19	;volatile
  5485     01EB                     i1l1920:
  5486                           
  5487                           ;main.c: 600:         if (rise_edge_flag == 1) {
  5488     01EB  0020               	movlb	0	; select bank0
  5489     01EC  0339               	decf	ECCP3_CallBack@rise_edge_flag,w
  5490     01ED  1D03               	btfss	3,2
  5491     01EE  29F0               	goto	u121_21
  5492     01EF  29F1               	goto	u121_20
  5493     01F0                     u121_21:
  5494     01F0  2AA9               	goto	i1l526
  5495     01F1                     u121_20:
  5496     01F1                     i1l1922:
  5497                           
  5498                           ;main.c: 601:             rise_edge_flag = 0;
  5499     01F1  01B9               	clrf	ECCP3_CallBack@rise_edge_flag
  5500     01F2                     i1l1924:
  5501                           
  5502                           ;main.c: 603:             if (falling_edge_time >= rising_edge_time) {
  5503     01F2  082C               	movf	ECCP3_CallBack@rising_edge_time+1,w
  5504     01F3  0271               	subwf	ECCP3_CallBack@falling_edge_time+1,w
  5505     01F4  1D03               	skipz
  5506     01F5  29F8               	goto	u122_25
  5507     01F6  082B               	movf	ECCP3_CallBack@rising_edge_time,w
  5508     01F7  0270               	subwf	ECCP3_CallBack@falling_edge_time,w
  5509     01F8                     u122_25:
  5510     01F8  1C03               	skipc
  5511     01F9  29FB               	goto	u122_21
  5512     01FA  29FC               	goto	u122_20
  5513     01FB                     u122_21:
  5514     01FB  2A03               	goto	i1l1928
  5515     01FC                     u122_20:
  5516     01FC                     i1l1926:
  5517                           
  5518                           ;main.c: 604:                 pluse_width_HI = falling_edge_time - rising_edge_time;
  5519     01FC  082B               	movf	ECCP3_CallBack@rising_edge_time,w
  5520     01FD  0270               	subwf	ECCP3_CallBack@falling_edge_time,w
  5521     01FE  00AD               	movwf	ECCP3_CallBack@pluse_width_HI
  5522     01FF  082C               	movf	ECCP3_CallBack@rising_edge_time+1,w
  5523     0200  3B71               	subwfb	ECCP3_CallBack@falling_edge_time+1,w
  5524     0201  00AE               	movwf	ECCP3_CallBack@pluse_width_HI+1
  5525                           
  5526                           ;main.c: 605:             } else {
  5527     0202  2A0F               	goto	i1l505
  5528     0203                     i1l1928:
  5529                           
  5530                           ;main.c: 606:                 pluse_width_HI = (0xffff - rising_edge_time) + falling_edg
      +                          e_time;
  5531     0203  082C               	movf	ECCP3_CallBack@rising_edge_time+1,w
  5532     0204  00F9               	movwf	??_ECCP3_CallBack+1
  5533     0205  082B               	movf	ECCP3_CallBack@rising_edge_time,w
  5534     0206  00F8               	movwf	??_ECCP3_CallBack
  5535     0207  09F8               	comf	??_ECCP3_CallBack,f
  5536     0208  09F9               	comf	??_ECCP3_CallBack+1,f
  5537     0209  0870               	movf	ECCP3_CallBack@falling_edge_time,w
  5538     020A  0778               	addwf	??_ECCP3_CallBack,w
  5539     020B  00AD               	movwf	ECCP3_CallBack@pluse_width_HI
  5540     020C  0871               	movf	ECCP3_CallBack@falling_edge_time+1,w
  5541     020D  3D79               	addwfc	??_ECCP3_CallBack+1,w
  5542     020E  00AE               	movwf	ECCP3_CallBack@pluse_width_HI+1
  5543     020F                     i1l505:	
  5544                           ;main.c: 607:             }
  5545                           
  5546                           
  5547                           ;main.c: 608:             LO_us = (pluse_width_LO >> 3) & 0xff;
  5548     020F  0830               	movf	ECCP3_CallBack@pluse_width_LO+1,w
  5549     0210  00F9               	movwf	??_ECCP3_CallBack+1
  5550     0211  082F               	movf	ECCP3_CallBack@pluse_width_LO,w
  5551     0212  00F8               	movwf	??_ECCP3_CallBack
  5552     0213  36F9               	lsrf	??_ECCP3_CallBack+1,f
  5553     0214  0CF8               	rrf	??_ECCP3_CallBack,f
  5554     0215  36F9               	lsrf	??_ECCP3_CallBack+1,f
  5555     0216  0CF8               	rrf	??_ECCP3_CallBack,f
  5556     0217  36F9               	lsrf	??_ECCP3_CallBack+1,f
  5557     0218  0CF8               	rrf	??_ECCP3_CallBack,f
  5558     0219  0878               	movf	??_ECCP3_CallBack,w
  5559     021A  00BB               	movwf	ECCP3_CallBack@LO_us
  5560                           
  5561                           ;main.c: 609:             HI_us = (pluse_width_HI >> 3) & 0xff;
  5562     021B  082E               	movf	ECCP3_CallBack@pluse_width_HI+1,w
  5563     021C  00F9               	movwf	??_ECCP3_CallBack+1
  5564     021D  082D               	movf	ECCP3_CallBack@pluse_width_HI,w
  5565     021E  00F8               	movwf	??_ECCP3_CallBack
  5566     021F  36F9               	lsrf	??_ECCP3_CallBack+1,f
  5567     0220  0CF8               	rrf	??_ECCP3_CallBack,f
  5568     0221  36F9               	lsrf	??_ECCP3_CallBack+1,f
  5569     0222  0CF8               	rrf	??_ECCP3_CallBack,f
  5570     0223  36F9               	lsrf	??_ECCP3_CallBack+1,f
  5571     0224  0CF8               	rrf	??_ECCP3_CallBack,f
  5572     0225  0878               	movf	??_ECCP3_CallBack,w
  5573     0226  00BC               	movwf	ECCP3_CallBack@HI_us
  5574     0227                     i1l1930:
  5575                           
  5576                           ;main.c: 610:             if (HI_us > LO_us)
  5577     0227  083C               	movf	ECCP3_CallBack@HI_us,w
  5578     0228  023B               	subwf	ECCP3_CallBack@LO_us,w
  5579     0229  1803               	skipnc
  5580     022A  2A2C               	goto	u123_21
  5581     022B  2A2D               	goto	u123_20
  5582     022C                     u123_21:
  5583     022C  2A31               	goto	i1l1934
  5584     022D                     u123_20:
  5585     022D                     i1l1932:
  5586                           
  5587                           ;main.c: 611:                 diff_us = HI_us - LO_us;
  5588     022D  083B               	movf	ECCP3_CallBack@LO_us,w
  5589     022E  023C               	subwf	ECCP3_CallBack@HI_us,w
  5590     022F  00BA               	movwf	ECCP3_CallBack@diff_us
  5591     0230  2A34               	goto	i1l507
  5592     0231                     i1l1934:
  5593                           
  5594                           ;main.c: 613:                 diff_us = LO_us - HI_us;
  5595     0231  083C               	movf	ECCP3_CallBack@HI_us,w
  5596     0232  023B               	subwf	ECCP3_CallBack@LO_us,w
  5597     0233  00BA               	movwf	ECCP3_CallBack@diff_us
  5598     0234                     i1l507:
  5599                           
  5600                           ;main.c: 615:             if (fHead == 0) {
  5601     0234  0838               	movf	ECCP3_CallBack@fHead,w
  5602     0235  1D03               	btfss	3,2
  5603     0236  2A38               	goto	u124_21
  5604     0237  2A39               	goto	u124_20
  5605     0238                     u124_21:
  5606     0238  2A48               	goto	i1l1944
  5607     0239                     u124_20:
  5608     0239                     i1l509:	
  5609                           ;main.c: 616:                 do { LATCbits.LATC4 = 1; } while(0);
  5610                           
  5611     0239  0022               	movlb	2	; select bank2
  5612     023A  160E               	bsf	14,4	;volatile
  5613     023B                     i1l1936:
  5614                           
  5615                           ;main.c: 618:                 if (diff_us < (20)) {
  5616     023B  3014               	movlw	20
  5617     023C  0020               	movlb	0	; select bank0
  5618     023D  023A               	subwf	ECCP3_CallBack@diff_us,w
  5619     023E  1803               	skipnc
  5620     023F  2A41               	goto	u125_21
  5621     0240  2A42               	goto	u125_20
  5622     0241                     u125_21:
  5623     0241  2AA9               	goto	i1l526
  5624     0242                     u125_20:
  5625     0242                     i1l1938:
  5626                           
  5627                           ;main.c: 620:                     fHead = 1;
  5628     0242  01B8               	clrf	ECCP3_CallBack@fHead
  5629     0243  0AB8               	incf	ECCP3_CallBack@fHead,f
  5630     0244                     i1l1940:
  5631                           
  5632                           ;main.c: 621:                     data_cnt = 0;
  5633     0244  01B7               	clrf	ECCP3_CallBack@data_cnt
  5634     0245                     i1l1942:
  5635     0245  0022               	movlb	2	; select bank2
  5636     0246  120E               	bcf	14,4	;volatile
  5637     0247  2AA9               	goto	i1l526
  5638     0248                     i1l1944:
  5639                           
  5640                           ;main.c: 626:                 if (diff_us < (20)) {
  5641     0248  3014               	movlw	20
  5642     0249  023A               	subwf	ECCP3_CallBack@diff_us,w
  5643     024A  1803               	skipnc
  5644     024B  2A4D               	goto	u126_21
  5645     024C  2A4E               	goto	u126_20
  5646     024D                     u126_21:
  5647     024D  2A5E               	goto	i1l519
  5648     024E                     u126_20:
  5649     024E                     i1l516:	
  5650                           ;main.c: 628:                     do { LATCbits.LATC4 = 0; } while(0);
  5651                           
  5652     024E  0022               	movlb	2	; select bank2
  5653     024F  120E               	bcf	14,4	;volatile
  5654     0250                     i1l1946:
  5655                           
  5656                           ;main.c: 629:                     rx_data &= ~(1 << data_cnt);
  5657     0250  3001               	movlw	1
  5658     0251  00F8               	movwf	??_ECCP3_CallBack
  5659     0252  0020               	movlb	0	; select bank0
  5660     0253  0A37               	incf	ECCP3_CallBack@data_cnt,w
  5661     0254  2A56               	goto	u127_24
  5662     0255                     u127_25:
  5663     0255  35F8               	lslf	??_ECCP3_CallBack,f
  5664     0256                     u127_24:
  5665     0256  0B89               	decfsz	9,f
  5666     0257  2A55               	goto	u127_25
  5667     0258  0878               	movf	??_ECCP3_CallBack,w
  5668     0259  3AFF               	xorlw	255
  5669     025A  00F9               	movwf	??_ECCP3_CallBack+1
  5670     025B  0879               	movf	??_ECCP3_CallBack+1,w
  5671     025C  05F4               	andwf	_rx_data,f
  5672                           
  5673                           ;main.c: 630:                 } else {
  5674     025D  2A6C               	goto	i1l518
  5675     025E                     i1l519:	
  5676                           ;main.c: 632:                     do { LATCbits.LATC4 = 1; } while(0);
  5677                           
  5678     025E  0022               	movlb	2	; select bank2
  5679     025F  160E               	bsf	14,4	;volatile
  5680     0260                     i1l1948:
  5681                           
  5682                           ;main.c: 633:                     rx_data |= (1 << data_cnt);
  5683     0260  3001               	movlw	1
  5684     0261  00F8               	movwf	??_ECCP3_CallBack
  5685     0262  0020               	movlb	0	; select bank0
  5686     0263  0A37               	incf	ECCP3_CallBack@data_cnt,w
  5687     0264  2A66               	goto	u128_24
  5688     0265                     u128_25:
  5689     0265  35F8               	lslf	??_ECCP3_CallBack,f
  5690     0266                     u128_24:
  5691     0266  0B89               	decfsz	9,f
  5692     0267  2A65               	goto	u128_25
  5693     0268  0878               	movf	??_ECCP3_CallBack,w
  5694     0269  00F9               	movwf	??_ECCP3_CallBack+1
  5695     026A  0879               	movf	??_ECCP3_CallBack+1,w
  5696     026B  04F4               	iorwf	_rx_data,f
  5697     026C                     i1l518:	
  5698                           ;main.c: 634:                 }
  5699                           
  5700                           
  5701                           ;main.c: 636:                 data_cnt++;
  5702     026C  3001               	movlw	1
  5703     026D  00F8               	movwf	??_ECCP3_CallBack
  5704     026E  0878               	movf	??_ECCP3_CallBack,w
  5705     026F  07B7               	addwf	ECCP3_CallBack@data_cnt,f
  5706     0270                     i1l1950:
  5707                           
  5708                           ;main.c: 637:                 if (data_cnt > 7) {
  5709     0270  3008               	movlw	8
  5710     0271  0237               	subwf	ECCP3_CallBack@data_cnt,w
  5711     0272  1C03               	skipc
  5712     0273  2A75               	goto	u129_21
  5713     0274  2A76               	goto	u129_20
  5714     0275                     u129_21:
  5715     0275  2A7A               	goto	i1l503
  5716     0276                     u129_20:
  5717     0276                     i1l1952:
  5718                           
  5719                           ;main.c: 638:                     fHead = 0;
  5720     0276  01B8               	clrf	ECCP3_CallBack@fHead
  5721     0277                     i1l1954:
  5722                           
  5723                           ;main.c: 639:                     data_1byte_OK = 1;
  5724     0277  3001               	movlw	1
  5725     0278  00C6               	movwf	_data_1byte_OK	;volatile
  5726     0279  2AA9               	goto	i1l526
  5727     027A                     i1l503:	
  5728                           ;main.c: 642:         }
  5729                           
  5730                           
  5731                           ;main.c: 644:     }
  5732     027A  2AA9               	goto	i1l526
  5733     027B                     i1l1956:
  5734     027B  3005               	movlw	5
  5735     027C  0613               	xorwf	19,w	;volatile
  5736     027D  1D03               	btfss	3,2
  5737     027E  2A80               	goto	u130_21
  5738     027F  2A81               	goto	u130_20
  5739     0280                     u130_21:
  5740     0280  2AA9               	goto	i1l526
  5741     0281                     u130_20:
  5742     0281                     i1l1958:
  5743                           
  5744                           ;main.c: 646:         rising_edge_time = capturedValue;
  5745     0281  0877               	movf	ECCP3_CallBack@capturedValue+1,w
  5746     0282  0020               	movlb	0	; select bank0
  5747     0283  00AC               	movwf	ECCP3_CallBack@rising_edge_time+1
  5748     0284  0876               	movf	ECCP3_CallBack@capturedValue,w
  5749     0285  00AB               	movwf	ECCP3_CallBack@rising_edge_time
  5750                           
  5751                           ;main.c: 647:         CCP3CON = 0x04;
  5752     0286  3004               	movlw	4
  5753     0287  0026               	movlb	6	; select bank6
  5754     0288  0093               	movwf	19	;volatile
  5755                           
  5756                           ;main.c: 649:         if (rising_edge_time >= falling_edge_time) {
  5757     0289  0871               	movf	ECCP3_CallBack@falling_edge_time+1,w
  5758     028A  0020               	movlb	0	; select bank0
  5759     028B  022C               	subwf	ECCP3_CallBack@rising_edge_time+1,w
  5760     028C  1D03               	skipz
  5761     028D  2A90               	goto	u131_25
  5762     028E  0870               	movf	ECCP3_CallBack@falling_edge_time,w
  5763     028F  022B               	subwf	ECCP3_CallBack@rising_edge_time,w
  5764     0290                     u131_25:
  5765     0290  1C03               	skipc
  5766     0291  2A93               	goto	u131_21
  5767     0292  2A94               	goto	u131_20
  5768     0293                     u131_21:
  5769     0293  2A9B               	goto	i1l1962
  5770     0294                     u131_20:
  5771     0294                     i1l1960:
  5772                           
  5773                           ;main.c: 650:             pluse_width_LO = rising_edge_time - falling_edge_time;
  5774     0294  0870               	movf	ECCP3_CallBack@falling_edge_time,w
  5775     0295  022B               	subwf	ECCP3_CallBack@rising_edge_time,w
  5776     0296  00AF               	movwf	ECCP3_CallBack@pluse_width_LO
  5777     0297  0871               	movf	ECCP3_CallBack@falling_edge_time+1,w
  5778     0298  3B2C               	subwfb	ECCP3_CallBack@rising_edge_time+1,w
  5779     0299  00B0               	movwf	ECCP3_CallBack@pluse_width_LO+1
  5780                           
  5781                           ;main.c: 651:         } else {
  5782     029A  2AA7               	goto	i1l1964
  5783     029B                     i1l1962:
  5784                           
  5785                           ;main.c: 652:             pluse_width_LO = (0xffff - falling_edge_time) + rising_edge_ti
      +                          me;
  5786     029B  0871               	movf	ECCP3_CallBack@falling_edge_time+1,w
  5787     029C  00F9               	movwf	??_ECCP3_CallBack+1
  5788     029D  0870               	movf	ECCP3_CallBack@falling_edge_time,w
  5789     029E  00F8               	movwf	??_ECCP3_CallBack
  5790     029F  09F8               	comf	??_ECCP3_CallBack,f
  5791     02A0  09F9               	comf	??_ECCP3_CallBack+1,f
  5792     02A1  082B               	movf	ECCP3_CallBack@rising_edge_time,w
  5793     02A2  0778               	addwf	??_ECCP3_CallBack,w
  5794     02A3  00AF               	movwf	ECCP3_CallBack@pluse_width_LO
  5795     02A4  082C               	movf	ECCP3_CallBack@rising_edge_time+1,w
  5796     02A5  3D79               	addwfc	??_ECCP3_CallBack+1,w
  5797     02A6  00B0               	movwf	ECCP3_CallBack@pluse_width_LO+1
  5798     02A7                     i1l1964:
  5799                           
  5800                           ;main.c: 654:         rise_edge_flag = 1;
  5801     02A7  01B9               	clrf	ECCP3_CallBack@rise_edge_flag
  5802     02A8  0AB9               	incf	ECCP3_CallBack@rise_edge_flag,f
  5803     02A9                     i1l526:
  5804     02A9  0008               	return
  5805     02AA                     __end_of_ECCP3_CallBack:
  5806     007E                     btemp	set	126	;btemp
  5807     007E                     int$flags	set	126
  5808     007E                     wtemp0	set	126
  5809                           
  5810                           	psect	config
  5811                           
  5812                           ;Config register CONFIG1 @ 0x8007
  5813                           ;	Oscillator Selection
  5814                           ;	FOSC = INTOSC, INTOSC oscillator: I/O function on CLKIN pin
  5815                           ;	Watchdog Timer Enable
  5816                           ;	WDTE = OFF, WDT disabled
  5817                           ;	Power-up Timer Enable
  5818                           ;	PWRTE = ON, PWRT enabled
  5819                           ;	MCLR Pin Function Select
  5820                           ;	MCLRE = ON, MCLR/VPP pin function is MCLR
  5821                           ;	Flash Program Memory Code Protection
  5822                           ;	CP = OFF, Program memory code protection is disabled
  5823                           ;	Data Memory Code Protection
  5824                           ;	CPD = OFF, Data memory code protection is disabled
  5825                           ;	Brown-out Reset Enable
  5826                           ;	BOREN = ON, Brown-out Reset enabled
  5827                           ;	Clock Out Enable
  5828                           ;	CLKOUTEN = OFF, CLKOUT function is disabled. I/O or oscillator function on the CLKOUT 
      +                          pin
  5829                           ;	Internal/External Switchover
  5830                           ;	IESO = ON, Internal/External Switchover mode is enabled
  5831                           ;	Fail-Safe Clock Monitor Enable
  5832                           ;	FCMEN = ON, Fail-Safe Clock Monitor is enabled
  5833     8007                     	org	32775
  5834     8007  3FC4               	dw	16324
  5835                           
  5836                           ;Config register CONFIG2 @ 0x8008
  5837                           ;	Flash Memory Self-Write Protection
  5838                           ;	WRT = OFF, Write protection off
  5839                           ;	Voltage Regulator Capacitor Enable
  5840                           ;	VCAPEN = OFF, All VCAP pin functionality is disabled
  5841                           ;	PLL Enable
  5842                           ;	PLLEN = ON, 4x PLL enabled
  5843                           ;	Stack Overflow/Underflow Reset Enable
  5844                           ;	STVREN = ON, Stack Overflow or Underflow will cause a Reset
  5845                           ;	Brown-out Reset Voltage Selection
  5846                           ;	BORV = LO, Brown-out Reset Voltage (Vbor), low trip point selected.
  5847                           ;	Low-Voltage Programming Enable
  5848                           ;	LVP = OFF, High-voltage on MCLR/VPP must be used for programming
  5849     8008                     	org	32776
  5850     8008  1FFF               	dw	8191

Data Sizes:
    Strings     0
    Constant    0
    Data        64
    BSS         45
    Persistent  32
    Stack       0

Auto Spaces:
    Space          Size  Autos    Used
    COMMON           14      6      12
    BANK0            80      5      44
    BANK1            80      0      64
    BANK2            80      0       0
    BANK3            80      0       0
    BANK4            80      0       0
    BANK5            80      0       0
    BANK6            16      0       0

Pointer List with Targets:

    TMR0_InterruptHandler	PTR FTN()void  size(2) Largest target is 1
		 -> TMR0_DefaultInterruptHandler(), TMR0_EvenHandler(), NULL(), 

    TMR0_SetInterruptHandler@InterruptHandler	PTR FTN()void  size(2) Largest target is 1
		 -> TMR0_DefaultInterruptHandler(), TMR0_EvenHandler(), 


Critical Paths under _main in COMMON

    None.

Critical Paths under _INTERRUPT_InterruptManager in COMMON

    _INTERRUPT_InterruptManager->_ECCP3_CaptureISR
    _TMR0_CallBack->_TMR0_EvenHandler
    _ECCP3_CaptureISR->_ECCP3_CallBack

Critical Paths under _main in BANK0

    _main->_LED_output
    _TMR0_Initialize->_TMR0_SetInterruptHandler
    _DRL_ON->_DRL_Gradually
    _Exception_handling->_POS_Gradually

Critical Paths under _INTERRUPT_InterruptManager in BANK0

    None.

Critical Paths under _main in BANK1

    None.

Critical Paths under _INTERRUPT_InterruptManager in BANK1

    None.

Critical Paths under _main in BANK2

    None.

Critical Paths under _INTERRUPT_InterruptManager in BANK2

    None.

Critical Paths under _main in BANK3

    None.

Critical Paths under _INTERRUPT_InterruptManager in BANK3

    None.

Critical Paths under _main in BANK4

    None.

Critical Paths under _INTERRUPT_InterruptManager in BANK4

    None.

Critical Paths under _main in BANK5

    None.

Critical Paths under _INTERRUPT_InterruptManager in BANK5

    None.

Critical Paths under _main in BANK6

    None.

Critical Paths under _INTERRUPT_InterruptManager in BANK6

    None.

Call Graph Tables:

 ---------------------------------------------------------------------------------
 (Depth) Function   	        Calls       Base Space   Used Autos Params    Refs
 ---------------------------------------------------------------------------------
 (0) _main                                                 0     0      0     722
                 _Exception_handling
                         _LED_output
                          _LoBeam_ON
                             _POS_ON
                  _SYSTEM_Initialize
           _TMR0_SetInterruptHandler
                        _check_input
                       _getFrameData
 ---------------------------------------------------------------------------------
 (1) _getFrameData                                         0     0      0       0
 ---------------------------------------------------------------------------------
 (1) _check_input                                          0     0      0       0
 ---------------------------------------------------------------------------------
 (1) _SYSTEM_Initialize                                    0     0      0     211
                   _ECCP3_Initialize
                   _EPWM1_Initialize
                   _EPWM2_Initialize
              _OSCILLATOR_Initialize
             _PIN_MANAGER_Initialize
                    _TMR0_Initialize
                    _TMR1_Initialize
                    _TMR2_Initialize
                     _WDT_Initialize
 ---------------------------------------------------------------------------------
 (2) _WDT_Initialize                                       0     0      0       0
 ---------------------------------------------------------------------------------
 (2) _TMR2_Initialize                                      0     0      0       0
 ---------------------------------------------------------------------------------
 (2) _TMR1_Initialize                                      0     0      0       0
 ---------------------------------------------------------------------------------
 (2) _TMR0_Initialize                                      0     0      0     211
           _TMR0_SetInterruptHandler
 ---------------------------------------------------------------------------------
 (1) _TMR0_SetInterruptHandler                             2     0      2     211
                                              0 BANK0      2     0      2
 ---------------------------------------------------------------------------------
 (2) _PIN_MANAGER_Initialize                               0     0      0       0
 ---------------------------------------------------------------------------------
 (2) _OSCILLATOR_Initialize                                0     0      0       0
 ---------------------------------------------------------------------------------
 (2) _EPWM2_Initialize                                     0     0      0       0
 ---------------------------------------------------------------------------------
 (2) _EPWM1_Initialize                                     0     0      0       0
 ---------------------------------------------------------------------------------
 (2) _ECCP3_Initialize                                     0     0      0       0
 ---------------------------------------------------------------------------------
 (1) _LED_output                                           3     3      0     201
                                              2 BANK0      3     3      0
                             _DRL_ON
                          _LoBeam_ON
                             _POS_ON
 ---------------------------------------------------------------------------------
 (1) _POS_ON                                               0     0      0       0
 ---------------------------------------------------------------------------------
 (1) _LoBeam_ON                                            0     0      0       0
 ---------------------------------------------------------------------------------
 (2) _DRL_ON                                               0     0      0      68
                      _DRL_Gradually
 ---------------------------------------------------------------------------------
 (3) _DRL_Gradually                                        2     2      0      68
                                              0 BANK0      2     2      0
 ---------------------------------------------------------------------------------
 (1) _Exception_handling                                   0     0      0      99
                      _POS_Gradually
 ---------------------------------------------------------------------------------
 (2) _POS_Gradually                                        3     3      0      99
                                              0 BANK0      3     3      0
 ---------------------------------------------------------------------------------
 Estimated maximum stack depth 3
 ---------------------------------------------------------------------------------
 (Depth) Function   	        Calls       Base Space   Used Autos Params    Refs
 ---------------------------------------------------------------------------------
 (4) _INTERRUPT_InterruptManager                           0     0      0     167
                   _ECCP3_CaptureISR
                           _TMR0_ISR
 ---------------------------------------------------------------------------------
 (5) _TMR0_ISR                                             0     0      0       0
                      _TMR0_CallBack
 ---------------------------------------------------------------------------------
 (6) _TMR0_CallBack                                        0     0      0       0
                                NULL *
       _TMR0_DefaultInterruptHandler *
                   _TMR0_EvenHandler *
 ---------------------------------------------------------------------------------
 (7) _TMR0_EvenHandler                                     1     1      0       0
                                              0 COMMON     1     1      0
 ---------------------------------------------------------------------------------
 (7) _TMR0_DefaultInterruptHandler                         0     0      0       0
 ---------------------------------------------------------------------------------
 (7) NULL(Fake)                                            0     0      0       0
 ---------------------------------------------------------------------------------
 (5) _ECCP3_CaptureISR                                     2     2      0     167
                                              4 COMMON     2     2      0
                     _ECCP3_CallBack
 ---------------------------------------------------------------------------------
 (6) _ECCP3_CallBack                                       4     2      2     120
                                              0 COMMON     4     2      2
 ---------------------------------------------------------------------------------
 Estimated maximum stack depth 7
 ---------------------------------------------------------------------------------

 Call Graph Graphs:

 _main (ROOT)
   _Exception_handling
     _POS_Gradually
   _LED_output
     _DRL_ON
       _DRL_Gradually
     _LoBeam_ON
     _POS_ON
   _LoBeam_ON
   _POS_ON
   _SYSTEM_Initialize
     _ECCP3_Initialize
     _EPWM1_Initialize
     _EPWM2_Initialize
     _OSCILLATOR_Initialize
     _PIN_MANAGER_Initialize
     _TMR0_Initialize
       _TMR0_SetInterruptHandler
     _TMR1_Initialize
     _TMR2_Initialize
     _WDT_Initialize
   _TMR0_SetInterruptHandler
   _check_input
   _getFrameData

 _INTERRUPT_InterruptManager (ROOT)
   _ECCP3_CaptureISR
     _ECCP3_CallBack
   _TMR0_ISR
     _TMR0_CallBack
       NULL(Fake) *
       _TMR0_DefaultInterruptHandler *
       _TMR0_EvenHandler *

 Address spaces:
Name               Size   Autos  Total    Cost      Usage
BIGRAM             1F0      0       0       0        0.0%
EEDATA             100      0       0       0        0.0%
NULL                 0      0       0       0        0.0%
CODE                 0      0       0       0        0.0%
BITCOMMON            E      0       0       1        0.0%
BITSFR0              0      0       0       1        0.0%
SFR0                 0      0       0       1        0.0%
COMMON               E      6       C       2       85.7%
BITSFR1              0      0       0       2        0.0%
SFR1                 0      0       0       2        0.0%
BITSFR2              0      0       0       3        0.0%
SFR2                 0      0       0       3        0.0%
STACK                0      0       0       3        0.0%
BITSFR3              0      0       0       4        0.0%
SFR3                 0      0       0       4        0.0%
ABS                  0      0      78       4        0.0%
BITBANK0            50      0       0       5        0.0%
BITSFR4              0      0       0       5        0.0%
SFR4                 0      0       0       5        0.0%
BANK0               50      5      2C       6       55.0%
BITSFR5              0      0       0       6        0.0%
SFR5                 0      0       0       6        0.0%
BITBANK1            50      0       0       7        0.0%
BITSFR6              0      0       0       7        0.0%
SFR6                 0      0       0       7        0.0%
BANK1               50      0      40       8       80.0%
BITSFR7              0      0       0       8        0.0%
SFR7                 0      0       0       8        0.0%
BITBANK2            50      0       0       9        0.0%
BITSFR8              0      0       0       9        0.0%
SFR8                 0      0       0       9        0.0%
BANK2               50      0       0      10        0.0%
BITSFR9              0      0       0      10        0.0%
SFR9                 0      0       0      10        0.0%
BITBANK3            50      0       0      11        0.0%
BITSFR10             0      0       0      11        0.0%
SFR10                0      0       0      11        0.0%
BANK3               50      0       0      12        0.0%
BITSFR11             0      0       0      12        0.0%
SFR11                0      0       0      12        0.0%
BITBANK4            50      0       0      13        0.0%
BITSFR12             0      0       0      13        0.0%
SFR12                0      0       0      13        0.0%
BANK4               50      0       0      14        0.0%
BITSFR13             0      0       0      14        0.0%
SFR13                0      0       0      14        0.0%
BITBANK5            50      0       0      15        0.0%
BITSFR14             0      0       0      15        0.0%
SFR14                0      0       0      15        0.0%
BANK5               50      0       0      16        0.0%
BITSFR15             0      0       0      16        0.0%
SFR15                0      0       0      16        0.0%
BITBANK6            10      0       0      17        0.0%
BITSFR16             0      0       0      17        0.0%
SFR16                0      0       0      17        0.0%
BANK6               10      0       0      18        0.0%
BITSFR17             0      0       0      18        0.0%
SFR17                0      0       0      18        0.0%
BITSFR18             0      0       0      19        0.0%
SFR18                0      0       0      19        0.0%
DATA                 0      0      78      19        0.0%
BITSFR19             0      0       0      20        0.0%
SFR19                0      0       0      20        0.0%
BITSFR20             0      0       0      21        0.0%
SFR20                0      0       0      21        0.0%
BITSFR21             0      0       0      22        0.0%
SFR21                0      0       0      22        0.0%
BITSFR22             0      0       0      23        0.0%
SFR22                0      0       0      23        0.0%
BITSFR23             0      0       0      24        0.0%
SFR23                0      0       0      24        0.0%
BITSFR24             0      0       0      25        0.0%
SFR24                0      0       0      25        0.0%
BITSFR25             0      0       0      26        0.0%
SFR25                0      0       0      26        0.0%
BITSFR26             0      0       0      27        0.0%
SFR26                0      0       0      27        0.0%
BITSFR27             0      0       0      28        0.0%
SFR27                0      0       0      28        0.0%
BITSFR28             0      0       0      29        0.0%
SFR28                0      0       0      29        0.0%
BITSFR29             0      0       0      30        0.0%
SFR29                0      0       0      30        0.0%
BITSFR30             0      0       0      31        0.0%
SFR30                0      0       0      31        0.0%
BITSFR31             0      0       0      32        0.0%
SFR31                0      0       0      32        0.0%


Microchip Technology PIC Macro Assembler V2.46 build 20240104201356 
Symbol Table                                                                                   Thu Sep 11 13:46:09 2025

                                      _D2 0073                                        _D3 0043  
                                      l31 0430                                        l40 053C  
                                      l34 0508                                        l37 050D  
                                      l80 04DA                                        _CS 00A0  
                         _timer0ReloadVal 0075                                       l231 0517  
                                     l137 044C                                       l410 0135  
                                     l402 010A                                       l251 04F4  
                                     l340 03CD                                       l341 03CF  
                                     l181 0538                                       l430 01A0  
                                     l422 0174                                       l414 014A  
                                     l406 0120                                       l271 04E7  
                                     l159 04AB                                       l336 0414  
                                     l352 0469                                       l360 0461  
                                     l329 0526                                       l354 046D  
                                     l362 0466                                       l434 01B6  
                                     l426 018A                                       l418 015F  
                                     l450 03AA                                       l347 03EF  
                                     l355 047F                                       l451 03B0  
                                     l380 0080                                       l452 03B1  
                                     l365 0540                                       l429 01CC  
                                     l373 0067                                       l197 051F  
                                     l453 03B7                                       l445 039B  
                                     l390 00C8                                       l382 009B  
                                     l454 03B8                                       l446 039C  
                                     l375 006C                                       l455 03BE  
                                     l447 03A2                                       l376 006A  
                                     l448 03A3                                       l369 01DD  
                                     l457 03BF                                       l449 03A9  
                                     l394 00DE                                       l386 00B3  
                                     l378 0083                                       l398 00F4  
                                     l479 031A                                       _PR2 001B  
                         _timer1ReloadVal 0035                           _TMR2_Initialize 0518  
                                     wreg 0009                  __end_of_EPWM2_Initialize 04E8  
                __end_of_ECCP3_Initialize 0518                               ?_LED_output 0076  
                                    l2400 0437                                      l2410 0443  
                                    l2402 043A                                      l2500 0525  
                                    l2420 0502                                      l2412 0445  
                                    l2404 043C                                      l2510 03F6  
                                    l2502 03F0                                      l2430 04DE  
                                    l2422 0505                                      l2414 0447  
                                    l2406 043E                                      l2512 0403  
                                    l2520 0451                                      l2600 0095  
                                    l2440 04E5                                      l2432 04DF  
                                    l2424 0506                                      l2416 0448  
                                    l2408 0440                                      l2514 040E  
                                    l2530 0465                                      l2522 0453  
                                    l2610 00AB                                      l2602 0097  
                                    l2450 04F0                                      l2442 04E8  
                                    l2434 04E1                                      l2418 044A  
                                    l2426 0539                                      l2516 0411  
                                    l2508 03F2                                      l2540 03D2  
                                    l2524 0457                                      l2532 053D  
                                    l2700 015A                                      l2620 00BF  
                                    l2612 00AD                                      l2604 009F  
                                    l2460 0512                                      l2452 04F1  
                                    l2444 04EB                                      l2436 04E3  
                                    l2428 04DB                                      l2550 03E0  
                                    l2542 03D4                                      l2390 046E  
                                    l2526 045D                                      l2518 044D  
                                    l2710 016B                                      l2702 015C  
                                    l2630 00D0                                      l2622 00C3  
                                    l2614 00AF                                      l2606 00A3  
                                    l2462 0513                                      l2454 04F2  
                                    l2446 04EC                                      l2438 04E4  
                                    l2382 0533                                      l2470 051C  
                                    l2534 0415                                      l2560 03EC  
                                    l2552 03E1                                      l2544 03D6  
                                    l2536 03C0                                      l2392 0478  
                                    l2384 0467                                      l2528 0462  
                                    l2720 017C                                      l2712 016F  
                                    l2640 00E2                                      l2632 00D4  
                                    l2624 00C5                                      l2616 00B7  
                                    l2608 00A7                                      l2464 0515  
                                    l2456 050E                                      l2448 04EE  
                                    l2480 04D3                                      l2472 051D  
                                    l2800 02BA                                      l2562 03EE  
                                    l2554 03E3                                      l2546 03DC  
                                    l2538 03C7                                      l2394 047E  
                                    l2730 018E                                      l2722 0180  
                                    l2714 0171                                      l2706 0163  
                                    l2650 00F8                                      l2642 00E6  
                                    l2634 00D8                                      l2618 00BB  
                                    l2570 0054                                      l2458 0511  
                                    l2490 04A3                                      l2482 0498  
                                    l2474 04CE                                      l2466 0518  
                                    l2810 02CA                                      l2802 02BD  
                                    l2548 03DD                                      l2556 03E5  
                                    l2740 01A4                                      l2732 0192  
                                    l2724 0184                                      l2708 0167  
                                    l2652 00FC                                      l2644 00EA  
                                    l2636 00DB                                      l2628 00CC  
                                    l2580 0063                                      l2564 0046  
                                    l2396 0431                                      l2492 04A4  
                                    l2484 049D                                      l2476 04D1  
                                    l2468 051B                                      l2820 02E3  
                                    l2812 02CF                                      l2804 02BF  
                                    l2558 03E6                                      l2494 0520  
                                    l2742 01A8                                      l2734 0196  
                                    l2726 0187                                      l2718 0178  
                                    l2670 011D                                      l2662 010E  
                                    l2654 0100                                      l2646 00EE  
                                    l2590 007E                                      l2582 0070  
                                    l2574 005B                                      l2566 004D  
                                    l2398 0435                                      l2486 04A0  
                                    l2478 04D2                                      l2822 02E8  
                                    l2814 02D4                                      l2806 02C5  
                                    l2496 0523                                      l2760 01C9  
                                    l2752 01BA                                      l2744 01AC  
                                    l2736 019A                                      l2680 0132  
                                    l2672 0124                                      l2664 0112  
                                    l2656 0104                                      l2648 00F1  
                                    l2592 0087                                      l2584 0074  
                                    l2488 04A2                                      l2824 02ED  
                                    l2816 02D9                                      l2840 0366  
                                    l2498 0524                                      l2770 01D3  
                                    l2754 01BE                                      l2746 01B0  
                                    l2738 019D                                      l2690 0147  
                                    l2682 0139                                      l2674 0128  
                                    l2666 0116                                      l2658 0107  
                                    l2594 008B                                      l2762 01CC  
                                    l2586 0078                                      l2578 0062  
                                    l2826 02F2                                      l2818 02DE  
                                    l2850 0371                                      l2842 0367  
                                    l2772 01D7                                      l2756 01C2  
                                    l2748 01B3                                      l2684 013D  
                                    l2676 012C                                      l2668 011A  
                                    l2596 008F                                      l2588 007C  
                                    l2780 0399                                      l2828 02F4  
                                    l2836 02F7                                      l2860 0383  
                                    l2852 0377                                      l2844 0368  
                                    l2758 01C6                                      l2694 014E  
                                    l2686 0141                                      l2678 0130  
                                    l2598 0093                                      l2790 03BC  
                                    l2782 03A0                                      l2774 038F  
                                    l2862 0385                                      l2854 037C  
                                    l2846 036B                                      l2838 035B  
                                    l2768 01CE                                      l2696 0152  
                                    l2688 0145                                      l2784 03A7  
                                    l2776 0394                                      l2792 02AA  
                                    l2864 0386                                      l2856 037E  
                                    l2848 036E                                      l2698 0156  
                                    l2786 03AE                                      l2778 0395  
                                    l2794 02B0                                      l2866 0389  
                                    l2858 0382                                      l2788 03B5  
                                    l2796 02B2                                      l2798 02B8  
                                    u3000 01BA                                      u3001 01B9  
                                    u3010 01BE                                      u3011 01BD  
                                    u2300 0451                                      u3020 01C2  
                                    u3100 03BC                                      u2301 0450  
                                    u3021 01C1                                      u3101 03BB  
                                    _LATA 010C                                      u2310 045D  
                                    u3030 01C6                                      u3110 02B0  
                                    _LATB 010D                                      u2311 045C  
                                    u3031 01C5                                      u3111 02AF  
                                    _LATC 010E                                      u2320 03C7  
                                    u3040 01DD                                      u2400 0070  
                                    u3120 02B8                                      u2321 03C6  
                                    u3041 01DC                                      u2401 006F  
                                    u3121 02B7                                      _LATE 0110  
                                    u2330 03CD                                      u2410 0074  
                                    u3050 0399                                      u3130 02C5  
                                    u2331 03CC                                      u2411 0073  
                                    u3051 0398                                      u3131 02C4  
                                    u2340 03DC                                      u2260 046D  
                                    u2500 00A7                                      u2420 0078  
                                    u3060 03A0                                      u3140 0377  
                                    u2341 03DB                                      u2261 046C  
                                    u2501 00A6                                      u2421 0077  
                                    u3061 039F                                      u3141 0376  
                                    u2350 03EC                                      u2270 047E  
                                    u2510 00AB                                      u2430 007C  
                                    u3070 03A7                                      u3150 037C  
                                    u2351 03EB                                      u2271 047D  
                                    u2511 00AA                                      u2431 007B  
                                    u3071 03A6                                      u3151 037B  
                                    u2600 00E2                                      u2520 00B7  
                                    u2440 0087                                      u2360 0053  
                                    u2280 050D                                      u3080 03AE  
                                    u2601 00E1                                      u2521 00B6  
                                    u2441 0086                                      u2361 0052  
                                    u2281 050C                                      u3081 03AD  
                                    u2290 040E                                      u2610 00E6  
                                    u2530 00BB                                      u2450 008B  
                                    u2370 005A                                      u3090 03B5  
                                    u2291 040D                                      u2611 00E5  
                                    u2531 00BA                                      u2451 008A  
                                    u2371 0059                                      u3091 03B4  
                                    u2700 0116                                      u2620 00EA  
                                    u2540 00BF                                      u2460 008F  
                                    u2380 0061                                      u2701 0115  
                                    u2621 00E9                                      u2541 00BE  
                                    u2461 008E                                      u2381 0060  
                                    u2710 011A                                      u2630 00EE  
                                    u2550 00C3                                      u2470 0093  
                                    u2390 0067                                      u3167 03FC  
                                    u2711 0119                                      u2631 00ED  
                                    u2551 00C2                                      u2471 0092  
                                    u2391 0066                                      u2800 014E  
                                    u2720 0124                                      u2640 00F8  
                                    u2560 00CC                                      u2480 009F  
                                    u2801 014D                                      u2721 0123  
                                    u2641 00F7                                      u2561 00CB  
                                    u2481 009E                                      u2810 0152  
                                    u2730 0128                                      u2650 00FC  
                                    u2570 00D0                                      u2490 00A3  
                                    u2811 0151                                      u2731 0127  
                                    u2651 00FB                                      u2571 00CF  
                                    u2491 00A2                                      u2900 0180  
                                    u2820 0156                                      u2740 012C  
                                    u2660 0100                                      u2580 00D4  
                                    u2901 017F                                      u2821 0155  
                                    u2741 012B                                      u2661 00FF  
                                    u2581 00D3                                      u2910 0184  
                                    u2830 015A                                      u2750 0130  
                                    u2670 0104                                      u2590 00D8  
                                    u2911 0183                                      u2831 0159  
                                    u2751 012F                                      u2671 0103  
                                    u2591 00D7                                      u2920 018E  
                                    u2840 0163                                      u2760 0139  
                                    u2680 010E                                      u2921 018D  
                                    u2841 0162                                      u2761 0138  
                                    u2681 010D                                      u2930 0192  
                                    u2850 0167                                      u2770 013D  
                                    u2690 0112                                      u2931 0191  
                                    u2851 0166                                      u2771 013C  
                                    u2691 0111                                      u2940 0196  
                                    u2860 016B                                      u2780 0141  
                                    u2941 0195                                      u2861 016A  
                                    u2781 0140                                      u2950 019A  
                                    u2870 016F                                      u2790 0145  
                                    u2951 0199                                      u2871 016E  
                                    u2791 0144                                      u2960 01A4  
                                    u2880 0178                                      u2961 01A3  
                                    u2881 0177                                      u2970 01A8  
                                    u2890 017C                                      u2971 01A7  
                                    u2891 017B                                      i1l60 0024  
                                    u2980 01AC                                      i1l61 0024  
                                    u2981 01AB                                      u2990 01B0  
                                    i1l55 0012                                      u2991 01AF  
                                    _PLLR 04D6                                      _TMR0 0015  
                                    _TMR2 001A                                      _WPUB 020D  
                                    _WPUE 0210                       ECCP3_CallBack@HI_us 003C  
                     ECCP3_CallBack@LO_us 003B                                      _main 035B  
                                    fsr0h 0005                                      fsr1h 0007  
                                    indf0 0000                                      fsr0l 0004  
                                    indf1 0001                                      fsr1l 0006  
                                    _step 0044                                      btemp 007E  
                     ECCP3_CallBack@fHead 0038                                      start 0026  
                 __end_of_TMR0_Initialize 04AC            ??_TMR0_DefaultInterruptHandler 0076  
           __end_of_OSCILLATOR_Initialize 050E                                     ?_main 0076  
                                   _T1CON 0018                                     _T2CON 001C  
                                   i1l234 04CD                                     i1l174 0497  
                                   i1l503 027A                                     i1l184 0541  
                                   i1l505 020F                                     i1l530 04BE  
                                   i1l178 0501                                     i1l507 0234  
                                   i1l516 024E                                     i1l509 0239  
                                   i1l518 026C                                     i1l526 02A9  
                                   i1l519 025E                             _DRL_Gradually 0467  
                __end_of_TMR0_EvenHandler 04BF                                     _TMR1H 0017  
                                   _TMR1L 0016                                     _TRISA 008C  
                                   _TRISB 008D                                     _TRISC 008E  
                                   _TRISE 0090                 ?_TMR0_SetInterruptHandler 0047  
              __end_of_Exception_handling 03F0                          __end_of_TMR0_ISR 0498  
                          _WDT_Initialize 0539                           ??_POS_Gradually 0047  
                 __end_of_TMR1_Initialize 04DB                                     pclath 000A  
                                   status 0003                                     wtemp0 007E  
            ECCP3_CallBack@pluse_width_HI 002D              ECCP3_CallBack@pluse_width_LO 002F  
                    __end_of_getFrameData 031B                           __initialization 0028  
                            __end_of_main 038F                   __end_of_TMR2_Initialize 0520  
             ?_INTERRUPT_InterruptManager 0076                                    ??_main 004C  
                          ?_DRL_Gradually 0076           ECCP3_CallBack@falling_edge_time 0070  
                  __end_of_WDT_Initialize 053D                                    _CCPR1H 0292  
                                  _CCPR2H 0299                                    _CCPR3H 0312  
                                  _CCPR1L 0291                                    _CCPR2L 0298  
                                  _CCPR3L 0311                                    _APFCON 011D  
                                  _ANSELA 018C                                    _ANSELB 018D  
                                  _BORCON 0116                                    _T1GCON 0019  
                                  i1l2010 0481                                    i1l2020 04C6  
                                  i1l2012 0491                                    i1l2014 0494  
                                  i1l2016 04BF                                    i1l2008 0480  
                                  i1l2018 04C1                                    u120_20 01E5  
                                  u120_21 01E4                                    i1l2340 000A  
                                  i1l2342 000E                                    u121_20 01F1  
                                  i1l2344 0016                                    u121_21 01F0  
                                  i1l1810 04BB                                    i1l2346 001B  
                                  i1l2338 0006                                    i1l1812 04BD  
                                  i1l2348 0020                                    i1l1806 04AC  
                                  u130_20 0281                                    u122_20 01FC  
                                  i1l1920 01EB                                    i1l1808 04B5  
                                  i1l1912 04F5                                    u130_21 0280  
                                  u122_21 01FB                                    i1l1930 0227  
                                  i1l1922 01F1                                    i1l1914 04FC  
                                  i1l1940 0244                                    i1l1932 022D  
                                  i1l1924 01F2                                    i1l1916 01DE  
                                  u122_25 01F8                                    i1l1950 0270  
                                  i1l1942 0245                                    i1l1934 0231  
                                  i1l1926 01FC                                    i1l1918 01E5  
                                  i1l1960 0294                                    u131_20 0294  
                                  i1l1952 0276                                    i1l1936 023B  
                                  i1l1944 0248                                    u123_20 022D  
                                  i1l1928 0203                                    _DRL_ON 044D  
                                  u131_21 0293                                    u123_21 022C  
                                  i1l1962 029B                                    i1l1954 0277  
                                  i1l1946 0250                                    i1l1938 0242  
                                  i1l1964 02A7                                    i1l1948 0260  
                                  i1l1956 027B                                    u131_25 0290  
                                  i1l1958 0281                                    u124_20 0239  
                                  u220_20 000E                                    u124_21 0238  
                                  u220_21 000D                                    u125_20 0242  
                                  u117_20 04BB                                    u221_20 0016  
                                  u125_21 0241                                    u117_21 04BA  
                                  u221_21 0015                                    u126_20 024E  
                                  u222_20 001B                                    u126_21 024D  
                                  u222_21 001A                                    u119_20 04FC  
                                  u135_20 0491                                    u223_20 0020  
                                  u119_21 04FB                                    u135_21 0490  
                                  u223_21 001F                                    u127_24 0256  
                                  u127_25 0255                                    u128_24 0266  
                                  u128_25 0265                                    u129_20 0276  
                                  u129_21 0275                                    u219_20 000A  
                                  u219_21 0009                                    _OSCCON 0099  
                                  _TMR2IF 0089                                    _WDTCON 0097  
                                  _POS_ON 053D                               LED_output@i 004B  
                            _CCPTMRS0bits 029E            ECCP3_CallBack@rising_edge_time 002B  
                                  _csFlag 0072                          ?_TMR0_Initialize 0076  
                          POS_Gradually@i 0049                         ?_ECCP3_CaptureISR 0076  
                         ?_WDT_Initialize 0076                        ??_ECCP3_CaptureISR 007A  
                              _fException 0040                     __end_of_TMR0_CallBack 0502  
TMR0_SetInterruptHandler@InterruptHandler 0047                     ECCP3_CallBack@diff_us 003A  
                        ?_TMR1_Initialize 0076                         _SYSTEM_Initialize 0415  
                 __end_of__initialization 0042                         __end_of_LoBeam_ON 0527  
                      ?_SYSTEM_Initialize 0076                         ?_EPWM1_Initialize 0076  
                          __pcstackCOMMON 0076                              __pidataBANK1 031B  
                     ??_SYSTEM_Initialize 0049                                 ?_TMR0_ISR 0076  
                      ??_EPWM1_Initialize 0047                           ??_DRL_Gradually 0047  
                        ?_TMR2_Initialize 0076                            _OPTION_REGbits 0095  
                   TMR0_ISR@CountCallBack 0031                         ?_EPWM2_Initialize 0076  
                            ??_LED_output 0049                 __end_of_SYSTEM_Initialize 0431  
                       ?_ECCP3_Initialize 0076                        ??_EPWM2_Initialize 0047  
                              __pbssBANK0 0020                                   ?_DRL_ON 0076  
                      ??_ECCP3_Initialize 0047                                   ?_POS_ON 0076  
                              __pmaintext 035B          __end_of_TMR0_SetInterruptHandler 0539  
                              ??_TMR0_ISR 0077                                __pintentry 0004  
                                 _CCP1CON 0293                                   _CCP2CON 029A  
                                 _CCP3CON 0313                                   _ECCP1AS 0295  
                                 _ECCP2AS 029C                        __end_of_LED_output 01DE  
                            _getFrameData 02AA                         ?_TMR0_EvenHandler 0076  
                                 _OSCTUNE 0098                                   _PWM1CON 0294  
                                 _PWM2CON 029B                        ??_TMR0_EvenHandler 0076  
                      _Exception_handling 03C0                                 _T10MS_CNT 0042  
                     ?_Exception_handling 0076                            _ECCP3_CallBack 01DE  
                                 __ptext1 02AA                                   __ptext2 038F  
                                 __ptext3 0415                                   __ptext4 0539  
                                 __ptext5 0518                                   __ptext6 04CE  
                                 __ptext7 0498                                   __ptext8 0533  
                                 __ptext9 0431                                 _T1CONbits 0018  
                   _OSCILLATOR_Initialize 0502                                 _T2CONbits 001C  
                           ??_check_input 0047                    ECCP3_CaptureISR@module 007A  
                ??_PIN_MANAGER_Initialize 0047                             _data_1byte_OK 0046  
                                 _rx_data 0074                      ??_Exception_handling 004A  
                                 clrloop0 052E                      end_of_initialization 0042  
                   __end_of_POS_Gradually 0415                                   init_ram 0527  
                                 initloop 0528                               _fException2 003F  
                  __end_of_ECCP3_CallBack 02AA                    ECCP3_CallBack@data_cnt 0037  
                        ??_WDT_Initialize 0047                  _TMR0_SetInterruptHandler 0533  
                     __end_of_check_input 03C0                            __end_of_DRL_ON 0467  
                          __end_of_POS_ON 0541                                 _LoBeam_ON 0520  
                         ?_ECCP3_CallBack 0076                    ?_OSCILLATOR_Initialize 0076  
                     start_initialization 0028                            LED_output@crc8 004A  
                                ??_DRL_ON 0049                                  ??_POS_ON 0047  
                          _fPOS_Gradually 003D                                ?_LoBeam_ON 0076  
                               _fFrame_OK 0045                               __pdataBANK1 00A0  
                   __end_of_DRL_Gradually 0480                               __pbssCOMMON 0070  
                             _check_input 038F                                 ___latbits 0002  
                           __pcstackBANK0 0047                     _TMR0_InterruptHandler 0033  
                  _PIN_MANAGER_Initialize 0431              ??_INTERRUPT_InterruptManager 007C  
                           _TMR0_CallBack 04F5                         ??_TMR0_Initialize 0049  
                        _ECCP3_CaptureISR 04BF                                  _LATAbits 010C  
                                _LATBbits 010D                                  _LATCbits 010E  
                               clear_ram0 052D                                  _PIE3bits 0093  
              ??_TMR0_SetInterruptHandler 0049                                  _PIR1bits 0011  
                                _PIR3bits 0013                               ??_LoBeam_ON 0047  
                                _TMR0_ISR 0480                                  _PSTR1CON 0296  
                                _PSTR2CON 029D                         ??_TMR1_Initialize 0047  
                        _EPWM1_Initialize 04E8                            _fDRL_Gradually 003E  
                          ?_TMR0_CallBack 0076                         ??_TMR2_Initialize 0047  
                        ??_ECCP3_CallBack 0078                          _EPWM2_Initialize 04DB  
                              _T10MS_CNT1 0041                          _ECCP3_Initialize 050E  
                 ??_OSCILLATOR_Initialize 0047               ECCP3_CallBack@capturedValue 0076  
            ECCP3_CallBack@rise_edge_flag 0039                                  _data_buf 0020  
                                __ptext10 0502                                  __ptext11 04DB  
                                __ptext20 03F0                                  __ptext12 04E8  
                                __ptext13 050E                                _T1GCONbits 0019  
                                __ptext22 0480                                  __ptext14 0046  
                                __ptext23 04F5                                  __ptext15 053D  
                                __ptext24 0541                                  __ptext16 0520  
                                __ptext25 04AC                                  __ptext17 044D  
                                __ptext26 04BF                                  __ptext18 0467  
                                __ptext27 01DE                                  __ptext19 03C0  
                        _TMR0_EvenHandler 04AC      __end_of_TMR0_DefaultInterruptHandler 0542  
            _TMR0_DefaultInterruptHandler 0541                                  int$flags 007E  
      __end_of_INTERRUPT_InterruptManager 0026                _INTERRUPT_InterruptManager 0004  
                           ?_getFrameData 0076                                _INTCONbits 000B  
                            ?_check_input 0076                           ??_TMR0_CallBack 0077  
                          DRL_Gradually@i 0048                                _LED_output 0046  
                                intlevel1 0000                   ?_PIN_MANAGER_Initialize 0076  
                           _POS_Gradually 03F0             ?_TMR0_DefaultInterruptHandler 0076  
                          ??_getFrameData 0047                  __end_of_ECCP3_CaptureISR 04CE  
                              _OPTION_REG 0095                           _TMR0_Initialize 0498  
          __end_of_PIN_MANAGER_Initialize 044D                            ?_POS_Gradually 0076  
                         _TMR1_Initialize 04CE                  __end_of_EPWM1_Initialize 04F5  
