

Microchip MPLAB XC8 Assembler V2.46 build 20240104201356 
                                                                                               Fri Mar 06 07:50:30 2026

Microchip MPLAB XC8 C Compiler v2.46 (Free license) build 20240104201356 Og1 
     1                           	processor	16F1936
     2                           	pagewidth 120
     3                           	opt	flic
     4                           	psect	stringtext1,global,class=STRCODE,delta=2,noexec
     5                           	psect	cinit,global,class=CODE,merge=1,delta=2
     6                           	psect	bssCOMMON,global,class=COMMON,space=1,delta=1,noexec
     7                           	psect	bssBANK0,global,class=BANK0,space=1,delta=1,noexec
     8                           	psect	clrtext,global,class=CODE,delta=2
     9                           	psect	cstackCOMMON,global,class=COMMON,space=1,delta=1,noexec
    10                           	psect	cstackBANK0,global,class=BANK0,space=1,delta=1,noexec
    11                           	psect	maintext,global,class=CODE,merge=1,split=1,delta=2
    12                           	psect	text1,local,class=CODE,merge=1,delta=2
    13                           	psect	text2,local,class=CODE,merge=1,delta=2
    14                           	psect	text3,local,class=CODE,merge=1,delta=2
    15                           	psect	text4,local,class=CODE,merge=1,delta=2
    16                           	psect	text5,local,class=CODE,merge=1,delta=2
    17                           	psect	text6,local,class=CODE,merge=1,delta=2
    18                           	psect	text7,local,class=CODE,merge=1,delta=2
    19                           	psect	text8,local,class=CODE,merge=1,delta=2
    20                           	psect	text9,local,class=CODE,merge=1,delta=2
    21                           	psect	text10,local,class=CODE,merge=1,delta=2
    22                           	psect	text11,local,class=CODE,merge=1,delta=2
    23                           	psect	text12,local,class=CODE,merge=1,delta=2
    24                           	psect	text13,local,class=CODE,merge=1,delta=2
    25                           	psect	text14,local,class=CODE,merge=1,delta=2
    26                           	psect	text15,local,class=CODE,merge=1,delta=2
    27                           	psect	text16,local,class=CODE,merge=1,delta=2
    28                           	psect	text17,local,class=CODE,merge=1,delta=2
    29                           	psect	text18,local,class=CODE,merge=1,delta=2
    30                           	psect	text19,local,class=CODE,merge=1,delta=2
    31                           	psect	text20,local,class=CODE,merge=1,delta=2
    32                           	psect	text21,local,class=CODE,merge=1,delta=2
    33                           	psect	text22,local,class=CODE,merge=1,delta=2
    34                           	psect	text23,local,class=CODE,merge=1,delta=2
    35                           	psect	text24,local,class=CODE,merge=1,delta=2
    36                           	psect	text25,local,class=CODE,merge=1,delta=2
    37                           	psect	text26,local,class=CODE,merge=1,delta=2
    38                           	psect	text27,local,class=CODE,merge=1,delta=2
    39                           	psect	text28,local,class=CODE,merge=1,delta=2
    40                           	psect	text29,local,class=CODE,merge=1,delta=2
    41                           	psect	text30,local,class=CODE,merge=1,delta=2
    42                           	psect	text31,local,class=CODE,merge=1,delta=2
    43                           	psect	text32,local,class=CODE,merge=1,delta=2
    44                           	psect	text33,local,class=CODE,merge=1,delta=2
    45                           	psect	text34,local,class=CODE,merge=1,delta=2
    46                           	psect	text35,local,class=CODE,merge=1,delta=2
    47                           	psect	text36,local,class=CODE,merge=1,delta=2
    48                           	psect	text37,local,class=CODE,merge=1,delta=2
    49                           	psect	text38,local,class=CODE,merge=1,delta=2
    50                           	psect	text39,local,class=CODE,merge=1,delta=2
    51                           	psect	text40,local,class=CODE,merge=1,delta=2
    52                           	psect	text41,local,class=CODE,merge=1,delta=2
    53                           	psect	text42,local,class=CODE,merge=1,delta=2
    54                           	psect	text43,local,class=CODE,merge=1,delta=2
    55                           	psect	text44,local,class=CODE,merge=1,delta=2
    56                           	psect	text45,local,class=CODE,merge=1,delta=2
    57                           	psect	text46,local,class=CODE,merge=1,delta=2
    58                           	psect	text47,local,class=CODE,merge=1,delta=2
    59                           	psect	text48,local,class=CODE,merge=1,delta=2
    60                           	psect	text49,local,class=CODE,merge=1,delta=2
    61                           	psect	text50,local,class=CODE,merge=1,delta=2
    62                           	psect	text51,local,class=CODE,merge=1,delta=2
    63                           	psect	intentry,global,class=CODE,delta=2
    64                           	psect	text53,local,class=CODE,merge=1,delta=2
    65                           	psect	text54,local,class=CODE,merge=1,delta=2
    66                           	psect	text55,local,class=CODE,merge=1,delta=2
    67                           	psect	text56,local,class=CODE,merge=1,delta=2
    68                           	psect	text57,local,class=CODE,merge=1,delta=2
    69                           	psect	text58,local,class=CODE,merge=1,delta=2
    70                           	psect	config,global,abs,ovrld,class=CONFIG,space=4,delta=2,noexec
    71                           	dabs	1,0x7E,2
    72     0000                     
    73                           ; Version 2.20
    74                           ; Generated 12/02/2020 GMT
    75                           ; 
    76                           ; Copyright © 2020, Microchip Technology Inc. and its subsidiaries ("Microchip")
    77                           ; All rights reserved.
    78                           ; 
    79                           ; This software is developed by Microchip Technology Inc. and its subsidiaries ("Microch
      +                          ip").
    80                           ; 
    81                           ; Redistribution and use in source and binary forms, with or without modification, are
    82                           ; permitted provided that the following conditions are met:
    83                           ; 
    84                           ;     1. Redistributions of source code must retain the above copyright notice, this lis
      +                          t of
    85                           ;        conditions and the following disclaimer.
    86                           ; 
    87                           ;     2. Redistributions in binary form must reproduce the above copyright notice, this 
      +                          list
    88                           ;        of conditions and the following disclaimer in the documentation and/or other
    89                           ;        materials provided with the distribution.
    90                           ; 
    91                           ;     3. Microchip's name may not be used to endorse or promote products derived from th
      +                          is
    92                           ;        software without specific prior written permission.
    93                           ; 
    94                           ; THIS SOFTWARE IS PROVIDED BY MICROCHIP "AS IS" AND ANY EXPRESS OR IMPLIED WARRANTIES,
    95                           ; INCLUDING, BUT NOT LIMITED TO, THE IMPLIED WARRANTIES OF MERCHANTABILITY AND FITNESS F
      +                          OR
    96                           ; PURPOSE ARE DISCLAIMED.  IN NO EVENT SHALL MICROCHIP BE LIABLE FOR ANY DIRECT, INDIREC
      +                          T,
    97                           ; INCIDENTAL, SPECIAL, EXEMPLARY, OR CONSEQUENTIAL DAMAGES (INCLUDING BUT NOT LIMITED TO
    98                           ; PROCUREMENT OF SUBSTITUTE GOODS OR SERVICES; LOSS OF USE, DATA OR PROFITS; OR BUSINESS
    99                           ; INTERRUPTION) HOWSOEVER CAUSED AND ON ANY THEORY OF LIABILITY, WHETHER IN CONTRACT, ST
      +                          RICT
   100                           ; LIABILITY, OR TORT (INCLUDING NEGLIGENCE OR OTHERWISE) ARISING IN ANY WAY OUT OF THE U
      +                          SE OF
   101                           ; THIS SOFTWARE, EVEN IF ADVISED OF THE POSSIBILITY OF SUCH DAMAGE.
   102                           ; 
   103                           ; 
   104                           ; Code-generator required, PIC16F1936 Definitions
   105                           ; 
   106                           ; SFR Addresses
   107     0000                     	;# 
   108     0001                     	;# 
   109     0002                     	;# 
   110     0003                     	;# 
   111     0004                     	;# 
   112     0005                     	;# 
   113     0006                     	;# 
   114     0007                     	;# 
   115     0008                     	;# 
   116     0009                     	;# 
   117     000A                     	;# 
   118     000B                     	;# 
   119     000C                     	;# 
   120     000D                     	;# 
   121     000E                     	;# 
   122     0010                     	;# 
   123     0011                     	;# 
   124     0012                     	;# 
   125     0013                     	;# 
   126     0015                     	;# 
   127     0016                     	;# 
   128     0016                     	;# 
   129     0017                     	;# 
   130     0018                     	;# 
   131     0019                     	;# 
   132     001A                     	;# 
   133     001B                     	;# 
   134     001C                     	;# 
   135     001E                     	;# 
   136     001F                     	;# 
   137     008C                     	;# 
   138     008D                     	;# 
   139     008E                     	;# 
   140     0090                     	;# 
   141     0091                     	;# 
   142     0092                     	;# 
   143     0093                     	;# 
   144     0095                     	;# 
   145     0096                     	;# 
   146     0097                     	;# 
   147     0098                     	;# 
   148     0099                     	;# 
   149     009A                     	;# 
   150     009B                     	;# 
   151     009B                     	;# 
   152     009C                     	;# 
   153     009D                     	;# 
   154     009E                     	;# 
   155     010C                     	;# 
   156     010D                     	;# 
   157     010E                     	;# 
   158     0110                     	;# 
   159     0111                     	;# 
   160     0112                     	;# 
   161     0113                     	;# 
   162     0114                     	;# 
   163     0115                     	;# 
   164     0116                     	;# 
   165     0117                     	;# 
   166     0118                     	;# 
   167     0119                     	;# 
   168     011A                     	;# 
   169     011B                     	;# 
   170     011D                     	;# 
   171     018C                     	;# 
   172     018D                     	;# 
   173     0191                     	;# 
   174     0191                     	;# 
   175     0192                     	;# 
   176     0193                     	;# 
   177     0193                     	;# 
   178     0193                     	;# 
   179     0194                     	;# 
   180     0195                     	;# 
   181     0196                     	;# 
   182     0199                     	;# 
   183     019A                     	;# 
   184     019B                     	;# 
   185     019B                     	;# 
   186     019B                     	;# 
   187     019B                     	;# 
   188     019C                     	;# 
   189     019C                     	;# 
   190     019D                     	;# 
   191     019E                     	;# 
   192     019F                     	;# 
   193     020D                     	;# 
   194     0210                     	;# 
   195     0211                     	;# 
   196     0212                     	;# 
   197     0213                     	;# 
   198     0214                     	;# 
   199     0215                     	;# 
   200     0215                     	;# 
   201     0216                     	;# 
   202     0217                     	;# 
   203     0291                     	;# 
   204     0291                     	;# 
   205     0292                     	;# 
   206     0293                     	;# 
   207     0294                     	;# 
   208     0295                     	;# 
   209     0295                     	;# 
   210     0296                     	;# 
   211     0298                     	;# 
   212     0298                     	;# 
   213     0299                     	;# 
   214     029A                     	;# 
   215     029B                     	;# 
   216     029C                     	;# 
   217     029C                     	;# 
   218     029D                     	;# 
   219     029E                     	;# 
   220     029F                     	;# 
   221     0311                     	;# 
   222     0311                     	;# 
   223     0312                     	;# 
   224     0313                     	;# 
   225     0314                     	;# 
   226     0315                     	;# 
   227     0315                     	;# 
   228     0316                     	;# 
   229     0318                     	;# 
   230     0318                     	;# 
   231     0319                     	;# 
   232     031A                     	;# 
   233     031C                     	;# 
   234     031C                     	;# 
   235     031D                     	;# 
   236     031E                     	;# 
   237     0394                     	;# 
   238     0395                     	;# 
   239     0396                     	;# 
   240     0415                     	;# 
   241     0416                     	;# 
   242     0417                     	;# 
   243     041C                     	;# 
   244     041D                     	;# 
   245     041E                     	;# 
   246     0791                     	;# 
   247     0792                     	;# 
   248     0793                     	;# 
   249     0794                     	;# 
   250     0795                     	;# 
   251     0798                     	;# 
   252     0799                     	;# 
   253     07A0                     	;# 
   254     07A1                     	;# 
   255     07A3                     	;# 
   256     07A4                     	;# 
   257     07A6                     	;# 
   258     07A7                     	;# 
   259     07A9                     	;# 
   260     07AA                     	;# 
   261     0FE4                     	;# 
   262     0FE5                     	;# 
   263     0FE6                     	;# 
   264     0FE7                     	;# 
   265     0FE8                     	;# 
   266     0FE9                     	;# 
   267     0FEA                     	;# 
   268     0FEB                     	;# 
   269     0FED                     	;# 
   270     0FEE                     	;# 
   271     0FEF                     	;# 
   272     0000                     	;# 
   273     0001                     	;# 
   274     0002                     	;# 
   275     0003                     	;# 
   276     0004                     	;# 
   277     0005                     	;# 
   278     0006                     	;# 
   279     0007                     	;# 
   280     0008                     	;# 
   281     0009                     	;# 
   282     000A                     	;# 
   283     000B                     	;# 
   284     000C                     	;# 
   285     000D                     	;# 
   286     000E                     	;# 
   287     0010                     	;# 
   288     0011                     	;# 
   289     0012                     	;# 
   290     0013                     	;# 
   291     0015                     	;# 
   292     0016                     	;# 
   293     0016                     	;# 
   294     0017                     	;# 
   295     0018                     	;# 
   296     0019                     	;# 
   297     001A                     	;# 
   298     001B                     	;# 
   299     001C                     	;# 
   300     001E                     	;# 
   301     001F                     	;# 
   302     008C                     	;# 
   303     008D                     	;# 
   304     008E                     	;# 
   305     0090                     	;# 
   306     0091                     	;# 
   307     0092                     	;# 
   308     0093                     	;# 
   309     0095                     	;# 
   310     0096                     	;# 
   311     0097                     	;# 
   312     0098                     	;# 
   313     0099                     	;# 
   314     009A                     	;# 
   315     009B                     	;# 
   316     009B                     	;# 
   317     009C                     	;# 
   318     009D                     	;# 
   319     009E                     	;# 
   320     010C                     	;# 
   321     010D                     	;# 
   322     010E                     	;# 
   323     0110                     	;# 
   324     0111                     	;# 
   325     0112                     	;# 
   326     0113                     	;# 
   327     0114                     	;# 
   328     0115                     	;# 
   329     0116                     	;# 
   330     0117                     	;# 
   331     0118                     	;# 
   332     0119                     	;# 
   333     011A                     	;# 
   334     011B                     	;# 
   335     011D                     	;# 
   336     018C                     	;# 
   337     018D                     	;# 
   338     0191                     	;# 
   339     0191                     	;# 
   340     0192                     	;# 
   341     0193                     	;# 
   342     0193                     	;# 
   343     0193                     	;# 
   344     0194                     	;# 
   345     0195                     	;# 
   346     0196                     	;# 
   347     0199                     	;# 
   348     019A                     	;# 
   349     019B                     	;# 
   350     019B                     	;# 
   351     019B                     	;# 
   352     019B                     	;# 
   353     019C                     	;# 
   354     019C                     	;# 
   355     019D                     	;# 
   356     019E                     	;# 
   357     019F                     	;# 
   358     020D                     	;# 
   359     0210                     	;# 
   360     0211                     	;# 
   361     0212                     	;# 
   362     0213                     	;# 
   363     0214                     	;# 
   364     0215                     	;# 
   365     0215                     	;# 
   366     0216                     	;# 
   367     0217                     	;# 
   368     0291                     	;# 
   369     0291                     	;# 
   370     0292                     	;# 
   371     0293                     	;# 
   372     0294                     	;# 
   373     0295                     	;# 
   374     0295                     	;# 
   375     0296                     	;# 
   376     0298                     	;# 
   377     0298                     	;# 
   378     0299                     	;# 
   379     029A                     	;# 
   380     029B                     	;# 
   381     029C                     	;# 
   382     029C                     	;# 
   383     029D                     	;# 
   384     029E                     	;# 
   385     029F                     	;# 
   386     0311                     	;# 
   387     0311                     	;# 
   388     0312                     	;# 
   389     0313                     	;# 
   390     0314                     	;# 
   391     0315                     	;# 
   392     0315                     	;# 
   393     0316                     	;# 
   394     0318                     	;# 
   395     0318                     	;# 
   396     0319                     	;# 
   397     031A                     	;# 
   398     031C                     	;# 
   399     031C                     	;# 
   400     031D                     	;# 
   401     031E                     	;# 
   402     0394                     	;# 
   403     0395                     	;# 
   404     0396                     	;# 
   405     0415                     	;# 
   406     0416                     	;# 
   407     0417                     	;# 
   408     041C                     	;# 
   409     041D                     	;# 
   410     041E                     	;# 
   411     0791                     	;# 
   412     0792                     	;# 
   413     0793                     	;# 
   414     0794                     	;# 
   415     0795                     	;# 
   416     0798                     	;# 
   417     0799                     	;# 
   418     07A0                     	;# 
   419     07A1                     	;# 
   420     07A3                     	;# 
   421     07A4                     	;# 
   422     07A6                     	;# 
   423     07A7                     	;# 
   424     07A9                     	;# 
   425     07AA                     	;# 
   426     0FE4                     	;# 
   427     0FE5                     	;# 
   428     0FE6                     	;# 
   429     0FE7                     	;# 
   430     0FE8                     	;# 
   431     0FE9                     	;# 
   432     0FEA                     	;# 
   433     0FEB                     	;# 
   434     0FED                     	;# 
   435     0FEE                     	;# 
   436     0FEF                     	;# 
   437     0000                     	;# 
   438     0001                     	;# 
   439     0002                     	;# 
   440     0003                     	;# 
   441     0004                     	;# 
   442     0005                     	;# 
   443     0006                     	;# 
   444     0007                     	;# 
   445     0008                     	;# 
   446     0009                     	;# 
   447     000A                     	;# 
   448     000B                     	;# 
   449     000C                     	;# 
   450     000D                     	;# 
   451     000E                     	;# 
   452     0010                     	;# 
   453     0011                     	;# 
   454     0012                     	;# 
   455     0013                     	;# 
   456     0015                     	;# 
   457     0016                     	;# 
   458     0016                     	;# 
   459     0017                     	;# 
   460     0018                     	;# 
   461     0019                     	;# 
   462     001A                     	;# 
   463     001B                     	;# 
   464     001C                     	;# 
   465     001E                     	;# 
   466     001F                     	;# 
   467     008C                     	;# 
   468     008D                     	;# 
   469     008E                     	;# 
   470     0090                     	;# 
   471     0091                     	;# 
   472     0092                     	;# 
   473     0093                     	;# 
   474     0095                     	;# 
   475     0096                     	;# 
   476     0097                     	;# 
   477     0098                     	;# 
   478     0099                     	;# 
   479     009A                     	;# 
   480     009B                     	;# 
   481     009B                     	;# 
   482     009C                     	;# 
   483     009D                     	;# 
   484     009E                     	;# 
   485     010C                     	;# 
   486     010D                     	;# 
   487     010E                     	;# 
   488     0110                     	;# 
   489     0111                     	;# 
   490     0112                     	;# 
   491     0113                     	;# 
   492     0114                     	;# 
   493     0115                     	;# 
   494     0116                     	;# 
   495     0117                     	;# 
   496     0118                     	;# 
   497     0119                     	;# 
   498     011A                     	;# 
   499     011B                     	;# 
   500     011D                     	;# 
   501     018C                     	;# 
   502     018D                     	;# 
   503     0191                     	;# 
   504     0191                     	;# 
   505     0192                     	;# 
   506     0193                     	;# 
   507     0193                     	;# 
   508     0193                     	;# 
   509     0194                     	;# 
   510     0195                     	;# 
   511     0196                     	;# 
   512     0199                     	;# 
   513     019A                     	;# 
   514     019B                     	;# 
   515     019B                     	;# 
   516     019B                     	;# 
   517     019B                     	;# 
   518     019C                     	;# 
   519     019C                     	;# 
   520     019D                     	;# 
   521     019E                     	;# 
   522     019F                     	;# 
   523     020D                     	;# 
   524     0210                     	;# 
   525     0211                     	;# 
   526     0212                     	;# 
   527     0213                     	;# 
   528     0214                     	;# 
   529     0215                     	;# 
   530     0215                     	;# 
   531     0216                     	;# 
   532     0217                     	;# 
   533     0291                     	;# 
   534     0291                     	;# 
   535     0292                     	;# 
   536     0293                     	;# 
   537     0294                     	;# 
   538     0295                     	;# 
   539     0295                     	;# 
   540     0296                     	;# 
   541     0298                     	;# 
   542     0298                     	;# 
   543     0299                     	;# 
   544     029A                     	;# 
   545     029B                     	;# 
   546     029C                     	;# 
   547     029C                     	;# 
   548     029D                     	;# 
   549     029E                     	;# 
   550     029F                     	;# 
   551     0311                     	;# 
   552     0311                     	;# 
   553     0312                     	;# 
   554     0313                     	;# 
   555     0314                     	;# 
   556     0315                     	;# 
   557     0315                     	;# 
   558     0316                     	;# 
   559     0318                     	;# 
   560     0318                     	;# 
   561     0319                     	;# 
   562     031A                     	;# 
   563     031C                     	;# 
   564     031C                     	;# 
   565     031D                     	;# 
   566     031E                     	;# 
   567     0394                     	;# 
   568     0395                     	;# 
   569     0396                     	;# 
   570     0415                     	;# 
   571     0416                     	;# 
   572     0417                     	;# 
   573     041C                     	;# 
   574     041D                     	;# 
   575     041E                     	;# 
   576     0791                     	;# 
   577     0792                     	;# 
   578     0793                     	;# 
   579     0794                     	;# 
   580     0795                     	;# 
   581     0798                     	;# 
   582     0799                     	;# 
   583     07A0                     	;# 
   584     07A1                     	;# 
   585     07A3                     	;# 
   586     07A4                     	;# 
   587     07A6                     	;# 
   588     07A7                     	;# 
   589     07A9                     	;# 
   590     07AA                     	;# 
   591     0FE4                     	;# 
   592     0FE5                     	;# 
   593     0FE6                     	;# 
   594     0FE7                     	;# 
   595     0FE8                     	;# 
   596     0FE9                     	;# 
   597     0FEA                     	;# 
   598     0FEB                     	;# 
   599     0FED                     	;# 
   600     0FEE                     	;# 
   601     0FEF                     	;# 
   602     0000                     	;# 
   603     0001                     	;# 
   604     0002                     	;# 
   605     0003                     	;# 
   606     0004                     	;# 
   607     0005                     	;# 
   608     0006                     	;# 
   609     0007                     	;# 
   610     0008                     	;# 
   611     0009                     	;# 
   612     000A                     	;# 
   613     000B                     	;# 
   614     000C                     	;# 
   615     000D                     	;# 
   616     000E                     	;# 
   617     0010                     	;# 
   618     0011                     	;# 
   619     0012                     	;# 
   620     0013                     	;# 
   621     0015                     	;# 
   622     0016                     	;# 
   623     0016                     	;# 
   624     0017                     	;# 
   625     0018                     	;# 
   626     0019                     	;# 
   627     001A                     	;# 
   628     001B                     	;# 
   629     001C                     	;# 
   630     001E                     	;# 
   631     001F                     	;# 
   632     008C                     	;# 
   633     008D                     	;# 
   634     008E                     	;# 
   635     0090                     	;# 
   636     0091                     	;# 
   637     0092                     	;# 
   638     0093                     	;# 
   639     0095                     	;# 
   640     0096                     	;# 
   641     0097                     	;# 
   642     0098                     	;# 
   643     0099                     	;# 
   644     009A                     	;# 
   645     009B                     	;# 
   646     009B                     	;# 
   647     009C                     	;# 
   648     009D                     	;# 
   649     009E                     	;# 
   650     010C                     	;# 
   651     010D                     	;# 
   652     010E                     	;# 
   653     0110                     	;# 
   654     0111                     	;# 
   655     0112                     	;# 
   656     0113                     	;# 
   657     0114                     	;# 
   658     0115                     	;# 
   659     0116                     	;# 
   660     0117                     	;# 
   661     0118                     	;# 
   662     0119                     	;# 
   663     011A                     	;# 
   664     011B                     	;# 
   665     011D                     	;# 
   666     018C                     	;# 
   667     018D                     	;# 
   668     0191                     	;# 
   669     0191                     	;# 
   670     0192                     	;# 
   671     0193                     	;# 
   672     0193                     	;# 
   673     0193                     	;# 
   674     0194                     	;# 
   675     0195                     	;# 
   676     0196                     	;# 
   677     0199                     	;# 
   678     019A                     	;# 
   679     019B                     	;# 
   680     019B                     	;# 
   681     019B                     	;# 
   682     019B                     	;# 
   683     019C                     	;# 
   684     019C                     	;# 
   685     019D                     	;# 
   686     019E                     	;# 
   687     019F                     	;# 
   688     020D                     	;# 
   689     0210                     	;# 
   690     0211                     	;# 
   691     0212                     	;# 
   692     0213                     	;# 
   693     0214                     	;# 
   694     0215                     	;# 
   695     0215                     	;# 
   696     0216                     	;# 
   697     0217                     	;# 
   698     0291                     	;# 
   699     0291                     	;# 
   700     0292                     	;# 
   701     0293                     	;# 
   702     0294                     	;# 
   703     0295                     	;# 
   704     0295                     	;# 
   705     0296                     	;# 
   706     0298                     	;# 
   707     0298                     	;# 
   708     0299                     	;# 
   709     029A                     	;# 
   710     029B                     	;# 
   711     029C                     	;# 
   712     029C                     	;# 
   713     029D                     	;# 
   714     029E                     	;# 
   715     029F                     	;# 
   716     0311                     	;# 
   717     0311                     	;# 
   718     0312                     	;# 
   719     0313                     	;# 
   720     0314                     	;# 
   721     0315                     	;# 
   722     0315                     	;# 
   723     0316                     	;# 
   724     0318                     	;# 
   725     0318                     	;# 
   726     0319                     	;# 
   727     031A                     	;# 
   728     031C                     	;# 
   729     031C                     	;# 
   730     031D                     	;# 
   731     031E                     	;# 
   732     0394                     	;# 
   733     0395                     	;# 
   734     0396                     	;# 
   735     0415                     	;# 
   736     0416                     	;# 
   737     0417                     	;# 
   738     041C                     	;# 
   739     041D                     	;# 
   740     041E                     	;# 
   741     0791                     	;# 
   742     0792                     	;# 
   743     0793                     	;# 
   744     0794                     	;# 
   745     0795                     	;# 
   746     0798                     	;# 
   747     0799                     	;# 
   748     07A0                     	;# 
   749     07A1                     	;# 
   750     07A3                     	;# 
   751     07A4                     	;# 
   752     07A6                     	;# 
   753     07A7                     	;# 
   754     07A9                     	;# 
   755     07AA                     	;# 
   756     0FE4                     	;# 
   757     0FE5                     	;# 
   758     0FE6                     	;# 
   759     0FE7                     	;# 
   760     0FE8                     	;# 
   761     0FE9                     	;# 
   762     0FEA                     	;# 
   763     0FEB                     	;# 
   764     0FED                     	;# 
   765     0FEE                     	;# 
   766     0FEF                     	;# 
   767     0000                     	;# 
   768     0001                     	;# 
   769     0002                     	;# 
   770     0003                     	;# 
   771     0004                     	;# 
   772     0005                     	;# 
   773     0006                     	;# 
   774     0007                     	;# 
   775     0008                     	;# 
   776     0009                     	;# 
   777     000A                     	;# 
   778     000B                     	;# 
   779     000C                     	;# 
   780     000D                     	;# 
   781     000E                     	;# 
   782     0010                     	;# 
   783     0011                     	;# 
   784     0012                     	;# 
   785     0013                     	;# 
   786     0015                     	;# 
   787     0016                     	;# 
   788     0016                     	;# 
   789     0017                     	;# 
   790     0018                     	;# 
   791     0019                     	;# 
   792     001A                     	;# 
   793     001B                     	;# 
   794     001C                     	;# 
   795     001E                     	;# 
   796     001F                     	;# 
   797     008C                     	;# 
   798     008D                     	;# 
   799     008E                     	;# 
   800     0090                     	;# 
   801     0091                     	;# 
   802     0092                     	;# 
   803     0093                     	;# 
   804     0095                     	;# 
   805     0096                     	;# 
   806     0097                     	;# 
   807     0098                     	;# 
   808     0099                     	;# 
   809     009A                     	;# 
   810     009B                     	;# 
   811     009B                     	;# 
   812     009C                     	;# 
   813     009D                     	;# 
   814     009E                     	;# 
   815     010C                     	;# 
   816     010D                     	;# 
   817     010E                     	;# 
   818     0110                     	;# 
   819     0111                     	;# 
   820     0112                     	;# 
   821     0113                     	;# 
   822     0114                     	;# 
   823     0115                     	;# 
   824     0116                     	;# 
   825     0117                     	;# 
   826     0118                     	;# 
   827     0119                     	;# 
   828     011A                     	;# 
   829     011B                     	;# 
   830     011D                     	;# 
   831     018C                     	;# 
   832     018D                     	;# 
   833     0191                     	;# 
   834     0191                     	;# 
   835     0192                     	;# 
   836     0193                     	;# 
   837     0193                     	;# 
   838     0193                     	;# 
   839     0194                     	;# 
   840     0195                     	;# 
   841     0196                     	;# 
   842     0199                     	;# 
   843     019A                     	;# 
   844     019B                     	;# 
   845     019B                     	;# 
   846     019B                     	;# 
   847     019B                     	;# 
   848     019C                     	;# 
   849     019C                     	;# 
   850     019D                     	;# 
   851     019E                     	;# 
   852     019F                     	;# 
   853     020D                     	;# 
   854     0210                     	;# 
   855     0211                     	;# 
   856     0212                     	;# 
   857     0213                     	;# 
   858     0214                     	;# 
   859     0215                     	;# 
   860     0215                     	;# 
   861     0216                     	;# 
   862     0217                     	;# 
   863     0291                     	;# 
   864     0291                     	;# 
   865     0292                     	;# 
   866     0293                     	;# 
   867     0294                     	;# 
   868     0295                     	;# 
   869     0295                     	;# 
   870     0296                     	;# 
   871     0298                     	;# 
   872     0298                     	;# 
   873     0299                     	;# 
   874     029A                     	;# 
   875     029B                     	;# 
   876     029C                     	;# 
   877     029C                     	;# 
   878     029D                     	;# 
   879     029E                     	;# 
   880     029F                     	;# 
   881     0311                     	;# 
   882     0311                     	;# 
   883     0312                     	;# 
   884     0313                     	;# 
   885     0314                     	;# 
   886     0315                     	;# 
   887     0315                     	;# 
   888     0316                     	;# 
   889     0318                     	;# 
   890     0318                     	;# 
   891     0319                     	;# 
   892     031A                     	;# 
   893     031C                     	;# 
   894     031C                     	;# 
   895     031D                     	;# 
   896     031E                     	;# 
   897     0394                     	;# 
   898     0395                     	;# 
   899     0396                     	;# 
   900     0415                     	;# 
   901     0416                     	;# 
   902     0417                     	;# 
   903     041C                     	;# 
   904     041D                     	;# 
   905     041E                     	;# 
   906     0791                     	;# 
   907     0792                     	;# 
   908     0793                     	;# 
   909     0794                     	;# 
   910     0795                     	;# 
   911     0798                     	;# 
   912     0799                     	;# 
   913     07A0                     	;# 
   914     07A1                     	;# 
   915     07A3                     	;# 
   916     07A4                     	;# 
   917     07A6                     	;# 
   918     07A7                     	;# 
   919     07A9                     	;# 
   920     07AA                     	;# 
   921     0FE4                     	;# 
   922     0FE5                     	;# 
   923     0FE6                     	;# 
   924     0FE7                     	;# 
   925     0FE8                     	;# 
   926     0FE9                     	;# 
   927     0FEA                     	;# 
   928     0FEB                     	;# 
   929     0FED                     	;# 
   930     0FEE                     	;# 
   931     0FEF                     	;# 
   932     0000                     	;# 
   933     0001                     	;# 
   934     0002                     	;# 
   935     0003                     	;# 
   936     0004                     	;# 
   937     0005                     	;# 
   938     0006                     	;# 
   939     0007                     	;# 
   940     0008                     	;# 
   941     0009                     	;# 
   942     000A                     	;# 
   943     000B                     	;# 
   944     000C                     	;# 
   945     000D                     	;# 
   946     000E                     	;# 
   947     0010                     	;# 
   948     0011                     	;# 
   949     0012                     	;# 
   950     0013                     	;# 
   951     0015                     	;# 
   952     0016                     	;# 
   953     0016                     	;# 
   954     0017                     	;# 
   955     0018                     	;# 
   956     0019                     	;# 
   957     001A                     	;# 
   958     001B                     	;# 
   959     001C                     	;# 
   960     001E                     	;# 
   961     001F                     	;# 
   962     008C                     	;# 
   963     008D                     	;# 
   964     008E                     	;# 
   965     0090                     	;# 
   966     0091                     	;# 
   967     0092                     	;# 
   968     0093                     	;# 
   969     0095                     	;# 
   970     0096                     	;# 
   971     0097                     	;# 
   972     0098                     	;# 
   973     0099                     	;# 
   974     009A                     	;# 
   975     009B                     	;# 
   976     009B                     	;# 
   977     009C                     	;# 
   978     009D                     	;# 
   979     009E                     	;# 
   980     010C                     	;# 
   981     010D                     	;# 
   982     010E                     	;# 
   983     0110                     	;# 
   984     0111                     	;# 
   985     0112                     	;# 
   986     0113                     	;# 
   987     0114                     	;# 
   988     0115                     	;# 
   989     0116                     	;# 
   990     0117                     	;# 
   991     0118                     	;# 
   992     0119                     	;# 
   993     011A                     	;# 
   994     011B                     	;# 
   995     011D                     	;# 
   996     018C                     	;# 
   997     018D                     	;# 
   998     0191                     	;# 
   999     0191                     	;# 
  1000     0192                     	;# 
  1001     0193                     	;# 
  1002     0193                     	;# 
  1003     0193                     	;# 
  1004     0194                     	;# 
  1005     0195                     	;# 
  1006     0196                     	;# 
  1007     0199                     	;# 
  1008     019A                     	;# 
  1009     019B                     	;# 
  1010     019B                     	;# 
  1011     019B                     	;# 
  1012     019B                     	;# 
  1013     019C                     	;# 
  1014     019C                     	;# 
  1015     019D                     	;# 
  1016     019E                     	;# 
  1017     019F                     	;# 
  1018     020D                     	;# 
  1019     0210                     	;# 
  1020     0211                     	;# 
  1021     0212                     	;# 
  1022     0213                     	;# 
  1023     0214                     	;# 
  1024     0215                     	;# 
  1025     0215                     	;# 
  1026     0216                     	;# 
  1027     0217                     	;# 
  1028     0291                     	;# 
  1029     0291                     	;# 
  1030     0292                     	;# 
  1031     0293                     	;# 
  1032     0294                     	;# 
  1033     0295                     	;# 
  1034     0295                     	;# 
  1035     0296                     	;# 
  1036     0298                     	;# 
  1037     0298                     	;# 
  1038     0299                     	;# 
  1039     029A                     	;# 
  1040     029B                     	;# 
  1041     029C                     	;# 
  1042     029C                     	;# 
  1043     029D                     	;# 
  1044     029E                     	;# 
  1045     029F                     	;# 
  1046     0311                     	;# 
  1047     0311                     	;# 
  1048     0312                     	;# 
  1049     0313                     	;# 
  1050     0314                     	;# 
  1051     0315                     	;# 
  1052     0315                     	;# 
  1053     0316                     	;# 
  1054     0318                     	;# 
  1055     0318                     	;# 
  1056     0319                     	;# 
  1057     031A                     	;# 
  1058     031C                     	;# 
  1059     031C                     	;# 
  1060     031D                     	;# 
  1061     031E                     	;# 
  1062     0394                     	;# 
  1063     0395                     	;# 
  1064     0396                     	;# 
  1065     0415                     	;# 
  1066     0416                     	;# 
  1067     0417                     	;# 
  1068     041C                     	;# 
  1069     041D                     	;# 
  1070     041E                     	;# 
  1071     0791                     	;# 
  1072     0792                     	;# 
  1073     0793                     	;# 
  1074     0794                     	;# 
  1075     0795                     	;# 
  1076     0798                     	;# 
  1077     0799                     	;# 
  1078     07A0                     	;# 
  1079     07A1                     	;# 
  1080     07A3                     	;# 
  1081     07A4                     	;# 
  1082     07A6                     	;# 
  1083     07A7                     	;# 
  1084     07A9                     	;# 
  1085     07AA                     	;# 
  1086     0FE4                     	;# 
  1087     0FE5                     	;# 
  1088     0FE6                     	;# 
  1089     0FE7                     	;# 
  1090     0FE8                     	;# 
  1091     0FE9                     	;# 
  1092     0FEA                     	;# 
  1093     0FEB                     	;# 
  1094     0FED                     	;# 
  1095     0FEE                     	;# 
  1096     0FEF                     	;# 
  1097     0000                     	;# 
  1098     0001                     	;# 
  1099     0002                     	;# 
  1100     0003                     	;# 
  1101     0004                     	;# 
  1102     0005                     	;# 
  1103     0006                     	;# 
  1104     0007                     	;# 
  1105     0008                     	;# 
  1106     0009                     	;# 
  1107     000A                     	;# 
  1108     000B                     	;# 
  1109     000C                     	;# 
  1110     000D                     	;# 
  1111     000E                     	;# 
  1112     0010                     	;# 
  1113     0011                     	;# 
  1114     0012                     	;# 
  1115     0013                     	;# 
  1116     0015                     	;# 
  1117     0016                     	;# 
  1118     0016                     	;# 
  1119     0017                     	;# 
  1120     0018                     	;# 
  1121     0019                     	;# 
  1122     001A                     	;# 
  1123     001B                     	;# 
  1124     001C                     	;# 
  1125     001E                     	;# 
  1126     001F                     	;# 
  1127     008C                     	;# 
  1128     008D                     	;# 
  1129     008E                     	;# 
  1130     0090                     	;# 
  1131     0091                     	;# 
  1132     0092                     	;# 
  1133     0093                     	;# 
  1134     0095                     	;# 
  1135     0096                     	;# 
  1136     0097                     	;# 
  1137     0098                     	;# 
  1138     0099                     	;# 
  1139     009A                     	;# 
  1140     009B                     	;# 
  1141     009B                     	;# 
  1142     009C                     	;# 
  1143     009D                     	;# 
  1144     009E                     	;# 
  1145     010C                     	;# 
  1146     010D                     	;# 
  1147     010E                     	;# 
  1148     0110                     	;# 
  1149     0111                     	;# 
  1150     0112                     	;# 
  1151     0113                     	;# 
  1152     0114                     	;# 
  1153     0115                     	;# 
  1154     0116                     	;# 
  1155     0117                     	;# 
  1156     0118                     	;# 
  1157     0119                     	;# 
  1158     011A                     	;# 
  1159     011B                     	;# 
  1160     011D                     	;# 
  1161     018C                     	;# 
  1162     018D                     	;# 
  1163     0191                     	;# 
  1164     0191                     	;# 
  1165     0192                     	;# 
  1166     0193                     	;# 
  1167     0193                     	;# 
  1168     0193                     	;# 
  1169     0194                     	;# 
  1170     0195                     	;# 
  1171     0196                     	;# 
  1172     0199                     	;# 
  1173     019A                     	;# 
  1174     019B                     	;# 
  1175     019B                     	;# 
  1176     019B                     	;# 
  1177     019B                     	;# 
  1178     019C                     	;# 
  1179     019C                     	;# 
  1180     019D                     	;# 
  1181     019E                     	;# 
  1182     019F                     	;# 
  1183     020D                     	;# 
  1184     0210                     	;# 
  1185     0211                     	;# 
  1186     0212                     	;# 
  1187     0213                     	;# 
  1188     0214                     	;# 
  1189     0215                     	;# 
  1190     0215                     	;# 
  1191     0216                     	;# 
  1192     0217                     	;# 
  1193     0291                     	;# 
  1194     0291                     	;# 
  1195     0292                     	;# 
  1196     0293                     	;# 
  1197     0294                     	;# 
  1198     0295                     	;# 
  1199     0295                     	;# 
  1200     0296                     	;# 
  1201     0298                     	;# 
  1202     0298                     	;# 
  1203     0299                     	;# 
  1204     029A                     	;# 
  1205     029B                     	;# 
  1206     029C                     	;# 
  1207     029C                     	;# 
  1208     029D                     	;# 
  1209     029E                     	;# 
  1210     029F                     	;# 
  1211     0311                     	;# 
  1212     0311                     	;# 
  1213     0312                     	;# 
  1214     0313                     	;# 
  1215     0314                     	;# 
  1216     0315                     	;# 
  1217     0315                     	;# 
  1218     0316                     	;# 
  1219     0318                     	;# 
  1220     0318                     	;# 
  1221     0319                     	;# 
  1222     031A                     	;# 
  1223     031C                     	;# 
  1224     031C                     	;# 
  1225     031D                     	;# 
  1226     031E                     	;# 
  1227     0394                     	;# 
  1228     0395                     	;# 
  1229     0396                     	;# 
  1230     0415                     	;# 
  1231     0416                     	;# 
  1232     0417                     	;# 
  1233     041C                     	;# 
  1234     041D                     	;# 
  1235     041E                     	;# 
  1236     0791                     	;# 
  1237     0792                     	;# 
  1238     0793                     	;# 
  1239     0794                     	;# 
  1240     0795                     	;# 
  1241     0798                     	;# 
  1242     0799                     	;# 
  1243     07A0                     	;# 
  1244     07A1                     	;# 
  1245     07A3                     	;# 
  1246     07A4                     	;# 
  1247     07A6                     	;# 
  1248     07A7                     	;# 
  1249     07A9                     	;# 
  1250     07AA                     	;# 
  1251     0FE4                     	;# 
  1252     0FE5                     	;# 
  1253     0FE6                     	;# 
  1254     0FE7                     	;# 
  1255     0FE8                     	;# 
  1256     0FE9                     	;# 
  1257     0FEA                     	;# 
  1258     0FEB                     	;# 
  1259     0FED                     	;# 
  1260     0FEE                     	;# 
  1261     0FEF                     	;# 
  1262     0000                     	;# 
  1263     0001                     	;# 
  1264     0002                     	;# 
  1265     0003                     	;# 
  1266     0004                     	;# 
  1267     0005                     	;# 
  1268     0006                     	;# 
  1269     0007                     	;# 
  1270     0008                     	;# 
  1271     0009                     	;# 
  1272     000A                     	;# 
  1273     000B                     	;# 
  1274     000C                     	;# 
  1275     000D                     	;# 
  1276     000E                     	;# 
  1277     0010                     	;# 
  1278     0011                     	;# 
  1279     0012                     	;# 
  1280     0013                     	;# 
  1281     0015                     	;# 
  1282     0016                     	;# 
  1283     0016                     	;# 
  1284     0017                     	;# 
  1285     0018                     	;# 
  1286     0019                     	;# 
  1287     001A                     	;# 
  1288     001B                     	;# 
  1289     001C                     	;# 
  1290     001E                     	;# 
  1291     001F                     	;# 
  1292     008C                     	;# 
  1293     008D                     	;# 
  1294     008E                     	;# 
  1295     0090                     	;# 
  1296     0091                     	;# 
  1297     0092                     	;# 
  1298     0093                     	;# 
  1299     0095                     	;# 
  1300     0096                     	;# 
  1301     0097                     	;# 
  1302     0098                     	;# 
  1303     0099                     	;# 
  1304     009A                     	;# 
  1305     009B                     	;# 
  1306     009B                     	;# 
  1307     009C                     	;# 
  1308     009D                     	;# 
  1309     009E                     	;# 
  1310     010C                     	;# 
  1311     010D                     	;# 
  1312     010E                     	;# 
  1313     0110                     	;# 
  1314     0111                     	;# 
  1315     0112                     	;# 
  1316     0113                     	;# 
  1317     0114                     	;# 
  1318     0115                     	;# 
  1319     0116                     	;# 
  1320     0117                     	;# 
  1321     0118                     	;# 
  1322     0119                     	;# 
  1323     011A                     	;# 
  1324     011B                     	;# 
  1325     011D                     	;# 
  1326     018C                     	;# 
  1327     018D                     	;# 
  1328     0191                     	;# 
  1329     0191                     	;# 
  1330     0192                     	;# 
  1331     0193                     	;# 
  1332     0193                     	;# 
  1333     0193                     	;# 
  1334     0194                     	;# 
  1335     0195                     	;# 
  1336     0196                     	;# 
  1337     0199                     	;# 
  1338     019A                     	;# 
  1339     019B                     	;# 
  1340     019B                     	;# 
  1341     019B                     	;# 
  1342     019B                     	;# 
  1343     019C                     	;# 
  1344     019C                     	;# 
  1345     019D                     	;# 
  1346     019E                     	;# 
  1347     019F                     	;# 
  1348     020D                     	;# 
  1349     0210                     	;# 
  1350     0211                     	;# 
  1351     0212                     	;# 
  1352     0213                     	;# 
  1353     0214                     	;# 
  1354     0215                     	;# 
  1355     0215                     	;# 
  1356     0216                     	;# 
  1357     0217                     	;# 
  1358     0291                     	;# 
  1359     0291                     	;# 
  1360     0292                     	;# 
  1361     0293                     	;# 
  1362     0294                     	;# 
  1363     0295                     	;# 
  1364     0295                     	;# 
  1365     0296                     	;# 
  1366     0298                     	;# 
  1367     0298                     	;# 
  1368     0299                     	;# 
  1369     029A                     	;# 
  1370     029B                     	;# 
  1371     029C                     	;# 
  1372     029C                     	;# 
  1373     029D                     	;# 
  1374     029E                     	;# 
  1375     029F                     	;# 
  1376     0311                     	;# 
  1377     0311                     	;# 
  1378     0312                     	;# 
  1379     0313                     	;# 
  1380     0314                     	;# 
  1381     0315                     	;# 
  1382     0315                     	;# 
  1383     0316                     	;# 
  1384     0318                     	;# 
  1385     0318                     	;# 
  1386     0319                     	;# 
  1387     031A                     	;# 
  1388     031C                     	;# 
  1389     031C                     	;# 
  1390     031D                     	;# 
  1391     031E                     	;# 
  1392     0394                     	;# 
  1393     0395                     	;# 
  1394     0396                     	;# 
  1395     0415                     	;# 
  1396     0416                     	;# 
  1397     0417                     	;# 
  1398     041C                     	;# 
  1399     041D                     	;# 
  1400     041E                     	;# 
  1401     0791                     	;# 
  1402     0792                     	;# 
  1403     0793                     	;# 
  1404     0794                     	;# 
  1405     0795                     	;# 
  1406     0798                     	;# 
  1407     0799                     	;# 
  1408     07A0                     	;# 
  1409     07A1                     	;# 
  1410     07A3                     	;# 
  1411     07A4                     	;# 
  1412     07A6                     	;# 
  1413     07A7                     	;# 
  1414     07A9                     	;# 
  1415     07AA                     	;# 
  1416     0FE4                     	;# 
  1417     0FE5                     	;# 
  1418     0FE6                     	;# 
  1419     0FE7                     	;# 
  1420     0FE8                     	;# 
  1421     0FE9                     	;# 
  1422     0FEA                     	;# 
  1423     0FEB                     	;# 
  1424     0FED                     	;# 
  1425     0FEE                     	;# 
  1426     0FEF                     	;# 
  1427     0000                     	;# 
  1428     0001                     	;# 
  1429     0002                     	;# 
  1430     0003                     	;# 
  1431     0004                     	;# 
  1432     0005                     	;# 
  1433     0006                     	;# 
  1434     0007                     	;# 
  1435     0008                     	;# 
  1436     0009                     	;# 
  1437     000A                     	;# 
  1438     000B                     	;# 
  1439     000C                     	;# 
  1440     000D                     	;# 
  1441     000E                     	;# 
  1442     0010                     	;# 
  1443     0011                     	;# 
  1444     0012                     	;# 
  1445     0013                     	;# 
  1446     0015                     	;# 
  1447     0016                     	;# 
  1448     0016                     	;# 
  1449     0017                     	;# 
  1450     0018                     	;# 
  1451     0019                     	;# 
  1452     001A                     	;# 
  1453     001B                     	;# 
  1454     001C                     	;# 
  1455     001E                     	;# 
  1456     001F                     	;# 
  1457     008C                     	;# 
  1458     008D                     	;# 
  1459     008E                     	;# 
  1460     0090                     	;# 
  1461     0091                     	;# 
  1462     0092                     	;# 
  1463     0093                     	;# 
  1464     0095                     	;# 
  1465     0096                     	;# 
  1466     0097                     	;# 
  1467     0098                     	;# 
  1468     0099                     	;# 
  1469     009A                     	;# 
  1470     009B                     	;# 
  1471     009B                     	;# 
  1472     009C                     	;# 
  1473     009D                     	;# 
  1474     009E                     	;# 
  1475     010C                     	;# 
  1476     010D                     	;# 
  1477     010E                     	;# 
  1478     0110                     	;# 
  1479     0111                     	;# 
  1480     0112                     	;# 
  1481     0113                     	;# 
  1482     0114                     	;# 
  1483     0115                     	;# 
  1484     0116                     	;# 
  1485     0117                     	;# 
  1486     0118                     	;# 
  1487     0119                     	;# 
  1488     011A                     	;# 
  1489     011B                     	;# 
  1490     011D                     	;# 
  1491     018C                     	;# 
  1492     018D                     	;# 
  1493     0191                     	;# 
  1494     0191                     	;# 
  1495     0192                     	;# 
  1496     0193                     	;# 
  1497     0193                     	;# 
  1498     0193                     	;# 
  1499     0194                     	;# 
  1500     0195                     	;# 
  1501     0196                     	;# 
  1502     0199                     	;# 
  1503     019A                     	;# 
  1504     019B                     	;# 
  1505     019B                     	;# 
  1506     019B                     	;# 
  1507     019B                     	;# 
  1508     019C                     	;# 
  1509     019C                     	;# 
  1510     019D                     	;# 
  1511     019E                     	;# 
  1512     019F                     	;# 
  1513     020D                     	;# 
  1514     0210                     	;# 
  1515     0211                     	;# 
  1516     0212                     	;# 
  1517     0213                     	;# 
  1518     0214                     	;# 
  1519     0215                     	;# 
  1520     0215                     	;# 
  1521     0216                     	;# 
  1522     0217                     	;# 
  1523     0291                     	;# 
  1524     0291                     	;# 
  1525     0292                     	;# 
  1526     0293                     	;# 
  1527     0294                     	;# 
  1528     0295                     	;# 
  1529     0295                     	;# 
  1530     0296                     	;# 
  1531     0298                     	;# 
  1532     0298                     	;# 
  1533     0299                     	;# 
  1534     029A                     	;# 
  1535     029B                     	;# 
  1536     029C                     	;# 
  1537     029C                     	;# 
  1538     029D                     	;# 
  1539     029E                     	;# 
  1540     029F                     	;# 
  1541     0311                     	;# 
  1542     0311                     	;# 
  1543     0312                     	;# 
  1544     0313                     	;# 
  1545     0314                     	;# 
  1546     0315                     	;# 
  1547     0315                     	;# 
  1548     0316                     	;# 
  1549     0318                     	;# 
  1550     0318                     	;# 
  1551     0319                     	;# 
  1552     031A                     	;# 
  1553     031C                     	;# 
  1554     031C                     	;# 
  1555     031D                     	;# 
  1556     031E                     	;# 
  1557     0394                     	;# 
  1558     0395                     	;# 
  1559     0396                     	;# 
  1560     0415                     	;# 
  1561     0416                     	;# 
  1562     0417                     	;# 
  1563     041C                     	;# 
  1564     041D                     	;# 
  1565     041E                     	;# 
  1566     0791                     	;# 
  1567     0792                     	;# 
  1568     0793                     	;# 
  1569     0794                     	;# 
  1570     0795                     	;# 
  1571     0798                     	;# 
  1572     0799                     	;# 
  1573     07A0                     	;# 
  1574     07A1                     	;# 
  1575     07A3                     	;# 
  1576     07A4                     	;# 
  1577     07A6                     	;# 
  1578     07A7                     	;# 
  1579     07A9                     	;# 
  1580     07AA                     	;# 
  1581     0FE4                     	;# 
  1582     0FE5                     	;# 
  1583     0FE6                     	;# 
  1584     0FE7                     	;# 
  1585     0FE8                     	;# 
  1586     0FE9                     	;# 
  1587     0FEA                     	;# 
  1588     0FEB                     	;# 
  1589     0FED                     	;# 
  1590     0FEE                     	;# 
  1591     0FEF                     	;# 
  1592     0000                     	;# 
  1593     0001                     	;# 
  1594     0002                     	;# 
  1595     0003                     	;# 
  1596     0004                     	;# 
  1597     0005                     	;# 
  1598     0006                     	;# 
  1599     0007                     	;# 
  1600     0008                     	;# 
  1601     0009                     	;# 
  1602     000A                     	;# 
  1603     000B                     	;# 
  1604     000C                     	;# 
  1605     000D                     	;# 
  1606     000E                     	;# 
  1607     0010                     	;# 
  1608     0011                     	;# 
  1609     0012                     	;# 
  1610     0013                     	;# 
  1611     0015                     	;# 
  1612     0016                     	;# 
  1613     0016                     	;# 
  1614     0017                     	;# 
  1615     0018                     	;# 
  1616     0019                     	;# 
  1617     001A                     	;# 
  1618     001B                     	;# 
  1619     001C                     	;# 
  1620     001E                     	;# 
  1621     001F                     	;# 
  1622     008C                     	;# 
  1623     008D                     	;# 
  1624     008E                     	;# 
  1625     0090                     	;# 
  1626     0091                     	;# 
  1627     0092                     	;# 
  1628     0093                     	;# 
  1629     0095                     	;# 
  1630     0096                     	;# 
  1631     0097                     	;# 
  1632     0098                     	;# 
  1633     0099                     	;# 
  1634     009A                     	;# 
  1635     009B                     	;# 
  1636     009B                     	;# 
  1637     009C                     	;# 
  1638     009D                     	;# 
  1639     009E                     	;# 
  1640     010C                     	;# 
  1641     010D                     	;# 
  1642     010E                     	;# 
  1643     0110                     	;# 
  1644     0111                     	;# 
  1645     0112                     	;# 
  1646     0113                     	;# 
  1647     0114                     	;# 
  1648     0115                     	;# 
  1649     0116                     	;# 
  1650     0117                     	;# 
  1651     0118                     	;# 
  1652     0119                     	;# 
  1653     011A                     	;# 
  1654     011B                     	;# 
  1655     011D                     	;# 
  1656     018C                     	;# 
  1657     018D                     	;# 
  1658     0191                     	;# 
  1659     0191                     	;# 
  1660     0192                     	;# 
  1661     0193                     	;# 
  1662     0193                     	;# 
  1663     0193                     	;# 
  1664     0194                     	;# 
  1665     0195                     	;# 
  1666     0196                     	;# 
  1667     0199                     	;# 
  1668     019A                     	;# 
  1669     019B                     	;# 
  1670     019B                     	;# 
  1671     019B                     	;# 
  1672     019B                     	;# 
  1673     019C                     	;# 
  1674     019C                     	;# 
  1675     019D                     	;# 
  1676     019E                     	;# 
  1677     019F                     	;# 
  1678     020D                     	;# 
  1679     0210                     	;# 
  1680     0211                     	;# 
  1681     0212                     	;# 
  1682     0213                     	;# 
  1683     0214                     	;# 
  1684     0215                     	;# 
  1685     0215                     	;# 
  1686     0216                     	;# 
  1687     0217                     	;# 
  1688     0291                     	;# 
  1689     0291                     	;# 
  1690     0292                     	;# 
  1691     0293                     	;# 
  1692     0294                     	;# 
  1693     0295                     	;# 
  1694     0295                     	;# 
  1695     0296                     	;# 
  1696     0298                     	;# 
  1697     0298                     	;# 
  1698     0299                     	;# 
  1699     029A                     	;# 
  1700     029B                     	;# 
  1701     029C                     	;# 
  1702     029C                     	;# 
  1703     029D                     	;# 
  1704     029E                     	;# 
  1705     029F                     	;# 
  1706     0311                     	;# 
  1707     0311                     	;# 
  1708     0312                     	;# 
  1709     0313                     	;# 
  1710     0314                     	;# 
  1711     0315                     	;# 
  1712     0315                     	;# 
  1713     0316                     	;# 
  1714     0318                     	;# 
  1715     0318                     	;# 
  1716     0319                     	;# 
  1717     031A                     	;# 
  1718     031C                     	;# 
  1719     031C                     	;# 
  1720     031D                     	;# 
  1721     031E                     	;# 
  1722     0394                     	;# 
  1723     0395                     	;# 
  1724     0396                     	;# 
  1725     0415                     	;# 
  1726     0416                     	;# 
  1727     0417                     	;# 
  1728     041C                     	;# 
  1729     041D                     	;# 
  1730     041E                     	;# 
  1731     0791                     	;# 
  1732     0792                     	;# 
  1733     0793                     	;# 
  1734     0794                     	;# 
  1735     0795                     	;# 
  1736     0798                     	;# 
  1737     0799                     	;# 
  1738     07A0                     	;# 
  1739     07A1                     	;# 
  1740     07A3                     	;# 
  1741     07A4                     	;# 
  1742     07A6                     	;# 
  1743     07A7                     	;# 
  1744     07A9                     	;# 
  1745     07AA                     	;# 
  1746     0FE4                     	;# 
  1747     0FE5                     	;# 
  1748     0FE6                     	;# 
  1749     0FE7                     	;# 
  1750     0FE8                     	;# 
  1751     0FE9                     	;# 
  1752     0FEA                     	;# 
  1753     0FEB                     	;# 
  1754     0FED                     	;# 
  1755     0FEE                     	;# 
  1756     0FEF                     	;# 
  1757     0000                     	;# 
  1758     0001                     	;# 
  1759     0002                     	;# 
  1760     0003                     	;# 
  1761     0004                     	;# 
  1762     0005                     	;# 
  1763     0006                     	;# 
  1764     0007                     	;# 
  1765     0008                     	;# 
  1766     0009                     	;# 
  1767     000A                     	;# 
  1768     000B                     	;# 
  1769     000C                     	;# 
  1770     000D                     	;# 
  1771     000E                     	;# 
  1772     0010                     	;# 
  1773     0011                     	;# 
  1774     0012                     	;# 
  1775     0013                     	;# 
  1776     0015                     	;# 
  1777     0016                     	;# 
  1778     0016                     	;# 
  1779     0017                     	;# 
  1780     0018                     	;# 
  1781     0019                     	;# 
  1782     001A                     	;# 
  1783     001B                     	;# 
  1784     001C                     	;# 
  1785     001E                     	;# 
  1786     001F                     	;# 
  1787     008C                     	;# 
  1788     008D                     	;# 
  1789     008E                     	;# 
  1790     0090                     	;# 
  1791     0091                     	;# 
  1792     0092                     	;# 
  1793     0093                     	;# 
  1794     0095                     	;# 
  1795     0096                     	;# 
  1796     0097                     	;# 
  1797     0098                     	;# 
  1798     0099                     	;# 
  1799     009A                     	;# 
  1800     009B                     	;# 
  1801     009B                     	;# 
  1802     009C                     	;# 
  1803     009D                     	;# 
  1804     009E                     	;# 
  1805     010C                     	;# 
  1806     010D                     	;# 
  1807     010E                     	;# 
  1808     0110                     	;# 
  1809     0111                     	;# 
  1810     0112                     	;# 
  1811     0113                     	;# 
  1812     0114                     	;# 
  1813     0115                     	;# 
  1814     0116                     	;# 
  1815     0117                     	;# 
  1816     0118                     	;# 
  1817     0119                     	;# 
  1818     011A                     	;# 
  1819     011B                     	;# 
  1820     011D                     	;# 
  1821     018C                     	;# 
  1822     018D                     	;# 
  1823     0191                     	;# 
  1824     0191                     	;# 
  1825     0192                     	;# 
  1826     0193                     	;# 
  1827     0193                     	;# 
  1828     0193                     	;# 
  1829     0194                     	;# 
  1830     0195                     	;# 
  1831     0196                     	;# 
  1832     0199                     	;# 
  1833     019A                     	;# 
  1834     019B                     	;# 
  1835     019B                     	;# 
  1836     019B                     	;# 
  1837     019B                     	;# 
  1838     019C                     	;# 
  1839     019C                     	;# 
  1840     019D                     	;# 
  1841     019E                     	;# 
  1842     019F                     	;# 
  1843     020D                     	;# 
  1844     0210                     	;# 
  1845     0211                     	;# 
  1846     0212                     	;# 
  1847     0213                     	;# 
  1848     0214                     	;# 
  1849     0215                     	;# 
  1850     0215                     	;# 
  1851     0216                     	;# 
  1852     0217                     	;# 
  1853     0291                     	;# 
  1854     0291                     	;# 
  1855     0292                     	;# 
  1856     0293                     	;# 
  1857     0294                     	;# 
  1858     0295                     	;# 
  1859     0295                     	;# 
  1860     0296                     	;# 
  1861     0298                     	;# 
  1862     0298                     	;# 
  1863     0299                     	;# 
  1864     029A                     	;# 
  1865     029B                     	;# 
  1866     029C                     	;# 
  1867     029C                     	;# 
  1868     029D                     	;# 
  1869     029E                     	;# 
  1870     029F                     	;# 
  1871     0311                     	;# 
  1872     0311                     	;# 
  1873     0312                     	;# 
  1874     0313                     	;# 
  1875     0314                     	;# 
  1876     0315                     	;# 
  1877     0315                     	;# 
  1878     0316                     	;# 
  1879     0318                     	;# 
  1880     0318                     	;# 
  1881     0319                     	;# 
  1882     031A                     	;# 
  1883     031C                     	;# 
  1884     031C                     	;# 
  1885     031D                     	;# 
  1886     031E                     	;# 
  1887     0394                     	;# 
  1888     0395                     	;# 
  1889     0396                     	;# 
  1890     0415                     	;# 
  1891     0416                     	;# 
  1892     0417                     	;# 
  1893     041C                     	;# 
  1894     041D                     	;# 
  1895     041E                     	;# 
  1896     0791                     	;# 
  1897     0792                     	;# 
  1898     0793                     	;# 
  1899     0794                     	;# 
  1900     0795                     	;# 
  1901     0798                     	;# 
  1902     0799                     	;# 
  1903     07A0                     	;# 
  1904     07A1                     	;# 
  1905     07A3                     	;# 
  1906     07A4                     	;# 
  1907     07A6                     	;# 
  1908     07A7                     	;# 
  1909     07A9                     	;# 
  1910     07AA                     	;# 
  1911     0FE4                     	;# 
  1912     0FE5                     	;# 
  1913     0FE6                     	;# 
  1914     0FE7                     	;# 
  1915     0FE8                     	;# 
  1916     0FE9                     	;# 
  1917     0FEA                     	;# 
  1918     0FEB                     	;# 
  1919     0FED                     	;# 
  1920     0FEE                     	;# 
  1921     0FEF                     	;# 
  1922                           
  1923                           	psect	stringtext1
  1924     02B8                     __pstringtext1:
  1925     02B8                     _CS:
  1926     02B8  344C               	retlw	76
  1927     02B9  349F               	retlw	159
  1928     02BA  34ED               	retlw	237
  1929     02BB  343E               	retlw	62
  1930     02BC  3466               	retlw	102
  1931     02BD  34B5               	retlw	181
  1932     02BE  34C7               	retlw	199
  1933     02BF  3414               	retlw	20
  1934     02C0  3459               	retlw	89
  1935     02C1  348A               	retlw	138
  1936     02C2  34F8               	retlw	248
  1937     02C3  342B               	retlw	43
  1938     02C4  3473               	retlw	115
  1939     02C5  34A0               	retlw	160
  1940     02C6  34D2               	retlw	210
  1941     02C7  3401               	retlw	1
  1942     02C8  348E               	retlw	142
  1943     02C9  345D               	retlw	93
  1944     02CA  342F               	retlw	47
  1945     02CB  34FC               	retlw	252
  1946     02CC  34A4               	retlw	164
  1947     02CD  3477               	retlw	119
  1948     02CE  3405               	retlw	5
  1949     02CF  34D6               	retlw	214
  1950     02D0  349B               	retlw	155
  1951     02D1  3448               	retlw	72
  1952     02D2  343A               	retlw	58
  1953     02D3  34E9               	retlw	233
  1954     02D4  34B1               	retlw	177
  1955     02D5  3462               	retlw	98
  1956     02D6  3410               	retlw	16
  1957     02D7  34C3               	retlw	195
  1958     02D8  342D               	retlw	45
  1959     02D9  34FE               	retlw	254
  1960     02DA  348C               	retlw	140
  1961     02DB  345F               	retlw	95
  1962     02DC  3407               	retlw	7
  1963     02DD  34D4               	retlw	212
  1964     02DE  34A6               	retlw	166
  1965     02DF  3475               	retlw	117
  1966     02E0  3438               	retlw	56
  1967     02E1  34EB               	retlw	235
  1968     02E2  3499               	retlw	153
  1969     02E3  344A               	retlw	74
  1970     02E4  3412               	retlw	18
  1971     02E5  34C1               	retlw	193
  1972     02E6  34B3               	retlw	179
  1973     02E7  3460               	retlw	96
  1974     02E8  34EF               	retlw	239
  1975     02E9  343C               	retlw	60
  1976     02EA  344E               	retlw	78
  1977     02EB  349D               	retlw	157
  1978     02EC  34C5               	retlw	197
  1979     02ED  3416               	retlw	22
  1980     02EE  3464               	retlw	100
  1981     02EF  34B7               	retlw	183
  1982     02F0  34FA               	retlw	250
  1983     02F1  3429               	retlw	41
  1984     02F2  345B               	retlw	91
  1985     02F3  3488               	retlw	136
  1986     02F4  34D0               	retlw	208
  1987     02F5  3403               	retlw	3
  1988     02F6  3471               	retlw	113
  1989     02F7  34A2               	retlw	162
  1990     02F8                     __end_of_CS:
  1991     000D                     _PORTBbits	set	13
  1992     001C                     _T2CONbits	set	28
  1993     001C                     _T2CON	set	28
  1994     001A                     _TMR2	set	26
  1995     001B                     _PR2	set	27
  1996     0015                     _TMR0	set	21
  1997     0019                     _T1GCONbits	set	25
  1998     0018                     _T1CONbits	set	24
  1999     0018                     _T1CON	set	24
  2000     0011                     _PIR1bits	set	17
  2001     0016                     _TMR1L	set	22
  2002     0017                     _TMR1H	set	23
  2003     0019                     _T1GCON	set	25
  2004     0013                     _PIR3bits	set	19
  2005     000B                     _INTCONbits	set	11
  2006     0089                     _TMR2IF	set	137
  2007     0095                     _OPTION_REG	set	149
  2008     0095                     _OPTION_REGbits	set	149
  2009     008E                     _TRISC	set	142
  2010     008D                     _TRISB	set	141
  2011     008C                     _TRISA	set	140
  2012     0090                     _TRISE	set	144
  2013     0093                     _PIE3bits	set	147
  2014     0097                     _WDTCON	set	151
  2015     0098                     _OSCTUNE	set	152
  2016     0099                     _OSCCON	set	153
  2017     04D6                     _PLLR	set	1238
  2018     010E                     _LATCbits	set	270
  2019     010D                     _LATBbits	set	269
  2020     010C                     _LATAbits	set	268
  2021     011D                     _APFCON	set	285
  2022     010E                     _LATC	set	270
  2023     010D                     _LATB	set	269
  2024     010C                     _LATA	set	268
  2025     0110                     _LATE	set	272
  2026     0116                     _BORCON	set	278
  2027     018C                     _ANSELA	set	396
  2028     018D                     _ANSELB	set	397
  2029     020D                     _WPUB	set	525
  2030     0210                     _WPUE	set	528
  2031     0298                     _CCPR2L	set	664
  2032     0299                     _CCPR2H	set	665
  2033     029D                     _PSTR2CON	set	669
  2034     029B                     _PWM2CON	set	667
  2035     029C                     _ECCP2AS	set	668
  2036     029A                     _CCP2CON	set	666
  2037     029E                     _CCPTMRS0bits	set	670
  2038     0291                     _CCPR1L	set	657
  2039     0292                     _CCPR1H	set	658
  2040     0296                     _PSTR1CON	set	662
  2041     0294                     _PWM1CON	set	660
  2042     0295                     _ECCP1AS	set	661
  2043     0293                     _CCP1CON	set	659
  2044     0311                     _CCPR3L	set	785
  2045     0312                     _CCPR3H	set	786
  2046     0313                     _CCP3CON	set	787
  2047                           
  2048                           	psect	cinit
  2049     0028                     start_initialization:	
  2050                           ; #config settings
  2051                           
  2052     0028                     __initialization:
  2053                           
  2054                           ; Clear objects allocated to COMMON
  2055     0028  01F0               	clrf	__pbssCOMMON& (0+127)
  2056     0029  01F1               	clrf	(__pbssCOMMON+1)& (0+127)
  2057     002A  01F2               	clrf	(__pbssCOMMON+2)& (0+127)
  2058     002B  01F3               	clrf	(__pbssCOMMON+3)& (0+127)
  2059     002C  01F4               	clrf	(__pbssCOMMON+4)& (0+127)
  2060     002D  01F5               	clrf	(__pbssCOMMON+5)& (0+127)
  2061                           
  2062                           ; Clear objects allocated to BANK0
  2063     002E  3020               	movlw	low __pbssBANK0
  2064     002F  0084               	movwf	4
  2065     0030  3000               	movlw	high __pbssBANK0
  2066     0031  0085               	movwf	5
  2067     0032  302C               	movlw	44
  2068     0033  3185  2553  3180   	fcall	clear_ram0
  2069     0036                     end_of_initialization:	
  2070                           ;End of C runtime variable initialization code
  2071                           
  2072     0036                     __end_of__initialization:
  2073     0036  107E               	bcf	int$flags,0	;clear compiler interrupt flag (level 1)
  2074     0037  0020               	movlb	0
  2075     0038  3182  2A6C         	ljmp	_main	;jump to C main() function
  2076                           
  2077                           	psect	bssCOMMON
  2078     0070                     __pbssCOMMON:
  2079     0070                     ECCP3_CallBack@LO_us:
  2080     0070                     	ds	1
  2081     0071                     ECCP3_CallBack@HI_us:
  2082     0071                     	ds	1
  2083     0072                     _csFlag:
  2084     0072                     	ds	1
  2085     0073                     _D2:
  2086     0073                     	ds	1
  2087     0074                     _rx_data:
  2088     0074                     	ds	1
  2089     0075                     _timer0ReloadVal:
  2090     0075                     	ds	1
  2091                           
  2092                           	psect	bssBANK0
  2093     0020                     __pbssBANK0:
  2094     0020                     _data_buf:
  2095     0020                     	ds	11
  2096     002B                     ECCP3_CallBack@rising_edge_time:
  2097     002B                     	ds	2
  2098     002D                     ECCP3_CallBack@falling_edge_time:
  2099     002D                     	ds	2
  2100     002F                     ECCP3_CallBack@pluse_width_HI:
  2101     002F                     	ds	2
  2102     0031                     ECCP3_CallBack@pluse_width_LO:
  2103     0031                     	ds	2
  2104     0033                     TMR0_ISR@CountCallBack:
  2105     0033                     	ds	2
  2106     0035                     _TMR0_InterruptHandler:
  2107     0035                     	ds	2
  2108     0037                     _timer1ReloadVal:
  2109     0037                     	ds	2
  2110     0039                     ECCP3_CallBack@data_cnt:
  2111     0039                     	ds	1
  2112     003A                     ECCP3_CallBack@fHead:
  2113     003A                     	ds	1
  2114     003B                     ECCP3_CallBack@rise_edge_flag:
  2115     003B                     	ds	1
  2116     003C                     ECCP3_CallBack@diff_us:
  2117     003C                     	ds	1
  2118     003D                     _fLoPe_DRL_In_use:
  2119     003D                     	ds	1
  2120     003E                     _fLamp_Conf:
  2121     003E                     	ds	1
  2122     003F                     _fLamp_RL_Side:
  2123     003F                     	ds	1
  2124     0040                     _fPOS_Gradually2:
  2125     0040                     	ds	1
  2126     0041                     _fPOS_Gradually:
  2127     0041                     	ds	1
  2128     0042                     _fDRL_Gradually:
  2129     0042                     	ds	1
  2130     0043                     _fReceive_failed:
  2131     0043                     	ds	1
  2132     0044                     _fClear:
  2133     0044                     	ds	1
  2134     0045                     _fUnlock:
  2135     0045                     	ds	1
  2136     0046                     _T10MS_CNT1:
  2137     0046                     	ds	1
  2138     0047                     _T10MS_CNT:
  2139     0047                     	ds	1
  2140     0048                     _D3:
  2141     0048                     	ds	1
  2142     0049                     _step:
  2143     0049                     	ds	1
  2144     004A                     _fFrame_OK:
  2145     004A                     	ds	1
  2146     004B                     _data_1byte_OK:
  2147     004B                     	ds	1
  2148                           
  2149                           	psect	clrtext
  2150     0553                     clear_ram0:	
  2151                           ;	Called with FSR0 containing the base address, and
  2152                           ;	WREG with the size to clear
  2153                           
  2154     0553  0064               	clrwdt	;clear the watchdog before getting into this loop
  2155     0554                     clrloop0:
  2156     0554  0180               	clrf	0	;clear RAM location pointed to by FSR
  2157     0555  3101               	addfsr 0,1
  2158     0556  0B89               	decfsz	9,f	;Have we reached the end of clearing yet?
  2159     0557  2D54               	goto	clrloop0	;have we reached the end yet?
  2160     0558  3400               	retlw	0	;all done for this memory range, return
  2161                           
  2162                           	psect	cstackCOMMON
  2163     0076                     __pcstackCOMMON:
  2164     0076                     ?_PIN_MANAGER_Initialize:
  2165     0076                     ?_OSCILLATOR_Initialize:	
  2166                           ; 1 bytes @ 0x0
  2167                           
  2168     0076                     ?_WDT_Initialize:	
  2169                           ; 1 bytes @ 0x0
  2170                           
  2171     0076                     ?_EPWM2_Initialize:	
  2172                           ; 1 bytes @ 0x0
  2173                           
  2174     0076                     ?_EPWM1_Initialize:	
  2175                           ; 1 bytes @ 0x0
  2176                           
  2177     0076                     ?_TMR2_Initialize:	
  2178                           ; 1 bytes @ 0x0
  2179                           
  2180     0076                     ?_ECCP3_Initialize:	
  2181                           ; 1 bytes @ 0x0
  2182                           
  2183     0076                     ?_TMR1_Initialize:	
  2184                           ; 1 bytes @ 0x0
  2185                           
  2186     0076                     ?_TMR0_Initialize:	
  2187                           ; 1 bytes @ 0x0
  2188                           
  2189     0076                     ?_TMR0_ISR:	
  2190                           ; 1 bytes @ 0x0
  2191                           
  2192     0076                     ?_ECCP3_CaptureISR:	
  2193                           ; 1 bytes @ 0x0
  2194                           
  2195     0076                     ?_TMR0_DefaultInterruptHandler:	
  2196                           ; 1 bytes @ 0x0
  2197                           
  2198     0076                     ??_TMR0_DefaultInterruptHandler:	
  2199                           ; 1 bytes @ 0x0
  2200                           
  2201     0076                     ?_TMR0_CallBack:	
  2202                           ; 1 bytes @ 0x0
  2203                           
  2204     0076                     ?_ECCP3_CallBack:	
  2205                           ; 1 bytes @ 0x0
  2206                           
  2207     0076                     ?_P2_ON:	
  2208                           ; 1 bytes @ 0x0
  2209                           
  2210     0076                     ?_LoBeam_OFF:	
  2211                           ; 1 bytes @ 0x0
  2212                           
  2213     0076                     ?_HiBeam_OFF:	
  2214                           ; 1 bytes @ 0x0
  2215                           
  2216     0076                     ?_POS_Gradually:	
  2217                           ; 1 bytes @ 0x0
  2218                           
  2219     0076                     ?_P2_OFF:	
  2220                           ; 1 bytes @ 0x0
  2221                           
  2222     0076                     ?_POS_OFF:	
  2223                           ; 1 bytes @ 0x0
  2224                           
  2225     0076                     ?_POS_Slow_extinguishing:	
  2226                           ; 1 bytes @ 0x0
  2227                           
  2228     0076                     ?_DRL_Gradually:	
  2229                           ; 1 bytes @ 0x0
  2230                           
  2231     0076                     ?_SYSTEM_Initialize:	
  2232                           ; 1 bytes @ 0x0
  2233                           
  2234     0076                     ?_INTERRUPT_InterruptManager:	
  2235                           ; 1 bytes @ 0x0
  2236                           
  2237     0076                     ?_TMR1_StartTimer:	
  2238                           ; 1 bytes @ 0x0
  2239                           
  2240     0076                     ?_TMR1_StopTimer:	
  2241                           ; 1 bytes @ 0x0
  2242                           
  2243     0076                     ?_TMR1_Reload:	
  2244                           ; 1 bytes @ 0x0
  2245                           
  2246     0076                     ?_TMR1_StartSinglePulseAcquisition:	
  2247                           ; 1 bytes @ 0x0
  2248                           
  2249     0076                     ?_TMR1_CheckGateValueStatus:	
  2250                           ; 1 bytes @ 0x0
  2251                           
  2252     0076                     ?_TMR1_HasOverflowOccured:	
  2253                           ; 1 bytes @ 0x0
  2254                           
  2255     0076                     ?_PIN_MANAGER_IOC:	
  2256                           ; 1 bytes @ 0x0
  2257                           
  2258     0076                     ?_TMR0_ReadTimer:	
  2259                           ; 1 bytes @ 0x0
  2260                           
  2261     0076                     ?_TMR0_WriteTimer:	
  2262                           ; 1 bytes @ 0x0
  2263                           
  2264     0076                     ?_TMR0_Reload:	
  2265                           ; 1 bytes @ 0x0
  2266                           
  2267     0076                     ?_TMR2_StartTimer:	
  2268                           ; 1 bytes @ 0x0
  2269                           
  2270     0076                     ?_TMR2_StopTimer:	
  2271                           ; 1 bytes @ 0x0
  2272                           
  2273     0076                     ?_TMR2_ReadTimer:	
  2274                           ; 1 bytes @ 0x0
  2275                           
  2276     0076                     ?_TMR2_WriteTimer:	
  2277                           ; 1 bytes @ 0x0
  2278                           
  2279     0076                     ?_TMR2_LoadPeriodRegister:	
  2280                           ; 1 bytes @ 0x0
  2281                           
  2282     0076                     ?_TMR2_HasOverflowOccured:	
  2283                           ; 1 bytes @ 0x0
  2284                           
  2285     0076                     ?_Exception_handling:	
  2286                           ; 1 bytes @ 0x0
  2287                           
  2288     0076                     ?_Exception_handling2:	
  2289                           ; 1 bytes @ 0x0
  2290                           
  2291     0076                     ?_HiBeam_ON:	
  2292                           ; 1 bytes @ 0x0
  2293                           
  2294     0076                     ?_LoBeam_ON:	
  2295                           ; 1 bytes @ 0x0
  2296                           
  2297     0076                     ?_DRL_ON:	
  2298                           ; 1 bytes @ 0x0
  2299                           
  2300     0076                     ?_DRL_OFF:	
  2301                           ; 1 bytes @ 0x0
  2302                           
  2303     0076                     ?_POS_ON:	
  2304                           ; 1 bytes @ 0x0
  2305                           
  2306     0076                     ?_LoPe_DRL_ON:	
  2307                           ; 1 bytes @ 0x0
  2308                           
  2309     0076                     ?_LED_output:	
  2310                           ; 1 bytes @ 0x0
  2311                           
  2312     0076                     ?_check_input:	
  2313                           ; 1 bytes @ 0x0
  2314                           
  2315     0076                     ?_getFrameData:	
  2316                           ; 1 bytes @ 0x0
  2317                           
  2318     0076                     ?_TMR0_10MS_EvenHandler:	
  2319                           ; 1 bytes @ 0x0
  2320                           
  2321     0076                     ??_TMR0_10MS_EvenHandler:	
  2322                           ; 1 bytes @ 0x0
  2323                           
  2324     0076                     ?_Clear_No_Call_Warning:	
  2325                           ; 1 bytes @ 0x0
  2326                           
  2327     0076                     ?_TMR1_ReadTimer:	
  2328                           ; 1 bytes @ 0x0
  2329                           
  2330     0076                     ?_main:	
  2331                           ; 2 bytes @ 0x0
  2332                           
  2333     0076                     ECCP3_CallBack@capturedValue:	
  2334                           ; 2 bytes @ 0x0
  2335                           
  2336                           
  2337                           ; 2 bytes @ 0x0
  2338     0076                     	ds	1
  2339     0077                     ??_TMR0_ISR:
  2340     0077                     ??_TMR0_CallBack:	
  2341                           ; 1 bytes @ 0x1
  2342                           
  2343                           
  2344                           ; 1 bytes @ 0x1
  2345     0077                     	ds	1
  2346     0078                     ??_ECCP3_CallBack:
  2347                           
  2348                           ; 1 bytes @ 0x2
  2349     0078                     	ds	2
  2350     007A                     ??_ECCP3_CaptureISR:
  2351     007A                     ECCP3_CaptureISR@module:	
  2352                           ; 1 bytes @ 0x4
  2353                           
  2354                           
  2355                           ; 2 bytes @ 0x4
  2356     007A                     	ds	2
  2357     007C                     ??_INTERRUPT_InterruptManager:
  2358                           
  2359                           	psect	cstackBANK0
  2360     004C                     __pcstackBANK0:	
  2361                           ; 1 bytes @ 0x6
  2362                           
  2363     004C                     ??_PIN_MANAGER_Initialize:
  2364     004C                     ??_OSCILLATOR_Initialize:	
  2365                           ; 1 bytes @ 0x0
  2366                           
  2367     004C                     ??_WDT_Initialize:	
  2368                           ; 1 bytes @ 0x0
  2369                           
  2370     004C                     ??_EPWM2_Initialize:	
  2371                           ; 1 bytes @ 0x0
  2372                           
  2373     004C                     ??_EPWM1_Initialize:	
  2374                           ; 1 bytes @ 0x0
  2375                           
  2376     004C                     ??_TMR2_Initialize:	
  2377                           ; 1 bytes @ 0x0
  2378                           
  2379     004C                     ??_ECCP3_Initialize:	
  2380                           ; 1 bytes @ 0x0
  2381                           
  2382     004C                     ??_TMR1_Initialize:	
  2383                           ; 1 bytes @ 0x0
  2384                           
  2385     004C                     ?_TMR0_SetInterruptHandler:	
  2386                           ; 1 bytes @ 0x0
  2387                           
  2388     004C                     ??_P2_ON:	
  2389                           ; 1 bytes @ 0x0
  2390                           
  2391     004C                     ??_LoBeam_OFF:	
  2392                           ; 1 bytes @ 0x0
  2393                           
  2394     004C                     ??_HiBeam_OFF:	
  2395                           ; 1 bytes @ 0x0
  2396                           
  2397     004C                     ??_POS_Gradually:	
  2398                           ; 1 bytes @ 0x0
  2399                           
  2400     004C                     ??_P2_OFF:	
  2401                           ; 1 bytes @ 0x0
  2402                           
  2403     004C                     ??_POS_OFF:	
  2404                           ; 1 bytes @ 0x0
  2405                           
  2406     004C                     ??_POS_Slow_extinguishing:	
  2407                           ; 1 bytes @ 0x0
  2408                           
  2409     004C                     ??_DRL_Gradually:	
  2410                           ; 1 bytes @ 0x0
  2411                           
  2412     004C                     ??_TMR1_StartTimer:	
  2413                           ; 1 bytes @ 0x0
  2414                           
  2415     004C                     ??_TMR1_StopTimer:	
  2416                           ; 1 bytes @ 0x0
  2417                           
  2418     004C                     ??_TMR1_ReadTimer:	
  2419                           ; 1 bytes @ 0x0
  2420                           
  2421     004C                     ?_TMR1_WriteTimer:	
  2422                           ; 1 bytes @ 0x0
  2423                           
  2424     004C                     ??_TMR1_StartSinglePulseAcquisition:	
  2425                           ; 1 bytes @ 0x0
  2426                           
  2427     004C                     ??_TMR1_CheckGateValueStatus:	
  2428                           ; 1 bytes @ 0x0
  2429                           
  2430     004C                     ??_TMR1_HasOverflowOccured:	
  2431                           ; 1 bytes @ 0x0
  2432                           
  2433     004C                     ??_PIN_MANAGER_IOC:	
  2434                           ; 1 bytes @ 0x0
  2435                           
  2436     004C                     ??_TMR0_ReadTimer:	
  2437                           ; 1 bytes @ 0x0
  2438                           
  2439     004C                     ??_TMR0_WriteTimer:	
  2440                           ; 1 bytes @ 0x0
  2441                           
  2442     004C                     ??_TMR0_Reload:	
  2443                           ; 1 bytes @ 0x0
  2444                           
  2445     004C                     ??_TMR2_StartTimer:	
  2446                           ; 1 bytes @ 0x0
  2447                           
  2448     004C                     ??_TMR2_StopTimer:	
  2449                           ; 1 bytes @ 0x0
  2450                           
  2451     004C                     ??_TMR2_ReadTimer:	
  2452                           ; 1 bytes @ 0x0
  2453                           
  2454     004C                     ??_TMR2_WriteTimer:	
  2455                           ; 1 bytes @ 0x0
  2456                           
  2457     004C                     ??_TMR2_LoadPeriodRegister:	
  2458                           ; 1 bytes @ 0x0
  2459                           
  2460     004C                     ??_TMR2_HasOverflowOccured:	
  2461                           ; 1 bytes @ 0x0
  2462                           
  2463     004C                     ?_EPWM1_LoadDutyValue:	
  2464                           ; 1 bytes @ 0x0
  2465                           
  2466     004C                     ?_EPWM2_LoadDutyValue:	
  2467                           ; 1 bytes @ 0x0
  2468                           
  2469     004C                     ??_HiBeam_ON:	
  2470                           ; 1 bytes @ 0x0
  2471                           
  2472     004C                     ??_LoBeam_ON:	
  2473                           ; 1 bytes @ 0x0
  2474                           
  2475     004C                     ??_DRL_OFF:	
  2476                           ; 1 bytes @ 0x0
  2477                           
  2478     004C                     ??_POS_ON:	
  2479                           ; 1 bytes @ 0x0
  2480                           
  2481     004C                     ??_LoPe_DRL_ON:	
  2482                           ; 1 bytes @ 0x0
  2483                           
  2484     004C                     ??_check_input:	
  2485                           ; 1 bytes @ 0x0
  2486                           
  2487     004C                     ??_getFrameData:	
  2488                           ; 1 bytes @ 0x0
  2489                           
  2490     004C                     TMR1_ReadTimer@readValHigh:	
  2491                           ; 1 bytes @ 0x0
  2492                           
  2493     004C                     TMR0_WriteTimer@timerVal:	
  2494                           ; 1 bytes @ 0x0
  2495                           
  2496     004C                     TMR2_WriteTimer@timerVal:	
  2497                           ; 1 bytes @ 0x0
  2498                           
  2499     004C                     TMR2_LoadPeriodRegister@periodVal:	
  2500                           ; 1 bytes @ 0x0
  2501                           
  2502     004C                     TMR2_HasOverflowOccured@status:	
  2503                           ; 1 bytes @ 0x0
  2504                           
  2505     004C                     TMR1_WriteTimer@timerVal:	
  2506                           ; 1 bytes @ 0x0
  2507                           
  2508     004C                     TMR0_SetInterruptHandler@InterruptHandler:	
  2509                           ; 2 bytes @ 0x0
  2510                           
  2511     004C                     EPWM1_LoadDutyValue@dutyValue:	
  2512                           ; 2 bytes @ 0x0
  2513                           
  2514     004C                     EPWM2_LoadDutyValue@dutyValue:	
  2515                           ; 2 bytes @ 0x0
  2516                           
  2517                           
  2518                           ; 2 bytes @ 0x0
  2519     004C                     	ds	1
  2520     004D                     TMR1_ReadTimer@readValLow:
  2521     004D                     DRL_Gradually@i:	
  2522                           ; 1 bytes @ 0x1
  2523                           
  2524                           
  2525                           ; 1 bytes @ 0x1
  2526     004D                     	ds	1
  2527     004E                     ??_TMR0_Initialize:
  2528     004E                     ??_TMR0_SetInterruptHandler:	
  2529                           ; 1 bytes @ 0x2
  2530                           
  2531     004E                     ??_SYSTEM_Initialize:	
  2532                           ; 1 bytes @ 0x2
  2533                           
  2534     004E                     ??_TMR1_WriteTimer:	
  2535                           ; 1 bytes @ 0x2
  2536                           
  2537     004E                     ??_TMR1_Reload:	
  2538                           ; 1 bytes @ 0x2
  2539                           
  2540     004E                     ??_EPWM1_LoadDutyValue:	
  2541                           ; 1 bytes @ 0x2
  2542                           
  2543     004E                     ??_EPWM2_LoadDutyValue:	
  2544                           ; 1 bytes @ 0x2
  2545                           
  2546     004E                     ??_DRL_ON:	
  2547                           ; 1 bytes @ 0x2
  2548                           
  2549     004E                     ??_LED_output:	
  2550                           ; 1 bytes @ 0x2
  2551                           
  2552     004E                     POS_Gradually@i:	
  2553                           ; 1 bytes @ 0x2
  2554                           
  2555     004E                     POS_Slow_extinguishing@i:	
  2556                           ; 1 bytes @ 0x2
  2557                           
  2558                           
  2559                           ; 1 bytes @ 0x2
  2560     004E                     	ds	1
  2561     004F                     ??_Exception_handling:
  2562     004F                     ??_Exception_handling2:	
  2563                           ; 1 bytes @ 0x3
  2564                           
  2565     004F                     LED_output@crc8:	
  2566                           ; 1 bytes @ 0x3
  2567                           
  2568                           
  2569                           ; 1 bytes @ 0x3
  2570     004F                     	ds	1
  2571     0050                     ??_Clear_No_Call_Warning:
  2572     0050                     LED_output@fLampSignal:	
  2573                           ; 1 bytes @ 0x4
  2574                           
  2575                           
  2576                           ; 1 bytes @ 0x4
  2577     0050                     	ds	1
  2578     0051                     LED_output@i:
  2579                           
  2580                           ; 1 bytes @ 0x5
  2581     0051                     	ds	1
  2582     0052                     ??_main:
  2583                           
  2584                           	psect	maintext
  2585     026C                     __pmaintext:	
  2586                           ; 1 bytes @ 0x6
  2587 ;;
  2588 ;;Main: autosize = 0, tempsize = 0, incstack = 0, save=0
  2589 ;;
  2590 ;; *************** function _main *****************
  2591 ;; Defined at:
  2592 ;;		line 751 in file "main.c"
  2593 ;; Parameters:    Size  Location     Type
  2594 ;;		None
  2595 ;; Auto vars:     Size  Location     Type
  2596 ;;		None
  2597 ;; Return value:  Size  Location     Type
  2598 ;;                  2  607[None  ] int 
  2599 ;; Registers used:
  2600 ;;		wreg, fsr0l, fsr0h, fsr1l, fsr1h, status,2, status,0, pclath, cstack
  2601 ;; Tracked objects:
  2602 ;;		On entry : B1F/0
  2603 ;;		On exit  : 0/0
  2604 ;;		Unchanged: 0/0
  2605 ;; Data sizes:     COMMON   BANK0   BANK1   BANK2   BANK3   BANK4   BANK5   BANK6
  2606 ;;      Params:         0       0       0       0       0       0       0       0
  2607 ;;      Locals:         0       0       0       0       0       0       0       0
  2608 ;;      Temps:          0       0       0       0       0       0       0       0
  2609 ;;      Totals:         0       0       0       0       0       0       0       0
  2610 ;;Total ram usage:        0 bytes
  2611 ;; Hardware stack levels required when called: 7
  2612 ;; This function calls:
  2613 ;;		_Clear_No_Call_Warning
  2614 ;;		_Exception_handling
  2615 ;;		_Exception_handling2
  2616 ;;		_HiBeam_OFF
  2617 ;;		_LED_output
  2618 ;;		_LoBeam_ON
  2619 ;;		_P2_ON
  2620 ;;		_POS_ON
  2621 ;;		_SYSTEM_Initialize
  2622 ;;		_TMR0_SetInterruptHandler
  2623 ;;		_check_input
  2624 ;;		_getFrameData
  2625 ;; This function is called by:
  2626 ;;		Startup code after reset
  2627 ;; This function uses a non-reentrant model
  2628 ;;
  2629                           
  2630     026C                     _main:	
  2631                           ;psect for function _main
  2632                           
  2633     026C                     l3153:	
  2634                           ;incstack = 0
  2635                           ; Regs used in _main: [wreg-fsr1h+status,2+status,0+pclath+cstack]
  2636                           
  2637                           
  2638                           ;main.c: 753:   SYSTEM_Initialize();
  2639     026C  3184  2414  3182   	fcall	_SYSTEM_Initialize
  2640                           
  2641                           ;main.c: 755:   TMR0_SetInterruptHandler(TMR0_10MS_EvenHandler);
  2642     026F  30AD               	movlw	low _TMR0_10MS_EvenHandler
  2643     0270  0020               	movlb	0	; select bank0
  2644     0271  00CC               	movwf	TMR0_SetInterruptHandler@InterruptHandler
  2645     0272  3004               	movlw	high _TMR0_10MS_EvenHandler
  2646     0273  00CD               	movwf	TMR0_SetInterruptHandler@InterruptHandler+1
  2647     0274  3185  2559  3182   	fcall	_TMR0_SetInterruptHandler
  2648     0277                     l3155:
  2649                           
  2650                           ;main.c: 761:   (INTCONbits.GIE = 1);
  2651     0277  178B               	bsf	11,7	;volatile
  2652     0278                     l3157:
  2653                           
  2654                           ;main.c: 764:   (INTCONbits.PEIE = 1);
  2655     0278  170B               	bsf	11,6	;volatile
  2656     0279                     l3159:
  2657                           
  2658                           ;main.c: 774:   fLamp_Conf = PORTBbits.RB5;
  2659     0279  3000               	movlw	0
  2660     027A  0020               	movlb	0	; select bank0
  2661     027B  1A8D               	btfsc	13,5	;volatile
  2662     027C  3001               	movlw	1
  2663     027D  00BE               	movwf	_fLamp_Conf
  2664     027E                     l3161:
  2665                           
  2666                           ;main.c: 782:   fLamp_RL_Side = PORTBbits.RB3;
  2667     027E  3000               	movlw	0
  2668     027F  198D               	btfsc	13,3	;volatile
  2669     0280  3001               	movlw	1
  2670     0281  00BF               	movwf	_fLamp_RL_Side
  2671     0282                     l3163:
  2672                           
  2673                           ;main.c: 788:   Clear_No_Call_Warning();
  2674     0282  3185  25B8  3182   	fcall	_Clear_No_Call_Warning
  2675     0285                     l3165:
  2676                           
  2677                           ;main.c: 791:     getFrameData();
  2678     0285  3181  21FB  3182   	fcall	_getFrameData
  2679     0288                     l3167:
  2680                           
  2681                           ;main.c: 792:     check_input();
  2682     0288  3183  23D6  3182   	fcall	_check_input
  2683     028B                     l3169:
  2684                           
  2685                           ;main.c: 794:     Exception_handling();
  2686     028B  3183  232D  3182   	fcall	_Exception_handling
  2687     028E                     l3171:
  2688                           
  2689                           ;main.c: 795:     Exception_handling2();
  2690     028E  3182  22F8  3182   	fcall	_Exception_handling2
  2691     0291                     l3173:
  2692                           
  2693                           ;main.c: 796:     if ((fReceive_failed == 0)) {
  2694     0291  0020               	movlb	0	; select bank0
  2695     0292  0843               	movf	_fReceive_failed,w
  2696     0293  1D03               	btfss	3,2
  2697     0294  2A96               	goto	u1941
  2698     0295  2A97               	goto	u1940
  2699     0296                     u1941:
  2700     0296  2AA8               	goto	l3183
  2701     0297                     u1940:
  2702     0297                     l3175:
  2703                           
  2704                           ;main.c: 797:       if ((fUnlock == 1)||(fClear == 1)) {
  2705     0297  0345               	decf	_fUnlock,w
  2706     0298  1903               	btfsc	3,2
  2707     0299  2A9B               	goto	u1951
  2708     029A  2A9C               	goto	u1950
  2709     029B                     u1951:
  2710     029B  2AA1               	goto	l3179
  2711     029C                     u1950:
  2712     029C                     l3177:
  2713     029C  0344               	decf	_fClear,w
  2714     029D  1D03               	btfss	3,2
  2715     029E  2AA0               	goto	u1961
  2716     029F  2AA1               	goto	u1960
  2717     02A0                     u1961:
  2718     02A0  2AA4               	goto	l3181
  2719     02A1                     u1960:
  2720     02A1                     l3179:
  2721                           
  2722                           ;main.c: 799:         fUnlock = 0;
  2723     02A1  01C5               	clrf	_fUnlock
  2724                           
  2725                           ;main.c: 800:         fClear=0;
  2726     02A2  01C4               	clrf	_fClear
  2727                           
  2728                           ;main.c: 801:       } else
  2729     02A3  2A85               	goto	l3165
  2730     02A4                     l3181:
  2731                           
  2732                           ;main.c: 802:         LED_output();
  2733     02A4  3180  203A  3182   	fcall	_LED_output
  2734     02A7  2A85               	goto	l3165
  2735     02A8                     l3183:
  2736                           
  2737                           ;main.c: 805:       fReceive_failed = 0;
  2738     02A8  01C3               	clrf	_fReceive_failed
  2739     02A9                     l3185:
  2740                           
  2741                           ;main.c: 806:       P2_ON();
  2742     02A9  3185  2597  3182   	fcall	_P2_ON
  2743     02AC                     l3187:
  2744                           
  2745                           ;main.c: 807:       HiBeam_OFF();
  2746     02AC  3185  259A  3182   	fcall	_HiBeam_OFF
  2747     02AF                     l3189:
  2748                           
  2749                           ;main.c: 808:       LoBeam_ON();
  2750     02AF  3185  255F  3182   	fcall	_LoBeam_ON
  2751     02B2                     l3191:
  2752                           
  2753                           ;main.c: 809:       POS_ON();
  2754     02B2  3185  2583  3182   	fcall	_POS_ON
  2755     02B5  2A85               	goto	l3165
  2756     02B6  3180  2826         	ljmp	start
  2757     02B8                     __end_of_main:
  2758                           
  2759                           	psect	text1
  2760     01FB                     __ptext1:	
  2761 ;; *************** function _getFrameData *****************
  2762 ;; Defined at:
  2763 ;;		line 563 in file "main.c"
  2764 ;; Parameters:    Size  Location     Type
  2765 ;;		None
  2766 ;; Auto vars:     Size  Location     Type
  2767 ;;		None
  2768 ;; Return value:  Size  Location     Type
  2769 ;;                  1    wreg      void 
  2770 ;; Registers used:
  2771 ;;		wreg, fsr0l, fsr0h, status,2, status,0
  2772 ;; Tracked objects:
  2773 ;;		On entry : 0/0
  2774 ;;		On exit  : 0/0
  2775 ;;		Unchanged: 0/0
  2776 ;; Data sizes:     COMMON   BANK0   BANK1   BANK2   BANK3   BANK4   BANK5   BANK6
  2777 ;;      Params:         0       0       0       0       0       0       0       0
  2778 ;;      Locals:         0       0       0       0       0       0       0       0
  2779 ;;      Temps:          0       0       0       0       0       0       0       0
  2780 ;;      Totals:         0       0       0       0       0       0       0       0
  2781 ;;Total ram usage:        0 bytes
  2782 ;; Hardware stack levels used: 1
  2783 ;; Hardware stack levels required when called: 4
  2784 ;; This function calls:
  2785 ;;		Nothing
  2786 ;; This function is called by:
  2787 ;;		_main
  2788 ;; This function uses a non-reentrant model
  2789 ;;
  2790                           
  2791     01FB                     _getFrameData:	
  2792                           ;psect for function _getFrameData
  2793                           
  2794     01FB                     l3069:	
  2795                           ;incstack = 0
  2796                           ; Regs used in _getFrameData: [wreg-fsr0h+status,2+status,0]
  2797                           
  2798                           
  2799                           ;main.c: 564:   if (data_1byte_OK == 1) {
  2800     01FB  0020               	movlb	0	; select bank0
  2801     01FC  034B               	decf	_data_1byte_OK,w	;volatile
  2802     01FD  1D03               	btfss	3,2
  2803     01FE  2A00               	goto	u1911
  2804     01FF  2A01               	goto	u1910
  2805     0200                     u1911:
  2806     0200  2A6B               	goto	l544
  2807     0201                     u1910:
  2808     0201                     l3071:
  2809                           
  2810                           ;main.c: 565:     data_1byte_OK = 0;
  2811     0201  01CB               	clrf	_data_1byte_OK	;volatile
  2812                           
  2813                           ;main.c: 568:     switch (step) {
  2814     0202  2A48               	goto	l3113
  2815     0203                     l3073:
  2816                           
  2817                           ;main.c: 570:       if (rx_data == 0xC8) {
  2818     0203  30C8               	movlw	200
  2819     0204  0674               	xorwf	_rx_data,w
  2820     0205  1D03               	btfss	3,2
  2821     0206  2A08               	goto	u1921
  2822     0207  2A09               	goto	u1920
  2823     0208                     u1921:
  2824     0208  2A0E               	goto	l3079
  2825     0209                     u1920:
  2826     0209                     l3075:
  2827                           
  2828                           ;main.c: 571:         step = 1;
  2829     0209  01C9               	clrf	_step
  2830     020A  0AC9               	incf	_step,f
  2831     020B                     l3077:
  2832                           
  2833                           ;main.c: 572:         data_buf[0] = rx_data;
  2834     020B  0874               	movf	_rx_data,w
  2835     020C  00A0               	movwf	_data_buf
  2836                           
  2837                           ;main.c: 573:       } else {
  2838     020D  2A6B               	goto	l544
  2839     020E                     l3079:
  2840                           
  2841                           ;main.c: 574:         step = 0;
  2842     020E  01C9               	clrf	_step
  2843     020F  2A6B               	goto	l544
  2844     0210                     l3081:
  2845                           
  2846                           ;main.c: 578:       if (rx_data == 0x8B) {
  2847     0210  308B               	movlw	139
  2848     0211  0674               	xorwf	_rx_data,w
  2849     0212  1D03               	btfss	3,2
  2850     0213  2A15               	goto	u1931
  2851     0214  2A16               	goto	u1930
  2852     0215                     u1931:
  2853     0215  2A0E               	goto	l3079
  2854     0216                     u1930:
  2855     0216                     l3083:
  2856                           
  2857                           ;main.c: 579:         data_buf[1] = rx_data;
  2858     0216  0874               	movf	_rx_data,w
  2859     0217  00A1               	movwf	_data_buf+1
  2860                           
  2861                           ;main.c: 580:         step = 2;
  2862     0218  3002               	movlw	2
  2863     0219  00C9               	movwf	_step
  2864                           
  2865                           ;main.c: 581:       } else {
  2866     021A  2A6B               	goto	l544
  2867     021B                     l3087:
  2868                           
  2869                           ;main.c: 586:       data_buf[2] = rx_data;
  2870     021B  0874               	movf	_rx_data,w
  2871     021C  00A2               	movwf	_data_buf+2
  2872                           
  2873                           ;main.c: 587:       step = 3;
  2874     021D  3003               	movlw	3
  2875     021E  00C9               	movwf	_step
  2876                           
  2877                           ;main.c: 588:       break;
  2878     021F  2A6B               	goto	l544
  2879     0220                     l3089:
  2880                           
  2881                           ;main.c: 590:       data_buf[3] = rx_data;
  2882     0220  0874               	movf	_rx_data,w
  2883     0221  00A3               	movwf	_data_buf+3
  2884                           
  2885                           ;main.c: 591:       step = 4;
  2886     0222  3004               	movlw	4
  2887     0223  00C9               	movwf	_step
  2888                           
  2889                           ;main.c: 592:       break;
  2890     0224  2A6B               	goto	l544
  2891     0225                     l3091:
  2892                           
  2893                           ;main.c: 594:       data_buf[4] = rx_data;
  2894     0225  0874               	movf	_rx_data,w
  2895     0226  00A4               	movwf	_data_buf+4
  2896                           
  2897                           ;main.c: 595:       step = 5;
  2898     0227  3005               	movlw	5
  2899     0228  00C9               	movwf	_step
  2900                           
  2901                           ;main.c: 596:       break;
  2902     0229  2A6B               	goto	l544
  2903     022A                     l3093:
  2904                           
  2905                           ;main.c: 598:       data_buf[5] = rx_data;
  2906     022A  0874               	movf	_rx_data,w
  2907     022B  00A5               	movwf	_data_buf+5
  2908                           
  2909                           ;main.c: 599:       step = 6;
  2910     022C  3006               	movlw	6
  2911     022D  00C9               	movwf	_step
  2912                           
  2913                           ;main.c: 600:       break;
  2914     022E  2A6B               	goto	l544
  2915     022F                     l3095:
  2916                           
  2917                           ;main.c: 602:       data_buf[6] = rx_data;
  2918     022F  0874               	movf	_rx_data,w
  2919     0230  00A6               	movwf	_data_buf+6
  2920                           
  2921                           ;main.c: 603:       step = 7;
  2922     0231  3007               	movlw	7
  2923     0232  00C9               	movwf	_step
  2924                           
  2925                           ;main.c: 604:       break;
  2926     0233  2A6B               	goto	l544
  2927     0234                     l3097:
  2928                           
  2929                           ;main.c: 606:       data_buf[7] = rx_data;
  2930     0234  0874               	movf	_rx_data,w
  2931     0235  00A7               	movwf	_data_buf+7
  2932                           
  2933                           ;main.c: 607:       step = 8;
  2934     0236  3008               	movlw	8
  2935     0237  00C9               	movwf	_step
  2936                           
  2937                           ;main.c: 608:       break;
  2938     0238  2A6B               	goto	l544
  2939     0239                     l3099:
  2940                           
  2941                           ;main.c: 610:       data_buf[8] = rx_data;
  2942     0239  0874               	movf	_rx_data,w
  2943     023A  00A8               	movwf	_data_buf+8
  2944                           
  2945                           ;main.c: 611:       step = 9;
  2946     023B  3009               	movlw	9
  2947     023C  00C9               	movwf	_step
  2948                           
  2949                           ;main.c: 612:       break;
  2950     023D  2A6B               	goto	l544
  2951     023E                     l3101:
  2952                           
  2953                           ;main.c: 614:       data_buf[9] = rx_data;
  2954     023E  0874               	movf	_rx_data,w
  2955     023F  00A9               	movwf	_data_buf+9
  2956                           
  2957                           ;main.c: 615:       step = 10;
  2958     0240  300A               	movlw	10
  2959     0241  00C9               	movwf	_step
  2960                           
  2961                           ;main.c: 616:       break;
  2962     0242  2A6B               	goto	l544
  2963     0243                     l3103:
  2964                           
  2965                           ;main.c: 618:       data_buf[10] = rx_data;
  2966     0243  0874               	movf	_rx_data,w
  2967     0244  00AA               	movwf	_data_buf+10
  2968     0245                     l3105:
  2969                           
  2970                           ;main.c: 619:       fFrame_OK = 1;
  2971     0245  01CA               	clrf	_fFrame_OK
  2972     0246  0ACA               	incf	_fFrame_OK,f
  2973     0247  2A0E               	goto	l3079
  2974     0248                     l3113:
  2975     0248  0849               	movf	_step,w
  2976                           
  2977                           ; Switch size 1, requested type "simple"
  2978                           ; Number of cases is 11, Range of values is 0 to 10
  2979                           ; switch strategies available:
  2980                           ; Name         Instructions Cycles
  2981                           ; direct_byte           28     6 (fixed)
  2982                           ; simple_byte           34    18 (average)
  2983                           ; jumptable            260     6 (fixed)
  2984                           ;	Chosen strategy is simple_byte
  2985     0249  3A00               	xorlw	0	; case 0
  2986     024A  1903               	skipnz
  2987     024B  2A03               	goto	l3073
  2988     024C  3A01               	xorlw	1	; case 1
  2989     024D  1903               	skipnz
  2990     024E  2A10               	goto	l3081
  2991     024F  3A03               	xorlw	3	; case 2
  2992     0250  1903               	skipnz
  2993     0251  2A1B               	goto	l3087
  2994     0252  3A01               	xorlw	1	; case 3
  2995     0253  1903               	skipnz
  2996     0254  2A20               	goto	l3089
  2997     0255  3A07               	xorlw	7	; case 4
  2998     0256  1903               	skipnz
  2999     0257  2A25               	goto	l3091
  3000     0258  3A01               	xorlw	1	; case 5
  3001     0259  1903               	skipnz
  3002     025A  2A2A               	goto	l3093
  3003     025B  3A03               	xorlw	3	; case 6
  3004     025C  1903               	skipnz
  3005     025D  2A2F               	goto	l3095
  3006     025E  3A01               	xorlw	1	; case 7
  3007     025F  1903               	skipnz
  3008     0260  2A34               	goto	l3097
  3009     0261  3A0F               	xorlw	15	; case 8
  3010     0262  1903               	skipnz
  3011     0263  2A39               	goto	l3099
  3012     0264  3A01               	xorlw	1	; case 9
  3013     0265  1903               	skipnz
  3014     0266  2A3E               	goto	l3101
  3015     0267  3A03               	xorlw	3	; case 10
  3016     0268  1903               	skipnz
  3017     0269  2A43               	goto	l3103
  3018     026A  2A0E               	goto	l3079
  3019     026B                     l544:
  3020     026B  0008               	return
  3021     026C                     __end_of_getFrameData:
  3022                           
  3023                           	psect	text2
  3024     03D6                     __ptext2:	
  3025 ;; *************** function _check_input *****************
  3026 ;; Defined at:
  3027 ;;		line 515 in file "main.c"
  3028 ;; Parameters:    Size  Location     Type
  3029 ;;		None
  3030 ;; Auto vars:     Size  Location     Type
  3031 ;;		None
  3032 ;; Return value:  Size  Location     Type
  3033 ;;                  1    wreg      void 
  3034 ;; Registers used:
  3035 ;;		wreg, status,2
  3036 ;; Tracked objects:
  3037 ;;		On entry : 0/0
  3038 ;;		On exit  : 0/0
  3039 ;;		Unchanged: 0/0
  3040 ;; Data sizes:     COMMON   BANK0   BANK1   BANK2   BANK3   BANK4   BANK5   BANK6
  3041 ;;      Params:         0       0       0       0       0       0       0       0
  3042 ;;      Locals:         0       0       0       0       0       0       0       0
  3043 ;;      Temps:          0       0       0       0       0       0       0       0
  3044 ;;      Totals:         0       0       0       0       0       0       0       0
  3045 ;;Total ram usage:        0 bytes
  3046 ;; Hardware stack levels used: 1
  3047 ;; Hardware stack levels required when called: 4
  3048 ;; This function calls:
  3049 ;;		Nothing
  3050 ;; This function is called by:
  3051 ;;		_main
  3052 ;; This function uses a non-reentrant model
  3053 ;;
  3054                           
  3055     03D6                     _check_input:	
  3056                           ;psect for function _check_input
  3057                           
  3058     03D6                     l3053:	
  3059                           ;incstack = 0
  3060                           ; Regs used in _check_input: [wreg+status,2]
  3061                           
  3062                           
  3063                           ;main.c: 516:   D2.Byte = data_buf[2];
  3064     03D6  0020               	movlb	0	; select bank0
  3065     03D7  0822               	movf	_data_buf+2,w
  3066     03D8  00F3               	movwf	_D2
  3067                           
  3068                           ;main.c: 517:   D3.Byte = data_buf[3];
  3069     03D9  0823               	movf	_data_buf+3,w
  3070     03DA  00C8               	movwf	_D3
  3071     03DB                     l3055:
  3072                           
  3073                           ;main.c: 518:   csFlag.Byte = 0;
  3074     03DB  01F2               	clrf	_csFlag
  3075     03DC                     l3057:
  3076                           
  3077                           ;main.c: 521:   csFlag.POS = D2.POS;
  3078     03DC  12F2               	bcf	_csFlag,5
  3079     03DD  1D73               	btfss	_D2,2
  3080     03DE  2BE0               	goto	u1855
  3081     03DF  16F2               	bsf	_csFlag,5
  3082     03E0                     u1855:
  3083     03E0                     l3059:
  3084                           
  3085                           ;main.c: 522:   csFlag.DRL = D2.DRL;
  3086     03E0  1272               	bcf	_csFlag,4
  3087     03E1  1DF3               	btfss	_D2,3
  3088     03E2  2BE4               	goto	u1865
  3089     03E3  1672               	bsf	_csFlag,4
  3090     03E4                     u1865:
  3091     03E4                     l3061:
  3092                           
  3093                           ;main.c: 523:   csFlag.LoBeam = D2.LoBeam;
  3094     03E4  11F2               	bcf	_csFlag,3
  3095     03E5  1E73               	btfss	_D2,4
  3096     03E6  2BE8               	goto	u1875
  3097     03E7  15F2               	bsf	_csFlag,3
  3098     03E8                     u1875:
  3099     03E8                     l3063:
  3100                           
  3101                           ;main.c: 524:   csFlag.HiBeam = D2.HiBeam;
  3102     03E8  1172               	bcf	_csFlag,2
  3103     03E9  1EF3               	btfss	_D2,5
  3104     03EA  2BEC               	goto	u1885
  3105     03EB  1572               	bsf	_csFlag,2
  3106     03EC                     u1885:
  3107     03EC                     l3065:
  3108                           
  3109                           ;main.c: 525:   csFlag.turnLight_L = D3.turnLight_L;
  3110     03EC  10F2               	bcf	_csFlag,1
  3111     03ED  0020               	movlb	0	; select bank0
  3112     03EE  1EC8               	btfss	_D3,5
  3113     03EF  2BF1               	goto	u1895
  3114     03F0  14F2               	bsf	_csFlag,1
  3115     03F1                     u1895:
  3116     03F1                     l3067:
  3117                           
  3118                           ;main.c: 526:   csFlag.turnLight_R = D3.turnLight_R;
  3119     03F1  1072               	bcf	_csFlag,0
  3120     03F2  0020               	movlb	0	; select bank0
  3121     03F3  1F48               	btfss	_D3,6
  3122     03F4  2BF6               	goto	u1905
  3123     03F5  1472               	bsf	_csFlag,0
  3124     03F6                     u1905:
  3125     03F6                     l522:
  3126     03F6  0008               	return
  3127     03F7                     __end_of_check_input:
  3128                           
  3129                           	psect	text3
  3130     0414                     __ptext3:	
  3131 ;; *************** function _SYSTEM_Initialize *****************
  3132 ;; Defined at:
  3133 ;;		line 50 in file "mcc_generated_files/mcc.c"
  3134 ;; Parameters:    Size  Location     Type
  3135 ;;		None
  3136 ;; Auto vars:     Size  Location     Type
  3137 ;;		None
  3138 ;; Return value:  Size  Location     Type
  3139 ;;                  1    wreg      void 
  3140 ;; Registers used:
  3141 ;;		wreg, status,2, status,0, pclath, cstack
  3142 ;; Tracked objects:
  3143 ;;		On entry : 0/0
  3144 ;;		On exit  : 0/0
  3145 ;;		Unchanged: 0/0
  3146 ;; Data sizes:     COMMON   BANK0   BANK1   BANK2   BANK3   BANK4   BANK5   BANK6
  3147 ;;      Params:         0       0       0       0       0       0       0       0
  3148 ;;      Locals:         0       0       0       0       0       0       0       0
  3149 ;;      Temps:          0       0       0       0       0       0       0       0
  3150 ;;      Totals:         0       0       0       0       0       0       0       0
  3151 ;;Total ram usage:        0 bytes
  3152 ;; Hardware stack levels used: 1
  3153 ;; Hardware stack levels required when called: 6
  3154 ;; This function calls:
  3155 ;;		_ECCP3_Initialize
  3156 ;;		_EPWM1_Initialize
  3157 ;;		_EPWM2_Initialize
  3158 ;;		_OSCILLATOR_Initialize
  3159 ;;		_PIN_MANAGER_Initialize
  3160 ;;		_TMR0_Initialize
  3161 ;;		_TMR1_Initialize
  3162 ;;		_TMR2_Initialize
  3163 ;;		_WDT_Initialize
  3164 ;; This function is called by:
  3165 ;;		_main
  3166 ;; This function uses a non-reentrant model
  3167 ;;
  3168                           
  3169     0414                     _SYSTEM_Initialize:	
  3170                           ;psect for function _SYSTEM_Initialize
  3171                           
  3172     0414                     l2847:	
  3173                           ;incstack = 0
  3174                           ; Regs used in _SYSTEM_Initialize: [wreg+status,2+status,0+pclath+cstack]
  3175                           
  3176                           
  3177                           ;mcc_generated_files/mcc.c: 53:     PIN_MANAGER_Initialize();
  3178     0414  3183  23F7  3184   	fcall	_PIN_MANAGER_Initialize
  3179                           
  3180                           ;mcc_generated_files/mcc.c: 54:     OSCILLATOR_Initialize();
  3181     0417  3185  2514  3184   	fcall	_OSCILLATOR_Initialize
  3182                           
  3183                           ;mcc_generated_files/mcc.c: 55:     WDT_Initialize();
  3184     041A  3185  257F  3184   	fcall	_WDT_Initialize
  3185                           
  3186                           ;mcc_generated_files/mcc.c: 56:     EPWM2_Initialize();
  3187     041D  3184  24ED  3184   	fcall	_EPWM2_Initialize
  3188                           
  3189                           ;mcc_generated_files/mcc.c: 57:     EPWM1_Initialize();
  3190     0420  3184  24FA  3184   	fcall	_EPWM1_Initialize
  3191                           
  3192                           ;mcc_generated_files/mcc.c: 58:     TMR2_Initialize();
  3193     0423  3185  254B  3184   	fcall	_TMR2_Initialize
  3194                           
  3195                           ;mcc_generated_files/mcc.c: 59:     ECCP3_Initialize();
  3196     0426  3185  2538  3184   	fcall	_ECCP3_Initialize
  3197                           
  3198                           ;mcc_generated_files/mcc.c: 60:     TMR1_Initialize();
  3199     0429  3184  24E0  3184   	fcall	_TMR1_Initialize
  3200                           
  3201                           ;mcc_generated_files/mcc.c: 61:     TMR0_Initialize();
  3202     042C  3184  2499  3184   	fcall	_TMR0_Initialize
  3203     042F                     l31:
  3204     042F  0008               	return
  3205     0430                     __end_of_SYSTEM_Initialize:
  3206                           
  3207                           	psect	text4
  3208     057F                     __ptext4:	
  3209 ;; *************** function _WDT_Initialize *****************
  3210 ;; Defined at:
  3211 ;;		line 78 in file "mcc_generated_files/mcc.c"
  3212 ;; Parameters:    Size  Location     Type
  3213 ;;		None
  3214 ;; Auto vars:     Size  Location     Type
  3215 ;;		None
  3216 ;; Return value:  Size  Location     Type
  3217 ;;                  1    wreg      void 
  3218 ;; Registers used:
  3219 ;;		wreg
  3220 ;; Tracked objects:
  3221 ;;		On entry : 0/0
  3222 ;;		On exit  : 0/0
  3223 ;;		Unchanged: 0/0
  3224 ;; Data sizes:     COMMON   BANK0   BANK1   BANK2   BANK3   BANK4   BANK5   BANK6
  3225 ;;      Params:         0       0       0       0       0       0       0       0
  3226 ;;      Locals:         0       0       0       0       0       0       0       0
  3227 ;;      Temps:          0       0       0       0       0       0       0       0
  3228 ;;      Totals:         0       0       0       0       0       0       0       0
  3229 ;;Total ram usage:        0 bytes
  3230 ;; Hardware stack levels used: 1
  3231 ;; Hardware stack levels required when called: 4
  3232 ;; This function calls:
  3233 ;;		Nothing
  3234 ;; This function is called by:
  3235 ;;		_SYSTEM_Initialize
  3236 ;; This function uses a non-reentrant model
  3237 ;;
  3238                           
  3239     057F                     _WDT_Initialize:	
  3240                           ;psect for function _WDT_Initialize
  3241                           
  3242     057F                     l2653:	
  3243                           ;incstack = 0
  3244                           ; Regs used in _WDT_Initialize: [wreg]
  3245                           
  3246                           
  3247                           ;mcc_generated_files/mcc.c: 81:     WDTCON = 0x16;
  3248     057F  3016               	movlw	22
  3249     0580  0021               	movlb	1	; select bank1
  3250     0581  0097               	movwf	23	;volatile
  3251     0582                     l40:
  3252     0582  0008               	return
  3253     0583                     __end_of_WDT_Initialize:
  3254                           
  3255                           	psect	text5
  3256     054B                     __ptext5:	
  3257 ;; *************** function _TMR2_Initialize *****************
  3258 ;; Defined at:
  3259 ;;		line 62 in file "mcc_generated_files/tmr2.c"
  3260 ;; Parameters:    Size  Location     Type
  3261 ;;		None
  3262 ;; Auto vars:     Size  Location     Type
  3263 ;;		None
  3264 ;; Return value:  Size  Location     Type
  3265 ;;                  1    wreg      void 
  3266 ;; Registers used:
  3267 ;;		wreg, status,2
  3268 ;; Tracked objects:
  3269 ;;		On entry : 0/0
  3270 ;;		On exit  : 0/0
  3271 ;;		Unchanged: 0/0
  3272 ;; Data sizes:     COMMON   BANK0   BANK1   BANK2   BANK3   BANK4   BANK5   BANK6
  3273 ;;      Params:         0       0       0       0       0       0       0       0
  3274 ;;      Locals:         0       0       0       0       0       0       0       0
  3275 ;;      Temps:          0       0       0       0       0       0       0       0
  3276 ;;      Totals:         0       0       0       0       0       0       0       0
  3277 ;;Total ram usage:        0 bytes
  3278 ;; Hardware stack levels used: 1
  3279 ;; Hardware stack levels required when called: 4
  3280 ;; This function calls:
  3281 ;;		Nothing
  3282 ;; This function is called by:
  3283 ;;		_SYSTEM_Initialize
  3284 ;; This function uses a non-reentrant model
  3285 ;;
  3286                           
  3287     054B                     _TMR2_Initialize:	
  3288                           ;psect for function _TMR2_Initialize
  3289                           
  3290     054B                     l2683:	
  3291                           ;incstack = 0
  3292                           ; Regs used in _TMR2_Initialize: [wreg+status,2]
  3293                           
  3294                           
  3295                           ;mcc_generated_files/tmr2.c: 67:     PR2 = 0xC8;
  3296     054B  30C8               	movlw	200
  3297     054C  0020               	movlb	0	; select bank0
  3298     054D  009B               	movwf	27	;volatile
  3299     054E                     l2685:
  3300                           
  3301                           ;mcc_generated_files/tmr2.c: 70:     TMR2 = 0x00;
  3302     054E  019A               	clrf	26	;volatile
  3303     054F                     l2687:
  3304                           
  3305                           ;mcc_generated_files/tmr2.c: 73:     PIR1bits.TMR2IF = 0;
  3306     054F  1091               	bcf	17,1	;volatile
  3307     0550                     l2689:
  3308                           
  3309                           ;mcc_generated_files/tmr2.c: 76:     T2CON = 0x07;
  3310     0550  3007               	movlw	7
  3311     0551  009C               	movwf	28	;volatile
  3312     0552                     l197:
  3313     0552  0008               	return
  3314     0553                     __end_of_TMR2_Initialize:
  3315                           
  3316                           	psect	text6
  3317     04E0                     __ptext6:	
  3318 ;; *************** function _TMR1_Initialize *****************
  3319 ;; Defined at:
  3320 ;;		line 63 in file "mcc_generated_files/tmr1.c"
  3321 ;; Parameters:    Size  Location     Type
  3322 ;;		None
  3323 ;; Auto vars:     Size  Location     Type
  3324 ;;		None
  3325 ;; Return value:  Size  Location     Type
  3326 ;;                  1    wreg      void 
  3327 ;; Registers used:
  3328 ;;		wreg, status,2
  3329 ;; Tracked objects:
  3330 ;;		On entry : 0/0
  3331 ;;		On exit  : 0/0
  3332 ;;		Unchanged: 0/0
  3333 ;; Data sizes:     COMMON   BANK0   BANK1   BANK2   BANK3   BANK4   BANK5   BANK6
  3334 ;;      Params:         0       0       0       0       0       0       0       0
  3335 ;;      Locals:         0       0       0       0       0       0       0       0
  3336 ;;      Temps:          0       0       0       0       0       0       0       0
  3337 ;;      Totals:         0       0       0       0       0       0       0       0
  3338 ;;Total ram usage:        0 bytes
  3339 ;; Hardware stack levels used: 1
  3340 ;; Hardware stack levels required when called: 4
  3341 ;; This function calls:
  3342 ;;		Nothing
  3343 ;; This function is called by:
  3344 ;;		_SYSTEM_Initialize
  3345 ;; This function uses a non-reentrant model
  3346 ;;
  3347                           
  3348     04E0                     _TMR1_Initialize:	
  3349                           ;psect for function _TMR1_Initialize
  3350                           
  3351     04E0                     l2701:	
  3352                           ;incstack = 0
  3353                           ; Regs used in _TMR1_Initialize: [wreg+status,2]
  3354                           
  3355                           
  3356                           ;mcc_generated_files/tmr1.c: 68:     T1GCON = 0x10;
  3357     04E0  3010               	movlw	16
  3358     04E1  0020               	movlb	0	; select bank0
  3359     04E2  0099               	movwf	25	;volatile
  3360     04E3                     l2703:
  3361                           
  3362                           ;mcc_generated_files/tmr1.c: 71:     TMR1H = 0x00;
  3363     04E3  0197               	clrf	23	;volatile
  3364     04E4                     l2705:
  3365                           
  3366                           ;mcc_generated_files/tmr1.c: 74:     TMR1L = 0x00;
  3367     04E4  0196               	clrf	22	;volatile
  3368     04E5                     l2707:
  3369                           
  3370                           ;mcc_generated_files/tmr1.c: 77:     PIR1bits.TMR1IF = 0;
  3371     04E5  1011               	bcf	17,0	;volatile
  3372                           
  3373                           ;mcc_generated_files/tmr1.c: 80:     timer1ReloadVal=(uint16_t)((TMR1H << 8) | TMR1L);
  3374     04E6  0817               	movf	23,w	;volatile
  3375     04E7  00B8               	movwf	_timer1ReloadVal+1	;volatile
  3376     04E8  0816               	movf	22,w	;volatile
  3377     04E9  00B7               	movwf	_timer1ReloadVal	;volatile
  3378                           
  3379                           ;mcc_generated_files/tmr1.c: 83:     T1CON = 0x01;
  3380     04EA  3001               	movlw	1
  3381     04EB  0098               	movwf	24	;volatile
  3382     04EC                     l80:
  3383     04EC  0008               	return
  3384     04ED                     __end_of_TMR1_Initialize:
  3385                           
  3386                           	psect	text7
  3387     0499                     __ptext7:	
  3388 ;; *************** function _TMR0_Initialize *****************
  3389 ;; Defined at:
  3390 ;;		line 64 in file "mcc_generated_files/tmr0.c"
  3391 ;; Parameters:    Size  Location     Type
  3392 ;;		None
  3393 ;; Auto vars:     Size  Location     Type
  3394 ;;		None
  3395 ;; Return value:  Size  Location     Type
  3396 ;;                  1    wreg      void 
  3397 ;; Registers used:
  3398 ;;		wreg, status,2, status,0, pclath, cstack
  3399 ;; Tracked objects:
  3400 ;;		On entry : 0/0
  3401 ;;		On exit  : 0/0
  3402 ;;		Unchanged: 0/0
  3403 ;; Data sizes:     COMMON   BANK0   BANK1   BANK2   BANK3   BANK4   BANK5   BANK6
  3404 ;;      Params:         0       0       0       0       0       0       0       0
  3405 ;;      Locals:         0       0       0       0       0       0       0       0
  3406 ;;      Temps:          0       0       0       0       0       0       0       0
  3407 ;;      Totals:         0       0       0       0       0       0       0       0
  3408 ;;Total ram usage:        0 bytes
  3409 ;; Hardware stack levels used: 1
  3410 ;; Hardware stack levels required when called: 5
  3411 ;; This function calls:
  3412 ;;		_TMR0_SetInterruptHandler
  3413 ;; This function is called by:
  3414 ;;		_SYSTEM_Initialize
  3415 ;; This function uses a non-reentrant model
  3416 ;;
  3417                           
  3418     0499                     _TMR0_Initialize:	
  3419                           ;psect for function _TMR0_Initialize
  3420                           
  3421     0499                     l2709:	
  3422                           ;incstack = 0
  3423                           ; Regs used in _TMR0_Initialize: [wreg+status,2+status,0+pclath+cstack]
  3424                           
  3425                           
  3426                           ;mcc_generated_files/tmr0.c: 69:     OPTION_REG = (uint8_t)((OPTION_REG & 0xC0) | (0xD4 
      +                          & 0x3F));
  3427     0499  0021               	movlb	1	; select bank1
  3428     049A  0815               	movf	21,w	;volatile
  3429     049B  39C0               	andlw	192
  3430     049C  3814               	iorlw	20
  3431     049D  0095               	movwf	21	;volatile
  3432     049E                     l2711:
  3433                           
  3434                           ;mcc_generated_files/tmr0.c: 72:     TMR0 = 0x06;
  3435     049E  3006               	movlw	6
  3436     049F  0020               	movlb	0	; select bank0
  3437     04A0  0095               	movwf	21	;volatile
  3438     04A1                     l2713:
  3439                           
  3440                           ;mcc_generated_files/tmr0.c: 75:     timer0ReloadVal= 6;
  3441     04A1  3006               	movlw	6
  3442     04A2  00F5               	movwf	_timer0ReloadVal	;volatile
  3443     04A3                     l2715:
  3444                           
  3445                           ;mcc_generated_files/tmr0.c: 78:     INTCONbits.TMR0IF = 0;
  3446     04A3  110B               	bcf	11,2	;volatile
  3447     04A4                     l2717:
  3448                           
  3449                           ;mcc_generated_files/tmr0.c: 81:     INTCONbits.TMR0IE = 1;
  3450     04A4  168B               	bsf	11,5	;volatile
  3451     04A5                     l2719:
  3452                           
  3453                           ;mcc_generated_files/tmr0.c: 84:     TMR0_SetInterruptHandler(TMR0_DefaultInterruptHandl
      +                          er);
  3454     04A5  30BA               	movlw	low _TMR0_DefaultInterruptHandler
  3455     04A6  00CC               	movwf	TMR0_SetInterruptHandler@InterruptHandler
  3456     04A7  3005               	movlw	high _TMR0_DefaultInterruptHandler
  3457     04A8  00CD               	movwf	TMR0_SetInterruptHandler@InterruptHandler+1
  3458     04A9  3185  2559  3184   	fcall	_TMR0_SetInterruptHandler
  3459     04AC                     l159:
  3460     04AC  0008               	return
  3461     04AD                     __end_of_TMR0_Initialize:
  3462                           
  3463                           	psect	text8
  3464     0559                     __ptext8:	
  3465 ;; *************** function _TMR0_SetInterruptHandler *****************
  3466 ;; Defined at:
  3467 ;;		line 140 in file "mcc_generated_files/tmr0.c"
  3468 ;; Parameters:    Size  Location     Type
  3469 ;;  InterruptHan    2    0[BANK0 ] PTR FTN()void 
  3470 ;;		 -> TMR0_10MS_EvenHandler(1), TMR0_DefaultInterruptHandler(1), 
  3471 ;; Auto vars:     Size  Location     Type
  3472 ;;		None
  3473 ;; Return value:  Size  Location     Type
  3474 ;;                  1    wreg      void 
  3475 ;; Registers used:
  3476 ;;		wreg
  3477 ;; Tracked objects:
  3478 ;;		On entry : 0/0
  3479 ;;		On exit  : 0/0
  3480 ;;		Unchanged: 0/0
  3481 ;; Data sizes:     COMMON   BANK0   BANK1   BANK2   BANK3   BANK4   BANK5   BANK6
  3482 ;;      Params:         0       2       0       0       0       0       0       0
  3483 ;;      Locals:         0       0       0       0       0       0       0       0
  3484 ;;      Temps:          0       0       0       0       0       0       0       0
  3485 ;;      Totals:         0       2       0       0       0       0       0       0
  3486 ;;Total ram usage:        2 bytes
  3487 ;; Hardware stack levels used: 1
  3488 ;; Hardware stack levels required when called: 4
  3489 ;; This function calls:
  3490 ;;		Nothing
  3491 ;; This function is called by:
  3492 ;;		_TMR0_Initialize
  3493 ;;		_main
  3494 ;; This function uses a non-reentrant model
  3495 ;;
  3496                           
  3497     0559                     _TMR0_SetInterruptHandler:	
  3498                           ;psect for function _TMR0_SetInterruptHandler
  3499                           
  3500     0559                     l2611:	
  3501                           ;incstack = 0
  3502                           ; Regs used in _TMR0_SetInterruptHandler: [wreg]
  3503                           
  3504                           
  3505                           ;mcc_generated_files/tmr0.c: 141:     TMR0_InterruptHandler = InterruptHandler;
  3506     0559  0020               	movlb	0	; select bank0
  3507     055A  084D               	movf	TMR0_SetInterruptHandler@InterruptHandler+1,w
  3508     055B  00B6               	movwf	_TMR0_InterruptHandler+1
  3509     055C  084C               	movf	TMR0_SetInterruptHandler@InterruptHandler,w
  3510     055D  00B5               	movwf	_TMR0_InterruptHandler
  3511     055E                     l181:
  3512     055E  0008               	return
  3513     055F                     __end_of_TMR0_SetInterruptHandler:
  3514                           
  3515                           	psect	text9
  3516     03F7                     __ptext9:	
  3517 ;; *************** function _PIN_MANAGER_Initialize *****************
  3518 ;; Defined at:
  3519 ;;		line 55 in file "mcc_generated_files/pin_manager.c"
  3520 ;; Parameters:    Size  Location     Type
  3521 ;;		None
  3522 ;; Auto vars:     Size  Location     Type
  3523 ;;		None
  3524 ;; Return value:  Size  Location     Type
  3525 ;;                  1    wreg      void 
  3526 ;; Registers used:
  3527 ;;		wreg, status,2
  3528 ;; Tracked objects:
  3529 ;;		On entry : 0/0
  3530 ;;		On exit  : 0/0
  3531 ;;		Unchanged: 0/0
  3532 ;; Data sizes:     COMMON   BANK0   BANK1   BANK2   BANK3   BANK4   BANK5   BANK6
  3533 ;;      Params:         0       0       0       0       0       0       0       0
  3534 ;;      Locals:         0       0       0       0       0       0       0       0
  3535 ;;      Temps:          0       0       0       0       0       0       0       0
  3536 ;;      Totals:         0       0       0       0       0       0       0       0
  3537 ;;Total ram usage:        0 bytes
  3538 ;; Hardware stack levels used: 1
  3539 ;; Hardware stack levels required when called: 4
  3540 ;; This function calls:
  3541 ;;		Nothing
  3542 ;; This function is called by:
  3543 ;;		_SYSTEM_Initialize
  3544 ;; This function uses a non-reentrant model
  3545 ;;
  3546                           
  3547     03F7                     _PIN_MANAGER_Initialize:	
  3548                           ;psect for function _PIN_MANAGER_Initialize
  3549                           
  3550     03F7                     l2625:	
  3551                           ;incstack = 0
  3552                           ; Regs used in _PIN_MANAGER_Initialize: [wreg+status,2]
  3553                           
  3554                           
  3555                           ;mcc_generated_files/pin_manager.c: 60:     LATE = 0x00;
  3556     03F7  0022               	movlb	2	; select bank2
  3557     03F8  0190               	clrf	16	;volatile
  3558                           
  3559                           ;mcc_generated_files/pin_manager.c: 61:     LATA = 0x00;
  3560     03F9  018C               	clrf	12	;volatile
  3561                           
  3562                           ;mcc_generated_files/pin_manager.c: 62:     LATB = 0x00;
  3563     03FA  018D               	clrf	13	;volatile
  3564     03FB                     l2627:
  3565                           
  3566                           ;mcc_generated_files/pin_manager.c: 63:     LATC = 0x10;
  3567     03FB  3010               	movlw	16
  3568     03FC  008E               	movwf	14	;volatile
  3569     03FD                     l2629:
  3570                           
  3571                           ;mcc_generated_files/pin_manager.c: 68:     TRISE = 0x08;
  3572     03FD  3008               	movlw	8
  3573     03FE  0021               	movlb	1	; select bank1
  3574     03FF  0090               	movwf	16	;volatile
  3575     0400                     l2631:
  3576                           
  3577                           ;mcc_generated_files/pin_manager.c: 69:     TRISA = 0xFE;
  3578     0400  30FE               	movlw	254
  3579     0401  008C               	movwf	12	;volatile
  3580     0402                     l2633:
  3581                           
  3582                           ;mcc_generated_files/pin_manager.c: 70:     TRISB = 0x7F;
  3583     0402  307F               	movlw	127
  3584     0403  008D               	movwf	13	;volatile
  3585     0404                     l2635:
  3586                           
  3587                           ;mcc_generated_files/pin_manager.c: 71:     TRISC = 0xE9;
  3588     0404  30E9               	movlw	233
  3589     0405  008E               	movwf	14	;volatile
  3590     0406                     l2637:
  3591                           
  3592                           ;mcc_generated_files/pin_manager.c: 76:     ANSELB = 0x13;
  3593     0406  3013               	movlw	19
  3594     0407  0023               	movlb	3	; select bank3
  3595     0408  008D               	movwf	13	;volatile
  3596     0409                     l2639:
  3597                           
  3598                           ;mcc_generated_files/pin_manager.c: 77:     ANSELA = 0x3F;
  3599     0409  303F               	movlw	63
  3600     040A  008C               	movwf	12	;volatile
  3601     040B                     l2641:
  3602                           
  3603                           ;mcc_generated_files/pin_manager.c: 82:     WPUE = 0x00;
  3604     040B  0024               	movlb	4	; select bank4
  3605     040C  0190               	clrf	16	;volatile
  3606                           
  3607                           ;mcc_generated_files/pin_manager.c: 83:     WPUB = 0x2C;
  3608     040D  302C               	movlw	44
  3609     040E  008D               	movwf	13	;volatile
  3610     040F                     l2643:
  3611                           
  3612                           ;mcc_generated_files/pin_manager.c: 84:     OPTION_REGbits.nWPUEN = 0;
  3613     040F  0021               	movlb	1	; select bank1
  3614     0410  1395               	bcf	21,7	;volatile
  3615     0411                     l2645:
  3616                           
  3617                           ;mcc_generated_files/pin_manager.c: 90:     APFCON = 0x00;
  3618     0411  0022               	movlb	2	; select bank2
  3619     0412  019D               	clrf	29	;volatile
  3620     0413                     l137:
  3621     0413  0008               	return
  3622     0414                     __end_of_PIN_MANAGER_Initialize:
  3623                           
  3624                           	psect	text10
  3625     0514                     __ptext10:	
  3626 ;; *************** function _OSCILLATOR_Initialize *****************
  3627 ;; Defined at:
  3628 ;;		line 64 in file "mcc_generated_files/mcc.c"
  3629 ;; Parameters:    Size  Location     Type
  3630 ;;		None
  3631 ;; Auto vars:     Size  Location     Type
  3632 ;;		None
  3633 ;; Return value:  Size  Location     Type
  3634 ;;                  1    wreg      void 
  3635 ;; Registers used:
  3636 ;;		wreg, status,2
  3637 ;; Tracked objects:
  3638 ;;		On entry : 0/0
  3639 ;;		On exit  : 0/0
  3640 ;;		Unchanged: 0/0
  3641 ;; Data sizes:     COMMON   BANK0   BANK1   BANK2   BANK3   BANK4   BANK5   BANK6
  3642 ;;      Params:         0       0       0       0       0       0       0       0
  3643 ;;      Locals:         0       0       0       0       0       0       0       0
  3644 ;;      Temps:          0       0       0       0       0       0       0       0
  3645 ;;      Totals:         0       0       0       0       0       0       0       0
  3646 ;;Total ram usage:        0 bytes
  3647 ;; Hardware stack levels used: 1
  3648 ;; Hardware stack levels required when called: 4
  3649 ;; This function calls:
  3650 ;;		Nothing
  3651 ;; This function is called by:
  3652 ;;		_SYSTEM_Initialize
  3653 ;; This function uses a non-reentrant model
  3654 ;;
  3655                           
  3656     0514                     _OSCILLATOR_Initialize:	
  3657                           ;psect for function _OSCILLATOR_Initialize
  3658                           
  3659     0514                     l2647:	
  3660                           ;incstack = 0
  3661                           ; Regs used in _OSCILLATOR_Initialize: [wreg+status,2]
  3662                           
  3663                           
  3664                           ;mcc_generated_files/mcc.c: 67:     OSCCON = 0x70;
  3665     0514  3070               	movlw	112
  3666     0515  0021               	movlb	1	; select bank1
  3667     0516  0099               	movwf	25	;volatile
  3668     0517                     l2649:
  3669                           
  3670                           ;mcc_generated_files/mcc.c: 69:     OSCTUNE = 0x00;
  3671     0517  0198               	clrf	24	;volatile
  3672     0518                     l2651:
  3673                           
  3674                           ;mcc_generated_files/mcc.c: 71:     BORCON = 0x00;
  3675     0518  0022               	movlb	2	; select bank2
  3676     0519  0196               	clrf	22	;volatile
  3677     051A                     l34:	
  3678                           ;mcc_generated_files/mcc.c: 74:     {;mcc_generated_files/mcc.c: 75:     }
  3679                           
  3680                           
  3681                           ;mcc_generated_files/mcc.c: 73:     while(PLLR == 0)
  3682     051A  0021               	movlb	1	; select bank1
  3683     051B  1F1A               	btfss	26,6	;volatile
  3684     051C  2D1E               	goto	u1481
  3685     051D  2D1F               	goto	u1480
  3686     051E                     u1481:
  3687     051E  2D1A               	goto	l34
  3688     051F                     u1480:
  3689     051F                     l37:
  3690     051F  0008               	return
  3691     0520                     __end_of_OSCILLATOR_Initialize:
  3692                           
  3693                           	psect	text11
  3694     04ED                     __ptext11:	
  3695 ;; *************** function _EPWM2_Initialize *****************
  3696 ;; Defined at:
  3697 ;;		line 64 in file "mcc_generated_files/epwm2.c"
  3698 ;; Parameters:    Size  Location     Type
  3699 ;;		None
  3700 ;; Auto vars:     Size  Location     Type
  3701 ;;		None
  3702 ;; Return value:  Size  Location     Type
  3703 ;;                  1    wreg      void 
  3704 ;; Registers used:
  3705 ;;		wreg, status,2, status,0
  3706 ;; Tracked objects:
  3707 ;;		On entry : 0/0
  3708 ;;		On exit  : 0/0
  3709 ;;		Unchanged: 0/0
  3710 ;; Data sizes:     COMMON   BANK0   BANK1   BANK2   BANK3   BANK4   BANK5   BANK6
  3711 ;;      Params:         0       0       0       0       0       0       0       0
  3712 ;;      Locals:         0       0       0       0       0       0       0       0
  3713 ;;      Temps:          0       0       0       0       0       0       0       0
  3714 ;;      Totals:         0       0       0       0       0       0       0       0
  3715 ;;Total ram usage:        0 bytes
  3716 ;; Hardware stack levels used: 1
  3717 ;; Hardware stack levels required when called: 4
  3718 ;; This function calls:
  3719 ;;		Nothing
  3720 ;; This function is called by:
  3721 ;;		_SYSTEM_Initialize
  3722 ;; This function uses a non-reentrant model
  3723 ;;
  3724                           
  3725     04ED                     _EPWM2_Initialize:	
  3726                           ;psect for function _EPWM2_Initialize
  3727                           
  3728     04ED                     l2655:	
  3729                           ;incstack = 0
  3730                           ; Regs used in _EPWM2_Initialize: [wreg+status,2+status,0]
  3731                           
  3732                           
  3733                           ;mcc_generated_files/epwm2.c: 69:  CCP2CON = 0x0C;
  3734     04ED  300C               	movlw	12
  3735     04EE  0025               	movlb	5	; select bank5
  3736     04EF  009A               	movwf	26	;volatile
  3737     04F0                     l2657:
  3738                           
  3739                           ;mcc_generated_files/epwm2.c: 72:  ECCP2AS = 0x00;
  3740     04F0  019C               	clrf	28	;volatile
  3741     04F1                     l2659:
  3742                           
  3743                           ;mcc_generated_files/epwm2.c: 75:  PWM2CON = 0x80;
  3744     04F1  3080               	movlw	128
  3745     04F2  009B               	movwf	27	;volatile
  3746     04F3                     l2661:
  3747                           
  3748                           ;mcc_generated_files/epwm2.c: 78:  PSTR2CON = 0x01;
  3749     04F3  3001               	movlw	1
  3750     04F4  009D               	movwf	29	;volatile
  3751     04F5                     l2663:
  3752                           
  3753                           ;mcc_generated_files/epwm2.c: 81:  CCPR2H = 0x00;
  3754     04F5  0199               	clrf	25	;volatile
  3755     04F6                     l2665:
  3756                           
  3757                           ;mcc_generated_files/epwm2.c: 84:  CCPR2L = 0x00;
  3758     04F6  0198               	clrf	24	;volatile
  3759     04F7                     l2667:
  3760                           
  3761                           ;mcc_generated_files/epwm2.c: 87:  CCPTMRS0bits.C2TSEL = 0x0;
  3762     04F7  30F3               	movlw	-13
  3763     04F8  059E               	andwf	30,f	;volatile
  3764     04F9                     l271:
  3765     04F9  0008               	return
  3766     04FA                     __end_of_EPWM2_Initialize:
  3767                           
  3768                           	psect	text12
  3769     04FA                     __ptext12:	
  3770 ;; *************** function _EPWM1_Initialize *****************
  3771 ;; Defined at:
  3772 ;;		line 64 in file "mcc_generated_files/epwm1.c"
  3773 ;; Parameters:    Size  Location     Type
  3774 ;;		None
  3775 ;; Auto vars:     Size  Location     Type
  3776 ;;		None
  3777 ;; Return value:  Size  Location     Type
  3778 ;;                  1    wreg      void 
  3779 ;; Registers used:
  3780 ;;		wreg, status,2, status,0
  3781 ;; Tracked objects:
  3782 ;;		On entry : 0/0
  3783 ;;		On exit  : 0/0
  3784 ;;		Unchanged: 0/0
  3785 ;; Data sizes:     COMMON   BANK0   BANK1   BANK2   BANK3   BANK4   BANK5   BANK6
  3786 ;;      Params:         0       0       0       0       0       0       0       0
  3787 ;;      Locals:         0       0       0       0       0       0       0       0
  3788 ;;      Temps:          0       0       0       0       0       0       0       0
  3789 ;;      Totals:         0       0       0       0       0       0       0       0
  3790 ;;Total ram usage:        0 bytes
  3791 ;; Hardware stack levels used: 1
  3792 ;; Hardware stack levels required when called: 4
  3793 ;; This function calls:
  3794 ;;		Nothing
  3795 ;; This function is called by:
  3796 ;;		_SYSTEM_Initialize
  3797 ;; This function uses a non-reentrant model
  3798 ;;
  3799                           
  3800     04FA                     _EPWM1_Initialize:	
  3801                           ;psect for function _EPWM1_Initialize
  3802                           
  3803     04FA                     l2669:	
  3804                           ;incstack = 0
  3805                           ; Regs used in _EPWM1_Initialize: [wreg+status,2+status,0]
  3806                           
  3807                           
  3808                           ;mcc_generated_files/epwm1.c: 69:  CCP1CON = 0x0C;
  3809     04FA  300C               	movlw	12
  3810     04FB  0025               	movlb	5	; select bank5
  3811     04FC  0093               	movwf	19	;volatile
  3812     04FD                     l2671:
  3813                           
  3814                           ;mcc_generated_files/epwm1.c: 72:  ECCP1AS = 0x00;
  3815     04FD  0195               	clrf	21	;volatile
  3816     04FE                     l2673:
  3817                           
  3818                           ;mcc_generated_files/epwm1.c: 75:  PWM1CON = 0x80;
  3819     04FE  3080               	movlw	128
  3820     04FF  0094               	movwf	20	;volatile
  3821     0500                     l2675:
  3822                           
  3823                           ;mcc_generated_files/epwm1.c: 78:  PSTR1CON = 0x01;
  3824     0500  3001               	movlw	1
  3825     0501  0096               	movwf	22	;volatile
  3826     0502                     l2677:
  3827                           
  3828                           ;mcc_generated_files/epwm1.c: 81:  CCPR1H = 0x00;
  3829     0502  0192               	clrf	18	;volatile
  3830     0503                     l2679:
  3831                           
  3832                           ;mcc_generated_files/epwm1.c: 84:  CCPR1L = 0x00;
  3833     0503  0191               	clrf	17	;volatile
  3834     0504                     l2681:
  3835                           
  3836                           ;mcc_generated_files/epwm1.c: 87:  CCPTMRS0bits.C1TSEL = 0x0;
  3837     0504  30FC               	movlw	-4
  3838     0505  059E               	andwf	30,f	;volatile
  3839     0506                     l251:
  3840     0506  0008               	return
  3841     0507                     __end_of_EPWM1_Initialize:
  3842                           
  3843                           	psect	text13
  3844     0538                     __ptext13:	
  3845 ;; *************** function _ECCP3_Initialize *****************
  3846 ;; Defined at:
  3847 ;;		line 59 in file "mcc_generated_files/eccp3.c"
  3848 ;; Parameters:    Size  Location     Type
  3849 ;;		None
  3850 ;; Auto vars:     Size  Location     Type
  3851 ;;		None
  3852 ;; Return value:  Size  Location     Type
  3853 ;;                  1    wreg      void 
  3854 ;; Registers used:
  3855 ;;		wreg, status,2
  3856 ;; Tracked objects:
  3857 ;;		On entry : 0/0
  3858 ;;		On exit  : 0/0
  3859 ;;		Unchanged: 0/0
  3860 ;; Data sizes:     COMMON   BANK0   BANK1   BANK2   BANK3   BANK4   BANK5   BANK6
  3861 ;;      Params:         0       0       0       0       0       0       0       0
  3862 ;;      Locals:         0       0       0       0       0       0       0       0
  3863 ;;      Temps:          0       0       0       0       0       0       0       0
  3864 ;;      Totals:         0       0       0       0       0       0       0       0
  3865 ;;Total ram usage:        0 bytes
  3866 ;; Hardware stack levels used: 1
  3867 ;; Hardware stack levels required when called: 4
  3868 ;; This function calls:
  3869 ;;		Nothing
  3870 ;; This function is called by:
  3871 ;;		_SYSTEM_Initialize
  3872 ;; This function uses a non-reentrant model
  3873 ;;
  3874                           
  3875     0538                     _ECCP3_Initialize:	
  3876                           ;psect for function _ECCP3_Initialize
  3877                           
  3878     0538                     l2691:	
  3879                           ;incstack = 0
  3880                           ; Regs used in _ECCP3_Initialize: [wreg+status,2]
  3881                           
  3882                           
  3883                           ;mcc_generated_files/eccp3.c: 64:  CCP3CON = 0x05;
  3884     0538  3005               	movlw	5
  3885     0539  0026               	movlb	6	; select bank6
  3886     053A  0093               	movwf	19	;volatile
  3887     053B                     l2693:
  3888                           
  3889                           ;mcc_generated_files/eccp3.c: 67:  CCPR3H = 0x00;
  3890     053B  0192               	clrf	18	;volatile
  3891     053C                     l2695:
  3892                           
  3893                           ;mcc_generated_files/eccp3.c: 70:  CCPR3L = 0x00;
  3894     053C  0191               	clrf	17	;volatile
  3895     053D                     l2697:
  3896                           
  3897                           ;mcc_generated_files/eccp3.c: 73:     PIR3bits.CCP3IF = 0;
  3898     053D  0020               	movlb	0	; select bank0
  3899     053E  1213               	bcf	19,4	;volatile
  3900     053F                     l2699:
  3901                           
  3902                           ;mcc_generated_files/eccp3.c: 76:     PIE3bits.CCP3IE = 1;
  3903     053F  0021               	movlb	1	; select bank1
  3904     0540  1613               	bsf	19,4	;volatile
  3905     0541                     l231:
  3906     0541  0008               	return
  3907     0542                     __end_of_ECCP3_Initialize:
  3908                           
  3909                           	psect	text14
  3910     003A                     __ptext14:	
  3911 ;; *************** function _LED_output *****************
  3912 ;; Defined at:
  3913 ;;		line 380 in file "main.c"
  3914 ;; Parameters:    Size  Location     Type
  3915 ;;		None
  3916 ;; Auto vars:     Size  Location     Type
  3917 ;;  i               1    5[BANK0 ] unsigned char 
  3918 ;;  fLampSignal     1    4[BANK0 ] struct .
  3919 ;;  crc8            1    3[BANK0 ] unsigned char 
  3920 ;; Return value:  Size  Location     Type
  3921 ;;                  1    wreg      void 
  3922 ;; Registers used:
  3923 ;;		wreg, fsr0l, fsr0h, fsr1l, fsr1h, status,2, status,0, pclath, cstack
  3924 ;; Tracked objects:
  3925 ;;		On entry : 0/0
  3926 ;;		On exit  : 0/0
  3927 ;;		Unchanged: 0/0
  3928 ;; Data sizes:     COMMON   BANK0   BANK1   BANK2   BANK3   BANK4   BANK5   BANK6
  3929 ;;      Params:         0       0       0       0       0       0       0       0
  3930 ;;      Locals:         0       3       0       0       0       0       0       0
  3931 ;;      Temps:          0       1       0       0       0       0       0       0
  3932 ;;      Totals:         0       4       0       0       0       0       0       0
  3933 ;;Total ram usage:        4 bytes
  3934 ;; Hardware stack levels used: 1
  3935 ;; Hardware stack levels required when called: 6
  3936 ;; This function calls:
  3937 ;;		_DRL_OFF
  3938 ;;		_DRL_ON
  3939 ;;		_HiBeam_OFF
  3940 ;;		_HiBeam_ON
  3941 ;;		_LoBeam_OFF
  3942 ;;		_LoBeam_ON
  3943 ;;		_LoPe_DRL_ON
  3944 ;;		_P2_OFF
  3945 ;;		_P2_ON
  3946 ;;		_POS_ON
  3947 ;; This function is called by:
  3948 ;;		_main
  3949 ;; This function uses a non-reentrant model
  3950 ;;
  3951                           
  3952     003A                     _LED_output:	
  3953                           ;psect for function _LED_output
  3954                           
  3955     003A                     l2905:	
  3956                           ;incstack = 0
  3957                           ; Regs used in _LED_output: [wreg-fsr1h+status,2+status,0+pclath+cstack]
  3958                           
  3959                           
  3960                           ;main.c: 381:   uint8_t crc8 = CS[csFlag.Byte];
  3961     003A  0872               	movf	_csFlag,w
  3962     003B  3EB8               	addlw	low (_CS| (0+32768))
  3963     003C  0084               	movwf	4
  3964     003D  3082               	movlw	high (_CS| (0+32768))
  3965     003E  1803               	skipnc
  3966     003F  3E01               	addlw	1
  3967     0040  0085               	movwf	5
  3968     0041  0800               	movf	0,w	;code access
  3969     0042  0020               	movlb	0	; select bank0
  3970     0043  00CF               	movwf	LED_output@crc8
  3971     0044                     l2907:
  3972                           
  3973                           ;main.c: 382:   Lamp_Signal fLampSignal;;main.c: 383:   fLampSignal.Byte = 0;
  3974     0044  01D0               	clrf	LED_output@fLampSignal
  3975     0045                     l2909:
  3976                           
  3977                           ;main.c: 386:   if (data_buf[10] != crc8)
  3978     0045  082A               	movf	_data_buf+10,w
  3979     0046  064F               	xorwf	LED_output@crc8,w
  3980     0047  1903               	skipnz
  3981     0048  284A               	goto	u1681
  3982     0049  284B               	goto	u1680
  3983     004A                     u1681:
  3984     004A  284C               	goto	l2913
  3985     004B                     u1680:
  3986     004B  2941               	goto	l482
  3987     004C                     l2913:
  3988                           
  3989                           ;main.c: 388:   if (data_buf[0] != 0xC8)
  3990     004C  30C8               	movlw	200
  3991     004D  0620               	xorwf	_data_buf,w
  3992     004E  1903               	btfsc	3,2
  3993     004F  2851               	goto	u1691
  3994     0050  2852               	goto	u1690
  3995     0051                     u1691:
  3996     0051  2853               	goto	l2917
  3997     0052                     u1690:
  3998     0052  2941               	goto	l482
  3999     0053                     l2917:
  4000                           
  4001                           ;main.c: 390:   if (data_buf[1] != 0x8B)
  4002     0053  308B               	movlw	139
  4003     0054  0621               	xorwf	_data_buf+1,w
  4004     0055  1903               	btfsc	3,2
  4005     0056  2858               	goto	u1701
  4006     0057  2859               	goto	u1700
  4007     0058                     u1701:
  4008     0058  285A               	goto	l2921
  4009     0059                     u1700:
  4010     0059  2941               	goto	l482
  4011     005A                     l2921:
  4012                           
  4013                           ;main.c: 393:   T10MS_CNT = 0;
  4014     005A  01C7               	clrf	_T10MS_CNT	;volatile
  4015     005B                     l2923:
  4016                           
  4017                           ;main.c: 396:   if ((csFlag.POS == 1)) {
  4018     005B  1EF2               	btfss	_csFlag,5
  4019     005C  285E               	goto	u1711
  4020     005D  285F               	goto	u1710
  4021     005E                     u1711:
  4022     005E  2863               	goto	l2927
  4023     005F                     u1710:
  4024     005F                     l2925:
  4025                           
  4026                           ;main.c: 397:     P2_ON();
  4027     005F  3185  2597  3180   	fcall	_P2_ON
  4028                           
  4029                           ;main.c: 398:   } else {
  4030     0062  2866               	goto	l2929
  4031     0063                     l2927:
  4032                           
  4033                           ;main.c: 399:     P2_OFF();
  4034     0063  3185  2594  3180   	fcall	_P2_OFF
  4035     0066                     l2929:
  4036                           
  4037                           ;main.c: 402:   fLampSignal.POS = csFlag.POS;
  4038     0066  0020               	movlb	0	; select bank0
  4039     0067  1050               	bcf	LED_output@fLampSignal,0
  4040     0068  1EF2               	btfss	_csFlag,5
  4041     0069  286B               	goto	u1725
  4042     006A  1450               	bsf	LED_output@fLampSignal,0
  4043     006B                     u1725:
  4044     006B                     l2931:
  4045                           
  4046                           ;main.c: 403:   fLampSignal.DRL = csFlag.DRL;
  4047     006B  0020               	movlb	0	; select bank0
  4048     006C  10D0               	bcf	LED_output@fLampSignal,1
  4049     006D  1E72               	btfss	_csFlag,4
  4050     006E  2870               	goto	u1735
  4051     006F  14D0               	bsf	LED_output@fLampSignal,1
  4052     0070                     u1735:
  4053     0070                     l2933:
  4054                           
  4055                           ;main.c: 404:   fLampSignal.LoBeam = csFlag.LoBeam;
  4056     0070  0020               	movlb	0	; select bank0
  4057     0071  1150               	bcf	LED_output@fLampSignal,2
  4058     0072  1DF2               	btfss	_csFlag,3
  4059     0073  2875               	goto	u1745
  4060     0074  1550               	bsf	LED_output@fLampSignal,2
  4061     0075                     u1745:
  4062     0075                     l2935:
  4063                           
  4064                           ;main.c: 405:   fLampSignal.HiBeam = csFlag.HiBeam;
  4065     0075  0020               	movlb	0	; select bank0
  4066     0076  11D0               	bcf	LED_output@fLampSignal,3
  4067     0077  1D72               	btfss	_csFlag,2
  4068     0078  287A               	goto	u1755
  4069     0079  15D0               	bsf	LED_output@fLampSignal,3
  4070     007A                     u1755:
  4071                           
  4072                           ;main.c: 407:   switch (fLampSignal.Byte) {
  4073     007A  28FD               	goto	l3039
  4074     007B                     l2937:
  4075                           
  4076                           ;main.c: 409:     LoBeam_OFF();
  4077     007B  3185  256B  3180   	fcall	_LoBeam_OFF
  4078                           
  4079                           ;main.c: 410:     HiBeam_OFF();
  4080     007E  3185  259A  3180   	fcall	_HiBeam_OFF
  4081                           
  4082                           ;main.c: 411:     DRL_OFF();
  4083     0081  3185  258E  3180   	fcall	_DRL_OFF
  4084                           
  4085                           ;main.c: 412:     break;
  4086     0084  2930               	goto	l3041
  4087     0085                     l2939:
  4088                           
  4089                           ;main.c: 414:     LoBeam_OFF();
  4090     0085  3185  256B  3180   	fcall	_LoBeam_OFF
  4091                           
  4092                           ;main.c: 415:     HiBeam_OFF();
  4093     0088  3185  259A  3180   	fcall	_HiBeam_OFF
  4094     008B                     l2941:
  4095                           
  4096                           ;main.c: 416:     POS_ON();
  4097     008B  3185  2583  3180   	fcall	_POS_ON
  4098                           
  4099                           ;main.c: 417:     break;
  4100     008E  2930               	goto	l3041
  4101     008F                     l2943:
  4102                           
  4103                           ;main.c: 419:     if (fLoPe_DRL_In_use == 0)
  4104     008F  083D               	movf	_fLoPe_DRL_In_use,w
  4105     0090  1D03               	btfss	3,2
  4106     0091  2893               	goto	u1761
  4107     0092  2894               	goto	u1760
  4108     0093                     u1761:
  4109     0093  2897               	goto	l492
  4110     0094                     u1760:
  4111     0094                     l2945:
  4112                           
  4113                           ;main.c: 420:       LoBeam_OFF();
  4114     0094  3185  256B  3180   	fcall	_LoBeam_OFF
  4115     0097                     l492:
  4116                           
  4117                           ;main.c: 422:     HiBeam_OFF();
  4118     0097  3185  259A  3180   	fcall	_HiBeam_OFF
  4119     009A                     l2947:
  4120                           
  4121                           ;main.c: 423:     if ((fLamp_Conf == 1))
  4122     009A  0020               	movlb	0	; select bank0
  4123     009B  033E               	decf	_fLamp_Conf,w
  4124     009C  1D03               	btfss	3,2
  4125     009D  289F               	goto	u1771
  4126     009E  28A0               	goto	u1770
  4127     009F                     u1771:
  4128     009F  28A4               	goto	l2951
  4129     00A0                     u1770:
  4130     00A0                     l2949:
  4131                           
  4132                           ;main.c: 424:       DRL_ON();
  4133     00A0  3183  235F  3180   	fcall	_DRL_ON
  4134     00A3  2930               	goto	l3041
  4135     00A4                     l2951:
  4136                           
  4137                           ;main.c: 426:       LoPe_DRL_ON();
  4138     00A4  3185  2520  3180   	fcall	_LoPe_DRL_ON
  4139     00A7  2930               	goto	l3041
  4140     00A8                     l2953:
  4141                           
  4142                           ;main.c: 429:     if (fLoPe_DRL_In_use == 0)
  4143     00A8  083D               	movf	_fLoPe_DRL_In_use,w
  4144     00A9  1D03               	btfss	3,2
  4145     00AA  28AC               	goto	u1781
  4146     00AB  28AD               	goto	u1780
  4147     00AC                     u1781:
  4148     00AC  28B0               	goto	l496
  4149     00AD                     u1780:
  4150     00AD                     l2955:
  4151                           
  4152                           ;main.c: 430:       LoBeam_OFF();
  4153     00AD  3185  256B  3180   	fcall	_LoBeam_OFF
  4154     00B0                     l496:
  4155                           
  4156                           ;main.c: 432:     HiBeam_OFF();
  4157     00B0  3185  259A  3180   	fcall	_HiBeam_OFF
  4158     00B3                     l2957:
  4159                           
  4160                           ;main.c: 433:     if ((fLamp_Conf == 1))
  4161     00B3  0020               	movlb	0	; select bank0
  4162     00B4  033E               	decf	_fLamp_Conf,w
  4163     00B5  1D03               	btfss	3,2
  4164     00B6  28B8               	goto	u1791
  4165     00B7  28B9               	goto	u1790
  4166     00B8                     u1791:
  4167     00B8  28A4               	goto	l2951
  4168     00B9                     u1790:
  4169     00B9  28A0               	goto	l2949
  4170     00BA                     l2963:
  4171                           
  4172                           ;main.c: 439:     LoBeam_ON();
  4173     00BA  3185  255F  3180   	fcall	_LoBeam_ON
  4174     00BD                     l2965:
  4175                           
  4176                           ;main.c: 440:     HiBeam_OFF();
  4177     00BD  3185  259A  3180   	fcall	_HiBeam_OFF
  4178     00C0                     l2967:
  4179                           
  4180                           ;main.c: 441:     DRL_OFF();
  4181     00C0  3185  258E  3180   	fcall	_DRL_OFF
  4182                           
  4183                           ;main.c: 442:     break;
  4184     00C3  2930               	goto	l3041
  4185     00C4                     l2969:
  4186                           
  4187                           ;main.c: 444:     LoBeam_ON();
  4188     00C4  3185  255F  3180   	fcall	_LoBeam_ON
  4189     00C7                     l2971:
  4190                           
  4191                           ;main.c: 445:     HiBeam_OFF();
  4192     00C7  3185  259A  3180   	fcall	_HiBeam_OFF
  4193     00CA  288B               	goto	l2941
  4194     00CB                     l2993:
  4195                           
  4196                           ;main.c: 469:     if (fLoPe_DRL_In_use == 0)
  4197     00CB  083D               	movf	_fLoPe_DRL_In_use,w
  4198     00CC  1D03               	btfss	3,2
  4199     00CD  28CF               	goto	u1801
  4200     00CE  28D0               	goto	u1800
  4201     00CF                     u1801:
  4202     00CF  28D3               	goto	l506
  4203     00D0                     u1800:
  4204     00D0                     l2995:
  4205                           
  4206                           ;main.c: 470:       LoBeam_OFF();
  4207     00D0  3185  256B  3180   	fcall	_LoBeam_OFF
  4208     00D3                     l506:
  4209                           
  4210                           ;main.c: 471:     HiBeam_OFF();
  4211     00D3  3185  259A  3180   	fcall	_HiBeam_OFF
  4212     00D6                     l2997:
  4213                           
  4214                           ;main.c: 472:     if ((fLamp_Conf == 1))
  4215     00D6  0020               	movlb	0	; select bank0
  4216     00D7  033E               	decf	_fLamp_Conf,w
  4217     00D8  1D03               	btfss	3,2
  4218     00D9  28DB               	goto	u1811
  4219     00DA  28DC               	goto	u1810
  4220     00DB                     u1811:
  4221     00DB  28A4               	goto	l2951
  4222     00DC                     u1810:
  4223     00DC  28A0               	goto	l2949
  4224     00DD                     l3003:
  4225                           
  4226                           ;main.c: 478:     if (fLoPe_DRL_In_use == 0)
  4227     00DD  083D               	movf	_fLoPe_DRL_In_use,w
  4228     00DE  1D03               	btfss	3,2
  4229     00DF  28E1               	goto	u1821
  4230     00E0  28E2               	goto	u1820
  4231     00E1                     u1821:
  4232     00E1  28E5               	goto	l510
  4233     00E2                     u1820:
  4234     00E2                     l3005:
  4235                           
  4236                           ;main.c: 479:       LoBeam_OFF();
  4237     00E2  3185  256B  3180   	fcall	_LoBeam_OFF
  4238     00E5                     l510:
  4239                           
  4240                           ;main.c: 480:     HiBeam_OFF();
  4241     00E5  3185  259A  3180   	fcall	_HiBeam_OFF
  4242     00E8                     l3007:
  4243                           
  4244                           ;main.c: 481:     if ((fLamp_Conf == 1))
  4245     00E8  0020               	movlb	0	; select bank0
  4246     00E9  033E               	decf	_fLamp_Conf,w
  4247     00EA  1D03               	btfss	3,2
  4248     00EB  28ED               	goto	u1831
  4249     00EC  28EE               	goto	u1830
  4250     00ED                     u1831:
  4251     00ED  28A4               	goto	l2951
  4252     00EE                     u1830:
  4253     00EE  28A0               	goto	l2949
  4254     00EF                     l3013:
  4255                           
  4256                           ;main.c: 487:     LoBeam_ON();
  4257     00EF  3185  255F  3180   	fcall	_LoBeam_ON
  4258     00F2                     l3015:
  4259                           
  4260                           ;main.c: 488:     HiBeam_ON();
  4261     00F2  3185  258B  3180   	fcall	_HiBeam_ON
  4262     00F5  28C0               	goto	l2967
  4263     00F6                     l3019:
  4264                           
  4265                           ;main.c: 492:     LoBeam_ON();
  4266     00F6  3185  255F  3180   	fcall	_LoBeam_ON
  4267     00F9                     l3021:
  4268                           
  4269                           ;main.c: 493:     HiBeam_ON();
  4270     00F9  3185  258B  3180   	fcall	_HiBeam_ON
  4271     00FC  288B               	goto	l2941
  4272     00FD                     l3039:
  4273     00FD  0020               	movlb	0	; select bank0
  4274     00FE  0850               	movf	LED_output@fLampSignal,w
  4275                           
  4276                           ; Switch size 1, requested type "simple"
  4277                           ; Number of cases is 16, Range of values is 0 to 15
  4278                           ; switch strategies available:
  4279                           ; Name         Instructions Cycles
  4280                           ; direct_byte           38     6 (fixed)
  4281                           ; simple_byte           49    25 (average)
  4282                           ; jumptable            260     6 (fixed)
  4283                           ;	Chosen strategy is simple_byte
  4284     00FF  3A00               	xorlw	0	; case 0
  4285     0100  1903               	skipnz
  4286     0101  287B               	goto	l2937
  4287     0102  3A01               	xorlw	1	; case 1
  4288     0103  1903               	skipnz
  4289     0104  2885               	goto	l2939
  4290     0105  3A03               	xorlw	3	; case 2
  4291     0106  1903               	skipnz
  4292     0107  288F               	goto	l2943
  4293     0108  3A01               	xorlw	1	; case 3
  4294     0109  1903               	skipnz
  4295     010A  28A8               	goto	l2953
  4296     010B  3A07               	xorlw	7	; case 4
  4297     010C  1903               	skipnz
  4298     010D  28BA               	goto	l2963
  4299     010E  3A01               	xorlw	1	; case 5
  4300     010F  1903               	skipnz
  4301     0110  28C4               	goto	l2969
  4302     0111  3A03               	xorlw	3	; case 6
  4303     0112  1903               	skipnz
  4304     0113  28BA               	goto	l2963
  4305     0114  3A01               	xorlw	1	; case 7
  4306     0115  1903               	skipnz
  4307     0116  28C4               	goto	l2969
  4308     0117  3A0F               	xorlw	15	; case 8
  4309     0118  1903               	skipnz
  4310     0119  287B               	goto	l2937
  4311     011A  3A01               	xorlw	1	; case 9
  4312     011B  1903               	skipnz
  4313     011C  2885               	goto	l2939
  4314     011D  3A03               	xorlw	3	; case 10
  4315     011E  1903               	skipnz
  4316     011F  28CB               	goto	l2993
  4317     0120  3A01               	xorlw	1	; case 11
  4318     0121  1903               	skipnz
  4319     0122  28DD               	goto	l3003
  4320     0123  3A07               	xorlw	7	; case 12
  4321     0124  1903               	skipnz
  4322     0125  28EF               	goto	l3013
  4323     0126  3A01               	xorlw	1	; case 13
  4324     0127  1903               	skipnz
  4325     0128  28F6               	goto	l3019
  4326     0129  3A03               	xorlw	3	; case 14
  4327     012A  1903               	skipnz
  4328     012B  28EF               	goto	l3013
  4329     012C  3A01               	xorlw	1	; case 15
  4330     012D  1903               	skipnz
  4331     012E  28F6               	goto	l3019
  4332     012F  2930               	goto	l3041
  4333     0130                     l3041:
  4334                           
  4335                           ;main.c: 510:   for (uint8_t i = 0; i < 11; i++) {
  4336     0130  0020               	movlb	0	; select bank0
  4337     0131  01D1               	clrf	LED_output@i
  4338     0132                     l3047:
  4339                           
  4340                           ;main.c: 511:     data_buf[i] = 0;
  4341     0132  0851               	movf	LED_output@i,w
  4342     0133  3E20               	addlw	(low (_data_buf| 0))& (0+255)
  4343     0134  0086               	movwf	6
  4344     0135  0187               	clrf	7
  4345     0136  0181               	clrf	1
  4346     0137                     l3049:
  4347                           
  4348                           ;main.c: 512:   }
  4349     0137  3001               	movlw	1
  4350     0138  00CE               	movwf	??_LED_output
  4351     0139  084E               	movf	??_LED_output,w
  4352     013A  07D1               	addwf	LED_output@i,f
  4353     013B                     l3051:
  4354     013B  300B               	movlw	11
  4355     013C  0251               	subwf	LED_output@i,w
  4356     013D  1C03               	skipc
  4357     013E  2940               	goto	u1841
  4358     013F  2941               	goto	u1840
  4359     0140                     u1841:
  4360     0140  2932               	goto	l3047
  4361     0141                     u1840:
  4362     0141                     l482:
  4363     0141  0008               	return
  4364     0142                     __end_of_LED_output:
  4365                           
  4366                           	psect	text15
  4367     0583                     __ptext15:	
  4368 ;; *************** function _POS_ON *****************
  4369 ;; Defined at:
  4370 ;;		line 336 in file "main.c"
  4371 ;; Parameters:    Size  Location     Type
  4372 ;;		None
  4373 ;; Auto vars:     Size  Location     Type
  4374 ;;		None
  4375 ;; Return value:  Size  Location     Type
  4376 ;;                  1    wreg      void 
  4377 ;; Registers used:
  4378 ;;		wreg
  4379 ;; Tracked objects:
  4380 ;;		On entry : 0/0
  4381 ;;		On exit  : 0/0
  4382 ;;		Unchanged: 0/0
  4383 ;; Data sizes:     COMMON   BANK0   BANK1   BANK2   BANK3   BANK4   BANK5   BANK6
  4384 ;;      Params:         0       0       0       0       0       0       0       0
  4385 ;;      Locals:         0       0       0       0       0       0       0       0
  4386 ;;      Temps:          0       0       0       0       0       0       0       0
  4387 ;;      Totals:         0       0       0       0       0       0       0       0
  4388 ;;Total ram usage:        0 bytes
  4389 ;; Hardware stack levels used: 1
  4390 ;; Hardware stack levels required when called: 4
  4391 ;; This function calls:
  4392 ;;		Nothing
  4393 ;; This function is called by:
  4394 ;;		_LED_output
  4395 ;;		_main
  4396 ;; This function uses a non-reentrant model
  4397 ;;
  4398                           
  4399     0583                     _POS_ON:	
  4400                           ;psect for function _POS_ON
  4401                           
  4402     0583                     l2839:	
  4403                           ;incstack = 0
  4404                           ; Regs used in _POS_ON: [wreg]
  4405                           
  4406     0583  300E               	movlw	14
  4407     0584  0025               	movlb	5	; select bank5
  4408     0585  0098               	movwf	24	;volatile
  4409     0586                     l443:
  4410     0586  0008               	return
  4411     0587                     __end_of_POS_ON:
  4412                           
  4413                           	psect	text16
  4414     0520                     __ptext16:	
  4415 ;; *************** function _LoPe_DRL_ON *****************
  4416 ;; Defined at:
  4417 ;;		line 342 in file "main.c"
  4418 ;; Parameters:    Size  Location     Type
  4419 ;;		None
  4420 ;; Auto vars:     Size  Location     Type
  4421 ;;		None
  4422 ;; Return value:  Size  Location     Type
  4423 ;;                  1    wreg      void 
  4424 ;; Registers used:
  4425 ;;		wreg, status,2, status,0
  4426 ;; Tracked objects:
  4427 ;;		On entry : 0/0
  4428 ;;		On exit  : 0/0
  4429 ;;		Unchanged: 0/0
  4430 ;; Data sizes:     COMMON   BANK0   BANK1   BANK2   BANK3   BANK4   BANK5   BANK6
  4431 ;;      Params:         0       0       0       0       0       0       0       0
  4432 ;;      Locals:         0       0       0       0       0       0       0       0
  4433 ;;      Temps:          0       0       0       0       0       0       0       0
  4434 ;;      Totals:         0       0       0       0       0       0       0       0
  4435 ;;Total ram usage:        0 bytes
  4436 ;; Hardware stack levels used: 1
  4437 ;; Hardware stack levels required when called: 4
  4438 ;; This function calls:
  4439 ;;		Nothing
  4440 ;; This function is called by:
  4441 ;;		_LED_output
  4442 ;; This function uses a non-reentrant model
  4443 ;;
  4444                           
  4445     0520                     _LoPe_DRL_ON:	
  4446                           ;psect for function _LoPe_DRL_ON
  4447                           
  4448     0520                     l2841:	
  4449                           ;incstack = 0
  4450                           ; Regs used in _LoPe_DRL_ON: [wreg+status,2+status,0]
  4451                           
  4452                           
  4453                           ;main.c: 343:   if (fLoPe_DRL_In_use == 0) {
  4454     0520  0020               	movlb	0	; select bank0
  4455     0521  083D               	movf	_fLoPe_DRL_In_use,w
  4456     0522  1D03               	btfss	3,2
  4457     0523  2D25               	goto	u1591
  4458     0524  2D26               	goto	u1590
  4459     0525                     u1591:
  4460     0525  2D2B               	goto	l460
  4461     0526                     u1590:
  4462     0526                     l2843:
  4463                           
  4464                           ;main.c: 344:     fLoPe_DRL_In_use = 1;
  4465     0526  01BD               	clrf	_fLoPe_DRL_In_use
  4466     0527  0ABD               	incf	_fLoPe_DRL_In_use,f
  4467     0528                     l2845:
  4468                           
  4469                           ;main.c: 346:     CCPR1L = 100;
  4470     0528  3064               	movlw	100
  4471     0529  0025               	movlb	5	; select bank5
  4472     052A  0091               	movwf	17	;volatile
  4473     052B                     l460:
  4474     052B  0008               	return
  4475     052C                     __end_of_LoPe_DRL_ON:
  4476                           
  4477                           	psect	text17
  4478     055F                     __ptext17:	
  4479 ;; *************** function _LoBeam_ON *****************
  4480 ;; Defined at:
  4481 ;;		line 290 in file "main.c"
  4482 ;; Parameters:    Size  Location     Type
  4483 ;;		None
  4484 ;; Auto vars:     Size  Location     Type
  4485 ;;		None
  4486 ;; Return value:  Size  Location     Type
  4487 ;;                  1    wreg      void 
  4488 ;; Registers used:
  4489 ;;		wreg, status,2
  4490 ;; Tracked objects:
  4491 ;;		On entry : 0/0
  4492 ;;		On exit  : 0/0
  4493 ;;		Unchanged: 0/0
  4494 ;; Data sizes:     COMMON   BANK0   BANK1   BANK2   BANK3   BANK4   BANK5   BANK6
  4495 ;;      Params:         0       0       0       0       0       0       0       0
  4496 ;;      Locals:         0       0       0       0       0       0       0       0
  4497 ;;      Temps:          0       0       0       0       0       0       0       0
  4498 ;;      Totals:         0       0       0       0       0       0       0       0
  4499 ;;Total ram usage:        0 bytes
  4500 ;; Hardware stack levels used: 1
  4501 ;; Hardware stack levels required when called: 4
  4502 ;; This function calls:
  4503 ;;		Nothing
  4504 ;; This function is called by:
  4505 ;;		_LED_output
  4506 ;;		_main
  4507 ;; This function uses a non-reentrant model
  4508 ;;
  4509                           
  4510     055F                     _LoBeam_ON:	
  4511                           ;psect for function _LoBeam_ON
  4512                           
  4513     055F                     l2805:	
  4514                           ;incstack = 0
  4515                           ; Regs used in _LoBeam_ON: [wreg+status,2]
  4516                           
  4517                           
  4518                           ;main.c: 291:   fLoPe_DRL_In_use = 0;
  4519     055F  0020               	movlb	0	; select bank0
  4520     0560  01BD               	clrf	_fLoPe_DRL_In_use
  4521     0561                     l2807:
  4522                           
  4523                           ;main.c: 292:   CCPR1L = 201;
  4524     0561  30C9               	movlw	201
  4525     0562  0025               	movlb	5	; select bank5
  4526     0563  0091               	movwf	17	;volatile
  4527     0564                     l421:
  4528     0564  0008               	return
  4529     0565                     __end_of_LoBeam_ON:
  4530                           
  4531                           	psect	text18
  4532     058B                     __ptext18:	
  4533 ;; *************** function _HiBeam_ON *****************
  4534 ;; Defined at:
  4535 ;;		line 285 in file "main.c"
  4536 ;; Parameters:    Size  Location     Type
  4537 ;;		None
  4538 ;; Auto vars:     Size  Location     Type
  4539 ;;		None
  4540 ;; Return value:  Size  Location     Type
  4541 ;;                  1    wreg      void 
  4542 ;; Registers used:
  4543 ;;		None
  4544 ;; Tracked objects:
  4545 ;;		On entry : 0/0
  4546 ;;		On exit  : 0/0
  4547 ;;		Unchanged: 0/0
  4548 ;; Data sizes:     COMMON   BANK0   BANK1   BANK2   BANK3   BANK4   BANK5   BANK6
  4549 ;;      Params:         0       0       0       0       0       0       0       0
  4550 ;;      Locals:         0       0       0       0       0       0       0       0
  4551 ;;      Temps:          0       0       0       0       0       0       0       0
  4552 ;;      Totals:         0       0       0       0       0       0       0       0
  4553 ;;Total ram usage:        0 bytes
  4554 ;; Hardware stack levels used: 1
  4555 ;; Hardware stack levels required when called: 4
  4556 ;; This function calls:
  4557 ;;		Nothing
  4558 ;; This function is called by:
  4559 ;;		_LED_output
  4560 ;; This function uses a non-reentrant model
  4561 ;;
  4562                           
  4563     058B                     _HiBeam_ON:	
  4564                           ;psect for function _HiBeam_ON
  4565                           
  4566     058B                     l411:	
  4567                           ;incstack = 0
  4568                           ; Regs used in _HiBeam_ON: []
  4569                           
  4570     058B  0022               	movlb	2	; select bank2
  4571     058C  100C               	bcf	12,0	;volatile
  4572     058D                     l413:
  4573     058D  0008               	return
  4574     058E                     __end_of_HiBeam_ON:
  4575                           
  4576                           	psect	text19
  4577     035F                     __ptext19:	
  4578 ;; *************** function _DRL_ON *****************
  4579 ;; Defined at:
  4580 ;;		line 301 in file "main.c"
  4581 ;; Parameters:    Size  Location     Type
  4582 ;;		None
  4583 ;; Auto vars:     Size  Location     Type
  4584 ;;		None
  4585 ;; Return value:  Size  Location     Type
  4586 ;;                  1    wreg      void 
  4587 ;; Registers used:
  4588 ;;		wreg, status,2, status,0, pclath, cstack
  4589 ;; Tracked objects:
  4590 ;;		On entry : 0/0
  4591 ;;		On exit  : 0/0
  4592 ;;		Unchanged: 0/0
  4593 ;; Data sizes:     COMMON   BANK0   BANK1   BANK2   BANK3   BANK4   BANK5   BANK6
  4594 ;;      Params:         0       0       0       0       0       0       0       0
  4595 ;;      Locals:         0       0       0       0       0       0       0       0
  4596 ;;      Temps:          0       0       0       0       0       0       0       0
  4597 ;;      Totals:         0       0       0       0       0       0       0       0
  4598 ;;Total ram usage:        0 bytes
  4599 ;; Hardware stack levels used: 1
  4600 ;; Hardware stack levels required when called: 5
  4601 ;; This function calls:
  4602 ;;		_DRL_Gradually
  4603 ;; This function is called by:
  4604 ;;		_LED_output
  4605 ;; This function uses a non-reentrant model
  4606 ;;
  4607                           
  4608     035F                     _DRL_ON:	
  4609                           ;psect for function _DRL_ON
  4610                           
  4611     035F                     l2809:	
  4612                           ;incstack = 0
  4613                           ; Regs used in _DRL_ON: [wreg+status,2+status,0+pclath+cstack]
  4614                           
  4615                           
  4616                           ;main.c: 302:   if ((fLamp_RL_Side==0)) {
  4617     035F  0020               	movlb	0	; select bank0
  4618     0360  083F               	movf	_fLamp_RL_Side,w
  4619     0361  1D03               	btfss	3,2
  4620     0362  2B64               	goto	u1541
  4621     0363  2B65               	goto	u1540
  4622     0364                     u1541:
  4623     0364  2B7E               	goto	l427
  4624     0365                     u1540:
  4625     0365                     l2811:
  4626                           
  4627                           ;main.c: 304:     if ((csFlag.turnLight_R == 1)) {
  4628     0365  1C72               	btfss	_csFlag,0
  4629     0366  2B68               	goto	u1551
  4630     0367  2B69               	goto	u1550
  4631     0368                     u1551:
  4632     0368  2B6F               	goto	l2817
  4633     0369                     u1550:
  4634     0369                     l2813:
  4635                           
  4636                           ;main.c: 305:       CCPR2L = 0;
  4637     0369  0025               	movlb	5	; select bank5
  4638     036A  0198               	clrf	24	;volatile
  4639     036B                     l2815:
  4640                           
  4641                           ;main.c: 306:       fDRL_Gradually = 1;
  4642     036B  0020               	movlb	0	; select bank0
  4643     036C  01C2               	clrf	_fDRL_Gradually
  4644     036D  0AC2               	incf	_fDRL_Gradually,f
  4645                           
  4646                           ;main.c: 307:     } else {
  4647     036E  2B8E               	goto	l437
  4648     036F                     l2817:
  4649                           
  4650                           ;main.c: 308:       if ((fDRL_Gradually == 0)) {
  4651     036F  0842               	movf	_fDRL_Gradually,w
  4652     0370  1D03               	btfss	3,2
  4653     0371  2B73               	goto	u1561
  4654     0372  2B74               	goto	u1560
  4655     0373                     u1561:
  4656     0373  2B78               	goto	l430
  4657     0374                     u1560:
  4658     0374                     l2819:
  4659                           
  4660                           ;main.c: 309:         CCPR2L = 201;
  4661     0374  30C9               	movlw	201
  4662     0375  0025               	movlb	5	; select bank5
  4663     0376  0098               	movwf	24	;volatile
  4664                           
  4665                           ;main.c: 310:       } else {
  4666     0377  2B8E               	goto	l437
  4667     0378                     l430:
  4668                           
  4669                           ;main.c: 311:         (INTCONbits.GIE = 0);
  4670     0378  138B               	bcf	11,7	;volatile
  4671     0379                     l2821:
  4672                           
  4673                           ;main.c: 313:         DRL_Gradually();
  4674     0379  3184  2468  3183   	fcall	_DRL_Gradually
  4675     037C                     l2823:
  4676                           
  4677                           ;main.c: 314:         (INTCONbits.GIE = 1);
  4678     037C  178B               	bsf	11,7	;volatile
  4679     037D  2B8E               	goto	l437
  4680     037E                     l427:
  4681                           
  4682                           ;main.c: 319:     if ((csFlag.turnLight_L == 1)) {
  4683     037E  1CF2               	btfss	_csFlag,1
  4684     037F  2B81               	goto	u1571
  4685     0380  2B82               	goto	u1570
  4686     0381                     u1571:
  4687     0381  2B83               	goto	l2829
  4688     0382                     u1570:
  4689     0382  2B69               	goto	l2813
  4690     0383                     l2829:
  4691                           
  4692                           ;main.c: 323:       if ((fDRL_Gradually == 0)) {
  4693     0383  0842               	movf	_fDRL_Gradually,w
  4694     0384  1D03               	btfss	3,2
  4695     0385  2B87               	goto	u1581
  4696     0386  2B88               	goto	u1580
  4697     0387                     u1581:
  4698     0387  2B89               	goto	l435
  4699     0388                     u1580:
  4700     0388  2B74               	goto	l2819
  4701     0389                     l435:
  4702                           
  4703                           ;main.c: 326:         (INTCONbits.GIE = 0);
  4704     0389  138B               	bcf	11,7	;volatile
  4705     038A                     l2833:
  4706                           
  4707                           ;main.c: 328:         DRL_Gradually();
  4708     038A  3184  2468  3183   	fcall	_DRL_Gradually
  4709     038D                     l2835:
  4710                           
  4711                           ;main.c: 329:         (INTCONbits.GIE = 1);
  4712     038D  178B               	bsf	11,7	;volatile
  4713     038E                     l437:
  4714     038E  0008               	return
  4715     038F                     __end_of_DRL_ON:
  4716                           
  4717                           	psect	text20
  4718     0468                     __ptext20:	
  4719 ;; *************** function _DRL_Gradually *****************
  4720 ;; Defined at:
  4721 ;;		line 351 in file "main.c"
  4722 ;; Parameters:    Size  Location     Type
  4723 ;;		None
  4724 ;; Auto vars:     Size  Location     Type
  4725 ;;  i               1    1[BANK0 ] unsigned char 
  4726 ;; Return value:  Size  Location     Type
  4727 ;;                  1    wreg      void 
  4728 ;; Registers used:
  4729 ;;		wreg, status,2, status,0
  4730 ;; Tracked objects:
  4731 ;;		On entry : 0/0
  4732 ;;		On exit  : 0/0
  4733 ;;		Unchanged: 0/0
  4734 ;; Data sizes:     COMMON   BANK0   BANK1   BANK2   BANK3   BANK4   BANK5   BANK6
  4735 ;;      Params:         0       0       0       0       0       0       0       0
  4736 ;;      Locals:         0       1       0       0       0       0       0       0
  4737 ;;      Temps:          0       1       0       0       0       0       0       0
  4738 ;;      Totals:         0       2       0       0       0       0       0       0
  4739 ;;Total ram usage:        2 bytes
  4740 ;; Hardware stack levels used: 1
  4741 ;; Hardware stack levels required when called: 4
  4742 ;; This function calls:
  4743 ;;		Nothing
  4744 ;; This function is called by:
  4745 ;;		_DRL_ON
  4746 ;; This function uses a non-reentrant model
  4747 ;;
  4748                           
  4749     0468                     _DRL_Gradually:	
  4750                           ;psect for function _DRL_Gradually
  4751                           
  4752     0468                     l2613:	
  4753                           ;incstack = 0
  4754                           ; Regs used in _DRL_Gradually: [wreg+status,2+status,0]
  4755                           
  4756                           
  4757                           ;main.c: 352:   for (uint8_t i = 0; i < 201; i++) {
  4758     0468  0020               	movlb	0	; select bank0
  4759     0469  01CD               	clrf	DRL_Gradually@i
  4760     046A                     l465:	
  4761                           ;main.c: 354:       ;
  4762                           
  4763                           
  4764                           ;main.c: 353:     while (!TMR2IF)
  4765     046A  1C91               	btfss	17,1	;volatile
  4766     046B  2C6D               	goto	u1461
  4767     046C  2C6E               	goto	u1460
  4768     046D                     u1461:
  4769     046D  2C6A               	goto	l465
  4770     046E                     u1460:
  4771     046E                     l467:
  4772                           
  4773                           ;main.c: 355:     TMR2IF = 0;
  4774     046E  1091               	bcf	17,1	;volatile
  4775     046F                     l2619:
  4776                           
  4777                           ;main.c: 356:     CCPR2L++;
  4778     046F  3001               	movlw	1
  4779     0470  00CC               	movwf	??_DRL_Gradually
  4780     0471  084C               	movf	??_DRL_Gradually,w
  4781     0472  0025               	movlb	5	; select bank5
  4782     0473  0798               	addwf	24,f	;volatile
  4783                           
  4784                           ;main.c: 357:   }
  4785     0474  3001               	movlw	1
  4786     0475  0020               	movlb	0	; select bank0
  4787     0476  00CC               	movwf	??_DRL_Gradually
  4788     0477  084C               	movf	??_DRL_Gradually,w
  4789     0478  07CD               	addwf	DRL_Gradually@i,f
  4790     0479                     l2621:
  4791     0479  30C9               	movlw	201
  4792     047A  024D               	subwf	DRL_Gradually@i,w
  4793     047B  1C03               	skipc
  4794     047C  2C7E               	goto	u1471
  4795     047D  2C7F               	goto	u1470
  4796     047E                     u1471:
  4797     047E  2C6A               	goto	l465
  4798     047F                     u1470:
  4799     047F                     l2623:
  4800                           
  4801                           ;main.c: 358:   fDRL_Gradually = 0;
  4802     047F  01C2               	clrf	_fDRL_Gradually
  4803     0480                     l468:
  4804     0480  0008               	return
  4805     0481                     __end_of_DRL_Gradually:
  4806                           
  4807                           	psect	text21
  4808     058E                     __ptext21:	
  4809 ;; *************** function _DRL_OFF *****************
  4810 ;; Defined at:
  4811 ;;		line 335 in file "main.c"
  4812 ;; Parameters:    Size  Location     Type
  4813 ;;		None
  4814 ;; Auto vars:     Size  Location     Type
  4815 ;;		None
  4816 ;; Return value:  Size  Location     Type
  4817 ;;                  1    wreg      void 
  4818 ;; Registers used:
  4819 ;;		status,2
  4820 ;; Tracked objects:
  4821 ;;		On entry : 0/0
  4822 ;;		On exit  : 0/0
  4823 ;;		Unchanged: 0/0
  4824 ;; Data sizes:     COMMON   BANK0   BANK1   BANK2   BANK3   BANK4   BANK5   BANK6
  4825 ;;      Params:         0       0       0       0       0       0       0       0
  4826 ;;      Locals:         0       0       0       0       0       0       0       0
  4827 ;;      Temps:          0       0       0       0       0       0       0       0
  4828 ;;      Totals:         0       0       0       0       0       0       0       0
  4829 ;;Total ram usage:        0 bytes
  4830 ;; Hardware stack levels used: 1
  4831 ;; Hardware stack levels required when called: 4
  4832 ;; This function calls:
  4833 ;;		Nothing
  4834 ;; This function is called by:
  4835 ;;		_LED_output
  4836 ;; This function uses a non-reentrant model
  4837 ;;
  4838                           
  4839     058E                     _DRL_OFF:	
  4840                           ;psect for function _DRL_OFF
  4841                           
  4842     058E                     l2837:	
  4843                           ;incstack = 0
  4844                           ; Regs used in _DRL_OFF: [status,2]
  4845                           
  4846     058E  0025               	movlb	5	; select bank5
  4847     058F  0198               	clrf	24	;volatile
  4848     0590                     l440:
  4849     0590  0008               	return
  4850     0591                     __end_of_DRL_OFF:
  4851                           
  4852                           	psect	text22
  4853     02F8                     __ptext22:	
  4854 ;; *************** function _Exception_handling2 *****************
  4855 ;; Defined at:
  4856 ;;		line 261 in file "main.c"
  4857 ;; Parameters:    Size  Location     Type
  4858 ;;		None
  4859 ;; Auto vars:     Size  Location     Type
  4860 ;;		None
  4861 ;; Return value:  Size  Location     Type
  4862 ;;                  1    wreg      void 
  4863 ;; Registers used:
  4864 ;;		wreg, status,2, status,0, pclath, cstack
  4865 ;; Tracked objects:
  4866 ;;		On entry : 0/0
  4867 ;;		On exit  : 0/0
  4868 ;;		Unchanged: 0/0
  4869 ;; Data sizes:     COMMON   BANK0   BANK1   BANK2   BANK3   BANK4   BANK5   BANK6
  4870 ;;      Params:         0       0       0       0       0       0       0       0
  4871 ;;      Locals:         0       0       0       0       0       0       0       0
  4872 ;;      Temps:          0       0       0       0       0       0       0       0
  4873 ;;      Totals:         0       0       0       0       0       0       0       0
  4874 ;;Total ram usage:        0 bytes
  4875 ;; Hardware stack levels used: 1
  4876 ;; Hardware stack levels required when called: 5
  4877 ;; This function calls:
  4878 ;;		_HiBeam_OFF
  4879 ;;		_LoBeam_OFF
  4880 ;;		_P2_OFF
  4881 ;;		_POS_OFF
  4882 ;;		_POS_Slow_extinguishing
  4883 ;; This function is called by:
  4884 ;;		_main
  4885 ;; This function uses a non-reentrant model
  4886 ;;
  4887                           
  4888     02F8                     _Exception_handling2:	
  4889                           ;psect for function _Exception_handling2
  4890                           
  4891     02F8                     l2877:	
  4892                           ;incstack = 0
  4893                           ; Regs used in _Exception_handling2: [wreg+status,2+status,0+pclath+cstack]
  4894                           
  4895                           
  4896                           ;main.c: 262:   if ((data_buf[2] == 2) && (data_buf[10] == 0xB4)) {
  4897     02F8  3002               	movlw	2
  4898     02F9  0020               	movlb	0	; select bank0
  4899     02FA  0622               	xorwf	_data_buf+2,w
  4900     02FB  1D03               	btfss	3,2
  4901     02FC  2AFE               	goto	u1641
  4902     02FD  2AFF               	goto	u1640
  4903     02FE                     u1641:
  4904     02FE  2B22               	goto	l2897
  4905     02FF                     u1640:
  4906     02FF                     l2879:
  4907     02FF  30B4               	movlw	180
  4908     0300  062A               	xorwf	_data_buf+10,w
  4909     0301  1D03               	btfss	3,2
  4910     0302  2B04               	goto	u1651
  4911     0303  2B05               	goto	u1650
  4912     0304                     u1651:
  4913     0304  2B22               	goto	l2897
  4914     0305                     u1650:
  4915     0305                     l2881:
  4916                           
  4917                           ;main.c: 263:     fClear = 1;
  4918     0305  01C4               	clrf	_fClear
  4919     0306  0AC4               	incf	_fClear,f
  4920     0307                     l2883:
  4921                           
  4922                           ;main.c: 264:     P2_OFF();
  4923     0307  3185  2594  3182   	fcall	_P2_OFF
  4924                           
  4925                           ;main.c: 265:     LoBeam_OFF();
  4926     030A  3185  256B  3182   	fcall	_LoBeam_OFF
  4927                           
  4928                           ;main.c: 266:     HiBeam_OFF();
  4929     030D  3185  259A  3182   	fcall	_HiBeam_OFF
  4930                           
  4931                           ;main.c: 267:     POS_OFF();
  4932     0310  3185  2591  3182   	fcall	_POS_OFF
  4933     0313                     l2885:
  4934                           
  4935                           ;main.c: 268:     if (fPOS_Gradually2 == 0) {
  4936     0313  0020               	movlb	0	; select bank0
  4937     0314  0840               	movf	_fPOS_Gradually2,w
  4938     0315  1D03               	btfss	3,2
  4939     0316  2B18               	goto	u1661
  4940     0317  2B19               	goto	u1660
  4941     0318                     u1661:
  4942     0318  2B1E               	goto	l2893
  4943     0319                     u1660:
  4944     0319                     l2887:
  4945                           
  4946                           ;main.c: 269:       (INTCONbits.GIE = 0);
  4947     0319  138B               	bcf	11,7	;volatile
  4948     031A                     l2889:
  4949                           
  4950                           ;main.c: 270:       POS_Slow_extinguishing();
  4951     031A  3183  23B4  3182   	fcall	_POS_Slow_extinguishing
  4952     031D                     l2891:
  4953                           
  4954                           ;main.c: 271:       (INTCONbits.GIE = 1);
  4955     031D  178B               	bsf	11,7	;volatile
  4956     031E                     l2893:
  4957                           
  4958                           ;main.c: 273:     T10MS_CNT = 0;
  4959     031E  0020               	movlb	0	; select bank0
  4960     031F  01C7               	clrf	_T10MS_CNT	;volatile
  4961     0320                     l2895:
  4962                           
  4963                           ;main.c: 274:     T10MS_CNT1 = 0;
  4964     0320  01C6               	clrf	_T10MS_CNT1	;volatile
  4965                           
  4966                           ;main.c: 275:   }
  4967     0321  2B2C               	goto	l408
  4968     0322                     l2897:
  4969                           
  4970                           ;main.c: 277:     fClear = 0;
  4971     0322  01C4               	clrf	_fClear
  4972     0323                     l2899:
  4973                           
  4974                           ;main.c: 278:     if (T10MS_CNT1 > 50) {
  4975     0323  3033               	movlw	51
  4976     0324  0246               	subwf	_T10MS_CNT1,w	;volatile
  4977     0325  1C03               	skipc
  4978     0326  2B28               	goto	u1671
  4979     0327  2B29               	goto	u1670
  4980     0328                     u1671:
  4981     0328  2B2C               	goto	l408
  4982     0329                     u1670:
  4983     0329                     l2901:
  4984                           
  4985                           ;main.c: 279:       T10MS_CNT1 = 50;
  4986     0329  3032               	movlw	50
  4987     032A  00C6               	movwf	_T10MS_CNT1	;volatile
  4988     032B                     l2903:
  4989                           
  4990                           ;main.c: 280:       fPOS_Gradually2 = 0;
  4991     032B  01C0               	clrf	_fPOS_Gradually2
  4992     032C                     l408:
  4993     032C  0008               	return
  4994     032D                     __end_of_Exception_handling2:
  4995                           
  4996                           	psect	text23
  4997     03B4                     __ptext23:	
  4998 ;; *************** function _POS_Slow_extinguishing *****************
  4999 ;; Defined at:
  5000 ;;		line 371 in file "main.c"
  5001 ;; Parameters:    Size  Location     Type
  5002 ;;		None
  5003 ;; Auto vars:     Size  Location     Type
  5004 ;;  i               1    2[BANK0 ] unsigned char 
  5005 ;; Return value:  Size  Location     Type
  5006 ;;                  1    wreg      void 
  5007 ;; Registers used:
  5008 ;;		wreg, status,2, status,0
  5009 ;; Tracked objects:
  5010 ;;		On entry : 0/0
  5011 ;;		On exit  : 0/0
  5012 ;;		Unchanged: 0/0
  5013 ;; Data sizes:     COMMON   BANK0   BANK1   BANK2   BANK3   BANK4   BANK5   BANK6
  5014 ;;      Params:         0       0       0       0       0       0       0       0
  5015 ;;      Locals:         0       1       0       0       0       0       0       0
  5016 ;;      Temps:          0       2       0       0       0       0       0       0
  5017 ;;      Totals:         0       3       0       0       0       0       0       0
  5018 ;;Total ram usage:        3 bytes
  5019 ;; Hardware stack levels used: 1
  5020 ;; Hardware stack levels required when called: 4
  5021 ;; This function calls:
  5022 ;;		Nothing
  5023 ;; This function is called by:
  5024 ;;		_Exception_handling2
  5025 ;; This function uses a non-reentrant model
  5026 ;;
  5027                           
  5028     03B4                     _POS_Slow_extinguishing:	
  5029                           ;psect for function _POS_Slow_extinguishing
  5030                           
  5031     03B4                     l2791:	
  5032                           ;incstack = 0
  5033                           ; Regs used in _POS_Slow_extinguishing: [wreg+status,2+status,0]
  5034                           
  5035                           
  5036                           ;main.c: 372:   for (uint8_t i = 60; i > 12; i--) {
  5037     03B4  303C               	movlw	60
  5038     03B5  0020               	movlb	0	; select bank0
  5039     03B6  00CE               	movwf	POS_Slow_extinguishing@i
  5040     03B7                     l2795:
  5041                           
  5042                           ;main.c: 373:     CCPR2L = i;
  5043     03B7  084E               	movf	POS_Slow_extinguishing@i,w
  5044     03B8  0025               	movlb	5	; select bank5
  5045     03B9  0098               	movwf	24	;volatile
  5046                           
  5047                           ;main.c: 374:     _delay((unsigned long)((41)*(32000000/4000.0)));
  5048     03BA  3002               	movlw	2
  5049     03BB  0020               	movlb	0	; select bank0
  5050     03BC  00CD               	movwf	??_POS_Slow_extinguishing+1
  5051     03BD  30AA               	movlw	170
  5052     03BE  00CC               	movwf	??_POS_Slow_extinguishing
  5053     03BF  30F6               	movlw	246
  5054     03C0                     u1977:
  5055     03C0  0B89               	decfsz	9,f
  5056     03C1  2BC0               	goto	u1977
  5057     03C2  0BCC               	decfsz	??_POS_Slow_extinguishing,f
  5058     03C3  2BC0               	goto	u1977
  5059     03C4  0BCD               	decfsz	??_POS_Slow_extinguishing+1,f
  5060     03C5  2BC0               	goto	u1977
  5061     03C6  0000               	nop
  5062     03C7                     l2797:
  5063                           
  5064                           ;main.c: 375:   }
  5065     03C7  3001               	movlw	1
  5066     03C8  0020               	movlb	0	; select bank0
  5067     03C9  02CE               	subwf	POS_Slow_extinguishing@i,f
  5068     03CA                     l2799:
  5069     03CA  300D               	movlw	13
  5070     03CB  024E               	subwf	POS_Slow_extinguishing@i,w
  5071     03CC  1803               	skipnc
  5072     03CD  2BCF               	goto	u1531
  5073     03CE  2BD0               	goto	u1530
  5074     03CF                     u1531:
  5075     03CF  2BB7               	goto	l2795
  5076     03D0                     u1530:
  5077     03D0                     l2801:
  5078                           
  5079                           ;main.c: 376:   CCPR2L = 0;
  5080     03D0  0025               	movlb	5	; select bank5
  5081     03D1  0198               	clrf	24	;volatile
  5082     03D2                     l2803:
  5083                           
  5084                           ;main.c: 377:   fPOS_Gradually2 = 1;
  5085     03D2  0020               	movlb	0	; select bank0
  5086     03D3  01C0               	clrf	_fPOS_Gradually2
  5087     03D4  0AC0               	incf	_fPOS_Gradually2,f
  5088     03D5                     l478:
  5089     03D5  0008               	return
  5090     03D6                     __end_of_POS_Slow_extinguishing:
  5091                           
  5092                           	psect	text24
  5093     0591                     __ptext24:	
  5094 ;; *************** function _POS_OFF *****************
  5095 ;; Defined at:
  5096 ;;		line 337 in file "main.c"
  5097 ;; Parameters:    Size  Location     Type
  5098 ;;		None
  5099 ;; Auto vars:     Size  Location     Type
  5100 ;;		None
  5101 ;; Return value:  Size  Location     Type
  5102 ;;                  1    wreg      void 
  5103 ;; Registers used:
  5104 ;;		status,2
  5105 ;; Tracked objects:
  5106 ;;		On entry : 0/0
  5107 ;;		On exit  : 0/0
  5108 ;;		Unchanged: 0/0
  5109 ;; Data sizes:     COMMON   BANK0   BANK1   BANK2   BANK3   BANK4   BANK5   BANK6
  5110 ;;      Params:         0       0       0       0       0       0       0       0
  5111 ;;      Locals:         0       0       0       0       0       0       0       0
  5112 ;;      Temps:          0       0       0       0       0       0       0       0
  5113 ;;      Totals:         0       0       0       0       0       0       0       0
  5114 ;;Total ram usage:        0 bytes
  5115 ;; Hardware stack levels used: 1
  5116 ;; Hardware stack levels required when called: 4
  5117 ;; This function calls:
  5118 ;;		Nothing
  5119 ;; This function is called by:
  5120 ;;		_Exception_handling2
  5121 ;; This function uses a non-reentrant model
  5122 ;;
  5123                           
  5124     0591                     _POS_OFF:	
  5125                           ;psect for function _POS_OFF
  5126                           
  5127     0591                     l2789:	
  5128                           ;incstack = 0
  5129                           ; Regs used in _POS_OFF: [status,2]
  5130                           
  5131     0591  0025               	movlb	5	; select bank5
  5132     0592  0198               	clrf	24	;volatile
  5133     0593                     l446:
  5134     0593  0008               	return
  5135     0594                     __end_of_POS_OFF:
  5136                           
  5137                           	psect	text25
  5138     0594                     __ptext25:	
  5139 ;; *************** function _P2_OFF *****************
  5140 ;; Defined at:
  5141 ;;		line 339 in file "main.c"
  5142 ;; Parameters:    Size  Location     Type
  5143 ;;		None
  5144 ;; Auto vars:     Size  Location     Type
  5145 ;;		None
  5146 ;; Return value:  Size  Location     Type
  5147 ;;                  1    wreg      void 
  5148 ;; Registers used:
  5149 ;;		None
  5150 ;; Tracked objects:
  5151 ;;		On entry : 0/0
  5152 ;;		On exit  : 0/0
  5153 ;;		Unchanged: 0/0
  5154 ;; Data sizes:     COMMON   BANK0   BANK1   BANK2   BANK3   BANK4   BANK5   BANK6
  5155 ;;      Params:         0       0       0       0       0       0       0       0
  5156 ;;      Locals:         0       0       0       0       0       0       0       0
  5157 ;;      Temps:          0       0       0       0       0       0       0       0
  5158 ;;      Totals:         0       0       0       0       0       0       0       0
  5159 ;;Total ram usage:        0 bytes
  5160 ;; Hardware stack levels used: 1
  5161 ;; Hardware stack levels required when called: 4
  5162 ;; This function calls:
  5163 ;;		Nothing
  5164 ;; This function is called by:
  5165 ;;		_Exception_handling2
  5166 ;;		_LED_output
  5167 ;; This function uses a non-reentrant model
  5168 ;;
  5169                           
  5170     0594                     _P2_OFF:	
  5171                           ;psect for function _P2_OFF
  5172                           
  5173     0594                     l454:	
  5174                           ;incstack = 0
  5175                           ; Regs used in _P2_OFF: []
  5176                           
  5177     0594  0022               	movlb	2	; select bank2
  5178     0595  138D               	bcf	13,7	;volatile
  5179     0596                     l456:
  5180     0596  0008               	return
  5181     0597                     __end_of_P2_OFF:
  5182                           
  5183                           	psect	text26
  5184     032D                     __ptext26:	
  5185 ;; *************** function _Exception_handling *****************
  5186 ;; Defined at:
  5187 ;;		line 238 in file "main.c"
  5188 ;; Parameters:    Size  Location     Type
  5189 ;;		None
  5190 ;; Auto vars:     Size  Location     Type
  5191 ;;		None
  5192 ;; Return value:  Size  Location     Type
  5193 ;;                  1    wreg      void 
  5194 ;; Registers used:
  5195 ;;		wreg, status,2, status,0, pclath, cstack
  5196 ;; Tracked objects:
  5197 ;;		On entry : 0/0
  5198 ;;		On exit  : 0/0
  5199 ;;		Unchanged: 0/0
  5200 ;; Data sizes:     COMMON   BANK0   BANK1   BANK2   BANK3   BANK4   BANK5   BANK6
  5201 ;;      Params:         0       0       0       0       0       0       0       0
  5202 ;;      Locals:         0       0       0       0       0       0       0       0
  5203 ;;      Temps:          0       0       0       0       0       0       0       0
  5204 ;;      Totals:         0       0       0       0       0       0       0       0
  5205 ;;Total ram usage:        0 bytes
  5206 ;; Hardware stack levels used: 1
  5207 ;; Hardware stack levels required when called: 5
  5208 ;; This function calls:
  5209 ;;		_HiBeam_OFF
  5210 ;;		_LoBeam_OFF
  5211 ;;		_P2_ON
  5212 ;;		_POS_Gradually
  5213 ;; This function is called by:
  5214 ;;		_main
  5215 ;; This function uses a non-reentrant model
  5216 ;;
  5217                           
  5218     032D                     _Exception_handling:	
  5219                           ;psect for function _Exception_handling
  5220                           
  5221     032D                     l2849:	
  5222                           ;incstack = 0
  5223                           ; Regs used in _Exception_handling: [wreg+status,2+status,0+pclath+cstack]
  5224                           
  5225                           
  5226                           ;main.c: 239:   if ((data_buf[2] == 6) && (data_buf[10] == 0xD5)) {
  5227     032D  3006               	movlw	6
  5228     032E  0020               	movlb	0	; select bank0
  5229     032F  0622               	xorwf	_data_buf+2,w
  5230     0330  1D03               	btfss	3,2
  5231     0331  2B33               	goto	u1601
  5232     0332  2B34               	goto	u1600
  5233     0333                     u1601:
  5234     0333  2B54               	goto	l2869
  5235     0334                     u1600:
  5236     0334                     l2851:
  5237     0334  30D5               	movlw	213
  5238     0335  062A               	xorwf	_data_buf+10,w
  5239     0336  1D03               	btfss	3,2
  5240     0337  2B39               	goto	u1611
  5241     0338  2B3A               	goto	u1610
  5242     0339                     u1611:
  5243     0339  2B54               	goto	l2869
  5244     033A                     u1610:
  5245     033A                     l2853:
  5246                           
  5247                           ;main.c: 240:     fUnlock = 1;
  5248     033A  01C5               	clrf	_fUnlock
  5249     033B  0AC5               	incf	_fUnlock,f
  5250     033C                     l2855:
  5251                           
  5252                           ;main.c: 241:     P2_ON();
  5253     033C  3185  2597  3183   	fcall	_P2_ON
  5254                           
  5255                           ;main.c: 242:     LoBeam_OFF();
  5256     033F  3185  256B  3183   	fcall	_LoBeam_OFF
  5257                           
  5258                           ;main.c: 243:     HiBeam_OFF();
  5259     0342  3185  259A  3183   	fcall	_HiBeam_OFF
  5260     0345                     l2857:
  5261                           
  5262                           ;main.c: 244:     if (fPOS_Gradually == 0) {
  5263     0345  0020               	movlb	0	; select bank0
  5264     0346  0841               	movf	_fPOS_Gradually,w
  5265     0347  1D03               	btfss	3,2
  5266     0348  2B4A               	goto	u1621
  5267     0349  2B4B               	goto	u1620
  5268     034A                     u1621:
  5269     034A  2B50               	goto	l2865
  5270     034B                     u1620:
  5271     034B                     l2859:
  5272                           
  5273                           ;main.c: 245:       (INTCONbits.GIE = 0);
  5274     034B  138B               	bcf	11,7	;volatile
  5275     034C                     l2861:
  5276                           
  5277                           ;main.c: 246:       POS_Gradually();
  5278     034C  3183  238F  3183   	fcall	_POS_Gradually
  5279     034F                     l2863:
  5280                           
  5281                           ;main.c: 247:       (INTCONbits.GIE = 1);
  5282     034F  178B               	bsf	11,7	;volatile
  5283     0350                     l2865:
  5284                           
  5285                           ;main.c: 249:     T10MS_CNT = 0;
  5286     0350  0020               	movlb	0	; select bank0
  5287     0351  01C7               	clrf	_T10MS_CNT	;volatile
  5288     0352                     l2867:
  5289                           
  5290                           ;main.c: 250:     T10MS_CNT1 = 0;
  5291     0352  01C6               	clrf	_T10MS_CNT1	;volatile
  5292                           
  5293                           ;main.c: 251:   } else {
  5294     0353  2B5E               	goto	l401
  5295     0354                     l2869:
  5296                           
  5297                           ;main.c: 252:     fUnlock = 0;
  5298     0354  01C5               	clrf	_fUnlock
  5299     0355                     l2871:
  5300                           
  5301                           ;main.c: 253:     if (T10MS_CNT1 > 50) {
  5302     0355  3033               	movlw	51
  5303     0356  0246               	subwf	_T10MS_CNT1,w	;volatile
  5304     0357  1C03               	skipc
  5305     0358  2B5A               	goto	u1631
  5306     0359  2B5B               	goto	u1630
  5307     035A                     u1631:
  5308     035A  2B5E               	goto	l401
  5309     035B                     u1630:
  5310     035B                     l2873:
  5311                           
  5312                           ;main.c: 254:       T10MS_CNT1 = 50;
  5313     035B  3032               	movlw	50
  5314     035C  00C6               	movwf	_T10MS_CNT1	;volatile
  5315     035D                     l2875:
  5316                           
  5317                           ;main.c: 255:       fPOS_Gradually = 0;
  5318     035D  01C1               	clrf	_fPOS_Gradually
  5319     035E                     l401:
  5320     035E  0008               	return
  5321     035F                     __end_of_Exception_handling:
  5322                           
  5323                           	psect	text27
  5324     038F                     __ptext27:	
  5325 ;; *************** function _POS_Gradually *****************
  5326 ;; Defined at:
  5327 ;;		line 362 in file "main.c"
  5328 ;; Parameters:    Size  Location     Type
  5329 ;;		None
  5330 ;; Auto vars:     Size  Location     Type
  5331 ;;  i               1    2[BANK0 ] unsigned char 
  5332 ;; Return value:  Size  Location     Type
  5333 ;;                  1    wreg      void 
  5334 ;; Registers used:
  5335 ;;		wreg, status,2, status,0
  5336 ;; Tracked objects:
  5337 ;;		On entry : 0/0
  5338 ;;		On exit  : 0/0
  5339 ;;		Unchanged: 0/0
  5340 ;; Data sizes:     COMMON   BANK0   BANK1   BANK2   BANK3   BANK4   BANK5   BANK6
  5341 ;;      Params:         0       0       0       0       0       0       0       0
  5342 ;;      Locals:         0       1       0       0       0       0       0       0
  5343 ;;      Temps:          0       2       0       0       0       0       0       0
  5344 ;;      Totals:         0       3       0       0       0       0       0       0
  5345 ;;Total ram usage:        3 bytes
  5346 ;; Hardware stack levels used: 1
  5347 ;; Hardware stack levels required when called: 4
  5348 ;; This function calls:
  5349 ;;		Nothing
  5350 ;; This function is called by:
  5351 ;;		_Exception_handling
  5352 ;; This function uses a non-reentrant model
  5353 ;;
  5354                           
  5355     038F                     _POS_Gradually:	
  5356                           ;psect for function _POS_Gradually
  5357                           
  5358     038F                     l2773:	
  5359                           ;incstack = 0
  5360                           ; Regs used in _POS_Gradually: [wreg+status,2+status,0]
  5361                           
  5362                           
  5363                           ;main.c: 363:   for (uint8_t i = 0; i < 49; i++) {
  5364     038F  0020               	movlb	0	; select bank0
  5365     0390  01CE               	clrf	POS_Gradually@i
  5366     0391                     l2779:
  5367                           
  5368                           ;main.c: 364:     CCPR2L = i + 12;
  5369     0391  084E               	movf	POS_Gradually@i,w
  5370     0392  3E0C               	addlw	12
  5371     0393  0025               	movlb	5	; select bank5
  5372     0394  0098               	movwf	24	;volatile
  5373     0395                     l2781:
  5374                           
  5375                           ;main.c: 365:     _delay((unsigned long)((41)*(32000000/4000.0)));
  5376     0395  3002               	movlw	2
  5377     0396  0020               	movlb	0	; select bank0
  5378     0397  00CD               	movwf	??_POS_Gradually+1
  5379     0398  30AA               	movlw	170
  5380     0399  00CC               	movwf	??_POS_Gradually
  5381     039A  30F6               	movlw	246
  5382     039B                     u1987:
  5383     039B  0B89               	decfsz	9,f
  5384     039C  2B9B               	goto	u1987
  5385     039D  0BCC               	decfsz	??_POS_Gradually,f
  5386     039E  2B9B               	goto	u1987
  5387     039F  0BCD               	decfsz	??_POS_Gradually+1,f
  5388     03A0  2B9B               	goto	u1987
  5389     03A1  0000               	nop
  5390     03A2                     l2783:
  5391                           
  5392                           ;main.c: 366:   }
  5393     03A2  3001               	movlw	1
  5394     03A3  0020               	movlb	0	; select bank0
  5395     03A4  00CC               	movwf	??_POS_Gradually
  5396     03A5  084C               	movf	??_POS_Gradually,w
  5397     03A6  07CE               	addwf	POS_Gradually@i,f
  5398     03A7  3031               	movlw	49
  5399     03A8  024E               	subwf	POS_Gradually@i,w
  5400     03A9  1C03               	skipc
  5401     03AA  2BAC               	goto	u1521
  5402     03AB  2BAD               	goto	u1520
  5403     03AC                     u1521:
  5404     03AC  2B91               	goto	l2779
  5405     03AD                     u1520:
  5406     03AD                     l2785:
  5407                           
  5408                           ;main.c: 367:   CCPR2L = 60;
  5409     03AD  303C               	movlw	60
  5410     03AE  0025               	movlb	5	; select bank5
  5411     03AF  0098               	movwf	24	;volatile
  5412     03B0                     l2787:
  5413                           
  5414                           ;main.c: 368:   fPOS_Gradually = 1;
  5415     03B0  0020               	movlb	0	; select bank0
  5416     03B1  01C1               	clrf	_fPOS_Gradually
  5417     03B2  0AC1               	incf	_fPOS_Gradually,f
  5418     03B3                     l473:
  5419     03B3  0008               	return
  5420     03B4                     __end_of_POS_Gradually:
  5421                           
  5422                           	psect	text28
  5423     0597                     __ptext28:	
  5424 ;; *************** function _P2_ON *****************
  5425 ;; Defined at:
  5426 ;;		line 338 in file "main.c"
  5427 ;; Parameters:    Size  Location     Type
  5428 ;;		None
  5429 ;; Auto vars:     Size  Location     Type
  5430 ;;		None
  5431 ;; Return value:  Size  Location     Type
  5432 ;;                  1    wreg      void 
  5433 ;; Registers used:
  5434 ;;		None
  5435 ;; Tracked objects:
  5436 ;;		On entry : 0/0
  5437 ;;		On exit  : 0/0
  5438 ;;		Unchanged: 0/0
  5439 ;; Data sizes:     COMMON   BANK0   BANK1   BANK2   BANK3   BANK4   BANK5   BANK6
  5440 ;;      Params:         0       0       0       0       0       0       0       0
  5441 ;;      Locals:         0       0       0       0       0       0       0       0
  5442 ;;      Temps:          0       0       0       0       0       0       0       0
  5443 ;;      Totals:         0       0       0       0       0       0       0       0
  5444 ;;Total ram usage:        0 bytes
  5445 ;; Hardware stack levels used: 1
  5446 ;; Hardware stack levels required when called: 4
  5447 ;; This function calls:
  5448 ;;		Nothing
  5449 ;; This function is called by:
  5450 ;;		_Exception_handling
  5451 ;;		_LED_output
  5452 ;;		_main
  5453 ;; This function uses a non-reentrant model
  5454 ;;
  5455                           
  5456     0597                     _P2_ON:	
  5457                           ;psect for function _P2_ON
  5458                           
  5459     0597                     l449:	
  5460                           ;incstack = 0
  5461                           ; Regs used in _P2_ON: []
  5462                           
  5463     0597  0022               	movlb	2	; select bank2
  5464     0598  178D               	bsf	13,7	;volatile
  5465     0599                     l451:
  5466     0599  0008               	return
  5467     059A                     __end_of_P2_ON:
  5468                           
  5469                           	psect	text29
  5470     056B                     __ptext29:	
  5471 ;; *************** function _LoBeam_OFF *****************
  5472 ;; Defined at:
  5473 ;;		line 296 in file "main.c"
  5474 ;; Parameters:    Size  Location     Type
  5475 ;;		None
  5476 ;; Auto vars:     Size  Location     Type
  5477 ;;		None
  5478 ;; Return value:  Size  Location     Type
  5479 ;;                  1    wreg      void 
  5480 ;; Registers used:
  5481 ;;		status,2
  5482 ;; Tracked objects:
  5483 ;;		On entry : 0/0
  5484 ;;		On exit  : 0/0
  5485 ;;		Unchanged: 0/0
  5486 ;; Data sizes:     COMMON   BANK0   BANK1   BANK2   BANK3   BANK4   BANK5   BANK6
  5487 ;;      Params:         0       0       0       0       0       0       0       0
  5488 ;;      Locals:         0       0       0       0       0       0       0       0
  5489 ;;      Temps:          0       0       0       0       0       0       0       0
  5490 ;;      Totals:         0       0       0       0       0       0       0       0
  5491 ;;Total ram usage:        0 bytes
  5492 ;; Hardware stack levels used: 1
  5493 ;; Hardware stack levels required when called: 4
  5494 ;; This function calls:
  5495 ;;		Nothing
  5496 ;; This function is called by:
  5497 ;;		_Exception_handling
  5498 ;;		_Exception_handling2
  5499 ;;		_LED_output
  5500 ;; This function uses a non-reentrant model
  5501 ;;
  5502                           
  5503     056B                     _LoBeam_OFF:	
  5504                           ;psect for function _LoBeam_OFF
  5505                           
  5506     056B                     l2771:	
  5507                           ;incstack = 0
  5508                           ; Regs used in _LoBeam_OFF: [status,2]
  5509                           
  5510                           
  5511                           ;main.c: 297:   fLoPe_DRL_In_use = 0;
  5512     056B  0020               	movlb	0	; select bank0
  5513     056C  01BD               	clrf	_fLoPe_DRL_In_use
  5514                           
  5515                           ;main.c: 298:   CCPR1L = 0;
  5516     056D  0025               	movlb	5	; select bank5
  5517     056E  0191               	clrf	17	;volatile
  5518     056F                     l424:
  5519     056F  0008               	return
  5520     0570                     __end_of_LoBeam_OFF:
  5521                           
  5522                           	psect	text30
  5523     059A                     __ptext30:	
  5524 ;; *************** function _HiBeam_OFF *****************
  5525 ;; Defined at:
  5526 ;;		line 287 in file "main.c"
  5527 ;; Parameters:    Size  Location     Type
  5528 ;;		None
  5529 ;; Auto vars:     Size  Location     Type
  5530 ;;		None
  5531 ;; Return value:  Size  Location     Type
  5532 ;;                  1    wreg      void 
  5533 ;; Registers used:
  5534 ;;		None
  5535 ;; Tracked objects:
  5536 ;;		On entry : 0/0
  5537 ;;		On exit  : 0/0
  5538 ;;		Unchanged: 0/0
  5539 ;; Data sizes:     COMMON   BANK0   BANK1   BANK2   BANK3   BANK4   BANK5   BANK6
  5540 ;;      Params:         0       0       0       0       0       0       0       0
  5541 ;;      Locals:         0       0       0       0       0       0       0       0
  5542 ;;      Temps:          0       0       0       0       0       0       0       0
  5543 ;;      Totals:         0       0       0       0       0       0       0       0
  5544 ;;Total ram usage:        0 bytes
  5545 ;; Hardware stack levels used: 1
  5546 ;; Hardware stack levels required when called: 4
  5547 ;; This function calls:
  5548 ;;		Nothing
  5549 ;; This function is called by:
  5550 ;;		_Exception_handling
  5551 ;;		_Exception_handling2
  5552 ;;		_LED_output
  5553 ;;		_main
  5554 ;; This function uses a non-reentrant model
  5555 ;;
  5556                           
  5557     059A                     _HiBeam_OFF:	
  5558                           ;psect for function _HiBeam_OFF
  5559                           
  5560     059A                     l416:	
  5561                           ;incstack = 0
  5562                           ; Regs used in _HiBeam_OFF: []
  5563                           
  5564     059A  0022               	movlb	2	; select bank2
  5565     059B  140C               	bsf	12,0	;volatile
  5566     059C                     l418:
  5567     059C  0008               	return
  5568     059D                     __end_of_HiBeam_OFF:
  5569                           
  5570                           	psect	text31
  5571     05B8                     __ptext31:	
  5572 ;; *************** function _Clear_No_Call_Warning *****************
  5573 ;; Defined at:
  5574 ;;		line 717 in file "main.c"
  5575 ;; Parameters:    Size  Location     Type
  5576 ;;		None
  5577 ;; Auto vars:     Size  Location     Type
  5578 ;;  i               1    0        unsigned char 
  5579 ;; Return value:  Size  Location     Type
  5580 ;;                  1    wreg      void 
  5581 ;; Registers used:
  5582 ;;		status,2, status,0, pclath, cstack
  5583 ;; Tracked objects:
  5584 ;;		On entry : 0/0
  5585 ;;		On exit  : 0/0
  5586 ;;		Unchanged: 0/0
  5587 ;; Data sizes:     COMMON   BANK0   BANK1   BANK2   BANK3   BANK4   BANK5   BANK6
  5588 ;;      Params:         0       0       0       0       0       0       0       0
  5589 ;;      Locals:         0       0       0       0       0       0       0       0
  5590 ;;      Temps:          0       0       0       0       0       0       0       0
  5591 ;;      Totals:         0       0       0       0       0       0       0       0
  5592 ;;Total ram usage:        0 bytes
  5593 ;; Hardware stack levels used: 1
  5594 ;; Hardware stack levels required when called: 6
  5595 ;; This function calls:
  5596 ;;		_EPWM1_LoadDutyValue
  5597 ;;		_EPWM2_LoadDutyValue
  5598 ;;		_PIN_MANAGER_IOC
  5599 ;;		_TMR0_ReadTimer
  5600 ;;		_TMR0_Reload
  5601 ;;		_TMR0_WriteTimer
  5602 ;;		_TMR1_CheckGateValueStatus
  5603 ;;		_TMR1_HasOverflowOccured
  5604 ;;		_TMR1_ReadTimer
  5605 ;;		_TMR1_Reload
  5606 ;;		_TMR1_StartSinglePulseAcquisition
  5607 ;;		_TMR1_StartTimer
  5608 ;;		_TMR1_StopTimer
  5609 ;;		_TMR1_WriteTimer
  5610 ;;		_TMR2_HasOverflowOccured
  5611 ;;		_TMR2_LoadPeriodRegister
  5612 ;;		_TMR2_ReadTimer
  5613 ;;		_TMR2_StartTimer
  5614 ;;		_TMR2_StopTimer
  5615 ;;		_TMR2_WriteTimer
  5616 ;; This function is called by:
  5617 ;;		_main
  5618 ;; This function uses a non-reentrant model
  5619 ;;
  5620                           
  5621     05B8                     _Clear_No_Call_Warning:	
  5622                           ;psect for function _Clear_No_Call_Warning
  5623                           
  5624     05B8                     l3115:	
  5625                           ;incstack = 0
  5626                           ; Regs used in _Clear_No_Call_Warning: [status,2+status,0+pclath+cstack]
  5627                           
  5628     05B8                     l603:
  5629     05B8  0008               	return
  5630     05B9                     __end_of_Clear_No_Call_Warning:
  5631                           
  5632                           	psect	text32
  5633     0570                     __ptext32:	
  5634 ;; *************** function _TMR2_WriteTimer *****************
  5635 ;; Defined at:
  5636 ;;		line 100 in file "mcc_generated_files/tmr2.c"
  5637 ;; Parameters:    Size  Location     Type
  5638 ;;  timerVal        1    wreg     unsigned char 
  5639 ;; Auto vars:     Size  Location     Type
  5640 ;;  timerVal        1    0[BANK0 ] unsigned char 
  5641 ;; Return value:  Size  Location     Type
  5642 ;;                  1    wreg      void 
  5643 ;; Registers used:
  5644 ;;		wreg
  5645 ;; Tracked objects:
  5646 ;;		On entry : 0/0
  5647 ;;		On exit  : 0/0
  5648 ;;		Unchanged: 0/0
  5649 ;; Data sizes:     COMMON   BANK0   BANK1   BANK2   BANK3   BANK4   BANK5   BANK6
  5650 ;;      Params:         0       0       0       0       0       0       0       0
  5651 ;;      Locals:         0       1       0       0       0       0       0       0
  5652 ;;      Temps:          0       0       0       0       0       0       0       0
  5653 ;;      Totals:         0       1       0       0       0       0       0       0
  5654 ;;Total ram usage:        1 bytes
  5655 ;; Hardware stack levels used: 1
  5656 ;; Hardware stack levels required when called: 4
  5657 ;; This function calls:
  5658 ;;		Nothing
  5659 ;; This function is called by:
  5660 ;;		_Clear_No_Call_Warning
  5661 ;; This function uses a non-reentrant model
  5662 ;;
  5663                           
  5664     0570                     _TMR2_WriteTimer:	
  5665                           ;psect for function _TMR2_WriteTimer
  5666                           
  5667                           
  5668                           ;incstack = 0
  5669                           ; Regs used in _TMR2_WriteTimer: [wreg]
  5670                           ;TMR2_WriteTimer@timerVal stored from wreg
  5671     0570  0020               	movlb	0	; select bank0
  5672     0571  00CC               	movwf	TMR2_WriteTimer@timerVal
  5673     0572                     l2757:
  5674                           
  5675                           ;mcc_generated_files/tmr2.c: 100: void TMR2_WriteTimer(uint8_t timerVal);mcc_generated_f
      +                          iles/tmr2.c: 101: {;mcc_generated_files/tmr2.c: 103:     TMR2 = timerVal;
  5676     0572  084C               	movf	TMR2_WriteTimer@timerVal,w
  5677     0573  009A               	movwf	26	;volatile
  5678     0574                     l209:
  5679     0574  0008               	return
  5680     0575                     __end_of_TMR2_WriteTimer:
  5681                           
  5682                           	psect	text33
  5683     059D                     __ptext33:	
  5684 ;; *************** function _TMR2_StopTimer *****************
  5685 ;; Defined at:
  5686 ;;		line 85 in file "mcc_generated_files/tmr2.c"
  5687 ;; Parameters:    Size  Location     Type
  5688 ;;		None
  5689 ;; Auto vars:     Size  Location     Type
  5690 ;;		None
  5691 ;; Return value:  Size  Location     Type
  5692 ;;                  1    wreg      void 
  5693 ;; Registers used:
  5694 ;;		None
  5695 ;; Tracked objects:
  5696 ;;		On entry : 0/0
  5697 ;;		On exit  : 0/0
  5698 ;;		Unchanged: 0/0
  5699 ;; Data sizes:     COMMON   BANK0   BANK1   BANK2   BANK3   BANK4   BANK5   BANK6
  5700 ;;      Params:         0       0       0       0       0       0       0       0
  5701 ;;      Locals:         0       0       0       0       0       0       0       0
  5702 ;;      Temps:          0       0       0       0       0       0       0       0
  5703 ;;      Totals:         0       0       0       0       0       0       0       0
  5704 ;;Total ram usage:        0 bytes
  5705 ;; Hardware stack levels used: 1
  5706 ;; Hardware stack levels required when called: 4
  5707 ;; This function calls:
  5708 ;;		Nothing
  5709 ;; This function is called by:
  5710 ;;		_Clear_No_Call_Warning
  5711 ;; This function uses a non-reentrant model
  5712 ;;
  5713                           
  5714     059D                     _TMR2_StopTimer:	
  5715                           ;psect for function _TMR2_StopTimer
  5716                           
  5717     059D                     l2751:	
  5718                           ;incstack = 0
  5719                           ; Regs used in _TMR2_StopTimer: []
  5720                           
  5721                           
  5722                           ;mcc_generated_files/tmr2.c: 88:     T2CONbits.TMR2ON = 0;
  5723     059D  0020               	movlb	0	; select bank0
  5724     059E  111C               	bcf	28,2	;volatile
  5725     059F                     l203:
  5726     059F  0008               	return
  5727     05A0                     __end_of_TMR2_StopTimer:
  5728                           
  5729                           	psect	text34
  5730     05A0                     __ptext34:	
  5731 ;; *************** function _TMR2_StartTimer *****************
  5732 ;; Defined at:
  5733 ;;		line 79 in file "mcc_generated_files/tmr2.c"
  5734 ;; Parameters:    Size  Location     Type
  5735 ;;		None
  5736 ;; Auto vars:     Size  Location     Type
  5737 ;;		None
  5738 ;; Return value:  Size  Location     Type
  5739 ;;                  1    wreg      void 
  5740 ;; Registers used:
  5741 ;;		None
  5742 ;; Tracked objects:
  5743 ;;		On entry : 0/0
  5744 ;;		On exit  : 0/0
  5745 ;;		Unchanged: 0/0
  5746 ;; Data sizes:     COMMON   BANK0   BANK1   BANK2   BANK3   BANK4   BANK5   BANK6
  5747 ;;      Params:         0       0       0       0       0       0       0       0
  5748 ;;      Locals:         0       0       0       0       0       0       0       0
  5749 ;;      Temps:          0       0       0       0       0       0       0       0
  5750 ;;      Totals:         0       0       0       0       0       0       0       0
  5751 ;;Total ram usage:        0 bytes
  5752 ;; Hardware stack levels used: 1
  5753 ;; Hardware stack levels required when called: 4
  5754 ;; This function calls:
  5755 ;;		Nothing
  5756 ;; This function is called by:
  5757 ;;		_Clear_No_Call_Warning
  5758 ;; This function uses a non-reentrant model
  5759 ;;
  5760                           
  5761     05A0                     _TMR2_StartTimer:	
  5762                           ;psect for function _TMR2_StartTimer
  5763                           
  5764     05A0                     l2749:	
  5765                           ;incstack = 0
  5766                           ; Regs used in _TMR2_StartTimer: []
  5767                           
  5768                           
  5769                           ;mcc_generated_files/tmr2.c: 82:     T2CONbits.TMR2ON = 1;
  5770     05A0  0020               	movlb	0	; select bank0
  5771     05A1  151C               	bsf	28,2	;volatile
  5772     05A2                     l200:
  5773     05A2  0008               	return
  5774     05A3                     __end_of_TMR2_StartTimer:
  5775                           
  5776                           	psect	text35
  5777     05A3                     __ptext35:	
  5778 ;; *************** function _TMR2_ReadTimer *****************
  5779 ;; Defined at:
  5780 ;;		line 91 in file "mcc_generated_files/tmr2.c"
  5781 ;; Parameters:    Size  Location     Type
  5782 ;;		None
  5783 ;; Auto vars:     Size  Location     Type
  5784 ;;  readVal         1    0        unsigned char 
  5785 ;; Return value:  Size  Location     Type
  5786 ;;                  1    wreg      unsigned char 
  5787 ;; Registers used:
  5788 ;;		wreg
  5789 ;; Tracked objects:
  5790 ;;		On entry : 0/0
  5791 ;;		On exit  : 0/0
  5792 ;;		Unchanged: 0/0
  5793 ;; Data sizes:     COMMON   BANK0   BANK1   BANK2   BANK3   BANK4   BANK5   BANK6
  5794 ;;      Params:         0       0       0       0       0       0       0       0
  5795 ;;      Locals:         0       0       0       0       0       0       0       0
  5796 ;;      Temps:          0       0       0       0       0       0       0       0
  5797 ;;      Totals:         0       0       0       0       0       0       0       0
  5798 ;;Total ram usage:        0 bytes
  5799 ;; Hardware stack levels used: 1
  5800 ;; Hardware stack levels required when called: 4
  5801 ;; This function calls:
  5802 ;;		Nothing
  5803 ;; This function is called by:
  5804 ;;		_Clear_No_Call_Warning
  5805 ;; This function uses a non-reentrant model
  5806 ;;
  5807                           
  5808     05A3                     _TMR2_ReadTimer:	
  5809                           ;psect for function _TMR2_ReadTimer
  5810                           
  5811     05A3                     l2753:	
  5812                           ;incstack = 0
  5813                           ; Regs used in _TMR2_ReadTimer: [wreg]
  5814                           
  5815     05A3  0020               	movlb	0	; select bank0
  5816     05A4  081A               	movf	26,w	;volatile
  5817     05A5                     l206:
  5818     05A5  0008               	return
  5819     05A6                     __end_of_TMR2_ReadTimer:
  5820                           
  5821                           	psect	text36
  5822     0575                     __ptext36:	
  5823 ;; *************** function _TMR2_LoadPeriodRegister *****************
  5824 ;; Defined at:
  5825 ;;		line 106 in file "mcc_generated_files/tmr2.c"
  5826 ;; Parameters:    Size  Location     Type
  5827 ;;  periodVal       1    wreg     unsigned char 
  5828 ;; Auto vars:     Size  Location     Type
  5829 ;;  periodVal       1    0[BANK0 ] unsigned char 
  5830 ;; Return value:  Size  Location     Type
  5831 ;;                  1    wreg      void 
  5832 ;; Registers used:
  5833 ;;		wreg
  5834 ;; Tracked objects:
  5835 ;;		On entry : 0/0
  5836 ;;		On exit  : 0/0
  5837 ;;		Unchanged: 0/0
  5838 ;; Data sizes:     COMMON   BANK0   BANK1   BANK2   BANK3   BANK4   BANK5   BANK6
  5839 ;;      Params:         0       0       0       0       0       0       0       0
  5840 ;;      Locals:         0       1       0       0       0       0       0       0
  5841 ;;      Temps:          0       0       0       0       0       0       0       0
  5842 ;;      Totals:         0       1       0       0       0       0       0       0
  5843 ;;Total ram usage:        1 bytes
  5844 ;; Hardware stack levels used: 1
  5845 ;; Hardware stack levels required when called: 4
  5846 ;; This function calls:
  5847 ;;		Nothing
  5848 ;; This function is called by:
  5849 ;;		_Clear_No_Call_Warning
  5850 ;; This function uses a non-reentrant model
  5851 ;;
  5852                           
  5853     0575                     _TMR2_LoadPeriodRegister:	
  5854                           ;psect for function _TMR2_LoadPeriodRegister
  5855                           
  5856                           
  5857                           ;incstack = 0
  5858                           ; Regs used in _TMR2_LoadPeriodRegister: [wreg]
  5859                           ;TMR2_LoadPeriodRegister@periodVal stored from wreg
  5860     0575  0020               	movlb	0	; select bank0
  5861     0576  00CC               	movwf	TMR2_LoadPeriodRegister@periodVal
  5862     0577                     l2759:
  5863                           
  5864                           ;mcc_generated_files/tmr2.c: 106: void TMR2_LoadPeriodRegister(uint8_t periodVal);mcc_ge
      +                          nerated_files/tmr2.c: 107: {;mcc_generated_files/tmr2.c: 108:    PR2 = periodVal;
  5865     0577  084C               	movf	TMR2_LoadPeriodRegister@periodVal,w
  5866     0578  009B               	movwf	27	;volatile
  5867     0579                     l212:
  5868     0579  0008               	return
  5869     057A                     __end_of_TMR2_LoadPeriodRegister:
  5870                           
  5871                           	psect	text37
  5872     052C                     __ptext37:	
  5873 ;; *************** function _TMR2_HasOverflowOccured *****************
  5874 ;; Defined at:
  5875 ;;		line 111 in file "mcc_generated_files/tmr2.c"
  5876 ;; Parameters:    Size  Location     Type
  5877 ;;		None
  5878 ;; Auto vars:     Size  Location     Type
  5879 ;;  status          1    0[BANK0 ] _Bool 
  5880 ;; Return value:  Size  Location     Type
  5881 ;;                  1    wreg      _Bool 
  5882 ;; Registers used:
  5883 ;;		wreg, status,2, status,0
  5884 ;; Tracked objects:
  5885 ;;		On entry : 0/0
  5886 ;;		On exit  : 0/0
  5887 ;;		Unchanged: 0/0
  5888 ;; Data sizes:     COMMON   BANK0   BANK1   BANK2   BANK3   BANK4   BANK5   BANK6
  5889 ;;      Params:         0       0       0       0       0       0       0       0
  5890 ;;      Locals:         0       1       0       0       0       0       0       0
  5891 ;;      Temps:          0       0       0       0       0       0       0       0
  5892 ;;      Totals:         0       1       0       0       0       0       0       0
  5893 ;;Total ram usage:        1 bytes
  5894 ;; Hardware stack levels used: 1
  5895 ;; Hardware stack levels required when called: 4
  5896 ;; This function calls:
  5897 ;;		Nothing
  5898 ;; This function is called by:
  5899 ;;		_Clear_No_Call_Warning
  5900 ;; This function uses a non-reentrant model
  5901 ;;
  5902                           
  5903     052C                     _TMR2_HasOverflowOccured:	
  5904                           ;psect for function _TMR2_HasOverflowOccured
  5905                           
  5906     052C                     l2761:	
  5907                           ;incstack = 0
  5908                           ; Regs used in _TMR2_HasOverflowOccured: [wreg+status,2+status,0]
  5909                           
  5910                           
  5911                           ;mcc_generated_files/tmr2.c: 114:     _Bool status = PIR1bits.TMR2IF;
  5912     052C  3000               	movlw	0
  5913     052D  0020               	movlb	0	; select bank0
  5914     052E  1891               	btfsc	17,1	;volatile
  5915     052F  3001               	movlw	1
  5916     0530  00CC               	movwf	TMR2_HasOverflowOccured@status
  5917     0531                     l2763:
  5918                           
  5919                           ;mcc_generated_files/tmr2.c: 115:     if(status)
  5920     0531  084C               	movf	TMR2_HasOverflowOccured@status,w
  5921     0532  1903               	btfsc	3,2
  5922     0533  2D35               	goto	u1491
  5923     0534  2D36               	goto	u1490
  5924     0535                     u1491:
  5925     0535  2D37               	goto	l216
  5926     0536                     u1490:
  5927     0536                     l2765:
  5928                           
  5929                           ;mcc_generated_files/tmr2.c: 116:     {;mcc_generated_files/tmr2.c: 118:         PIR1bit
      +                          s.TMR2IF = 0;
  5930     0536  1091               	bcf	17,1	;volatile
  5931     0537                     l216:
  5932     0537  0008               	return
  5933     0538                     __end_of_TMR2_HasOverflowOccured:
  5934                           
  5935                           	psect	text38
  5936     05A6                     __ptext38:	
  5937 ;; *************** function _TMR1_StopTimer *****************
  5938 ;; Defined at:
  5939 ;;		line 92 in file "mcc_generated_files/tmr1.c"
  5940 ;; Parameters:    Size  Location     Type
  5941 ;;		None
  5942 ;; Auto vars:     Size  Location     Type
  5943 ;;		None
  5944 ;; Return value:  Size  Location     Type
  5945 ;;                  1    wreg      void 
  5946 ;; Registers used:
  5947 ;;		None
  5948 ;; Tracked objects:
  5949 ;;		On entry : 0/0
  5950 ;;		On exit  : 0/0
  5951 ;;		Unchanged: 0/0
  5952 ;; Data sizes:     COMMON   BANK0   BANK1   BANK2   BANK3   BANK4   BANK5   BANK6
  5953 ;;      Params:         0       0       0       0       0       0       0       0
  5954 ;;      Locals:         0       0       0       0       0       0       0       0
  5955 ;;      Temps:          0       0       0       0       0       0       0       0
  5956 ;;      Totals:         0       0       0       0       0       0       0       0
  5957 ;;Total ram usage:        0 bytes
  5958 ;; Hardware stack levels used: 1
  5959 ;; Hardware stack levels required when called: 4
  5960 ;; This function calls:
  5961 ;;		Nothing
  5962 ;; This function is called by:
  5963 ;;		_Clear_No_Call_Warning
  5964 ;; This function uses a non-reentrant model
  5965 ;;
  5966                           
  5967     05A6                     _TMR1_StopTimer:	
  5968                           ;psect for function _TMR1_StopTimer
  5969                           
  5970     05A6                     l2723:	
  5971                           ;incstack = 0
  5972                           ; Regs used in _TMR1_StopTimer: []
  5973                           
  5974                           
  5975                           ;mcc_generated_files/tmr1.c: 95:     T1CONbits.TMR1ON = 0;
  5976     05A6  0020               	movlb	0	; select bank0
  5977     05A7  1018               	bcf	24,0	;volatile
  5978     05A8                     l86:
  5979     05A8  0008               	return
  5980     05A9                     __end_of_TMR1_StopTimer:
  5981                           
  5982                           	psect	text39
  5983     05A9                     __ptext39:	
  5984 ;; *************** function _TMR1_StartTimer *****************
  5985 ;; Defined at:
  5986 ;;		line 86 in file "mcc_generated_files/tmr1.c"
  5987 ;; Parameters:    Size  Location     Type
  5988 ;;		None
  5989 ;; Auto vars:     Size  Location     Type
  5990 ;;		None
  5991 ;; Return value:  Size  Location     Type
  5992 ;;                  1    wreg      void 
  5993 ;; Registers used:
  5994 ;;		None
  5995 ;; Tracked objects:
  5996 ;;		On entry : 0/0
  5997 ;;		On exit  : 0/0
  5998 ;;		Unchanged: 0/0
  5999 ;; Data sizes:     COMMON   BANK0   BANK1   BANK2   BANK3   BANK4   BANK5   BANK6
  6000 ;;      Params:         0       0       0       0       0       0       0       0
  6001 ;;      Locals:         0       0       0       0       0       0       0       0
  6002 ;;      Temps:          0       0       0       0       0       0       0       0
  6003 ;;      Totals:         0       0       0       0       0       0       0       0
  6004 ;;Total ram usage:        0 bytes
  6005 ;; Hardware stack levels used: 1
  6006 ;; Hardware stack levels required when called: 4
  6007 ;; This function calls:
  6008 ;;		Nothing
  6009 ;; This function is called by:
  6010 ;;		_Clear_No_Call_Warning
  6011 ;; This function uses a non-reentrant model
  6012 ;;
  6013                           
  6014     05A9                     _TMR1_StartTimer:	
  6015                           ;psect for function _TMR1_StartTimer
  6016                           
  6017     05A9                     l2721:	
  6018                           ;incstack = 0
  6019                           ; Regs used in _TMR1_StartTimer: []
  6020                           
  6021                           
  6022                           ;mcc_generated_files/tmr1.c: 89:     T1CONbits.TMR1ON = 1;
  6023     05A9  0020               	movlb	0	; select bank0
  6024     05AA  1418               	bsf	24,0	;volatile
  6025     05AB                     l83:
  6026     05AB  0008               	return
  6027     05AC                     __end_of_TMR1_StartTimer:
  6028                           
  6029                           	psect	text40
  6030     05AC                     __ptext40:	
  6031 ;; *************** function _TMR1_StartSinglePulseAcquisition *****************
  6032 ;; Defined at:
  6033 ;;		line 140 in file "mcc_generated_files/tmr1.c"
  6034 ;; Parameters:    Size  Location     Type
  6035 ;;		None
  6036 ;; Auto vars:     Size  Location     Type
  6037 ;;		None
  6038 ;; Return value:  Size  Location     Type
  6039 ;;                  1    wreg      void 
  6040 ;; Registers used:
  6041 ;;		None
  6042 ;; Tracked objects:
  6043 ;;		On entry : 0/0
  6044 ;;		On exit  : 0/0
  6045 ;;		Unchanged: 0/0
  6046 ;; Data sizes:     COMMON   BANK0   BANK1   BANK2   BANK3   BANK4   BANK5   BANK6
  6047 ;;      Params:         0       0       0       0       0       0       0       0
  6048 ;;      Locals:         0       0       0       0       0       0       0       0
  6049 ;;      Temps:          0       0       0       0       0       0       0       0
  6050 ;;      Totals:         0       0       0       0       0       0       0       0
  6051 ;;Total ram usage:        0 bytes
  6052 ;; Hardware stack levels used: 1
  6053 ;; Hardware stack levels required when called: 4
  6054 ;; This function calls:
  6055 ;;		Nothing
  6056 ;; This function is called by:
  6057 ;;		_Clear_No_Call_Warning
  6058 ;; This function uses a non-reentrant model
  6059 ;;
  6060                           
  6061     05AC                     _TMR1_StartSinglePulseAcquisition:	
  6062                           ;psect for function _TMR1_StartSinglePulseAcquisition
  6063                           
  6064     05AC                     l2731:	
  6065                           ;incstack = 0
  6066                           ; Regs used in _TMR1_StartSinglePulseAcquisition: []
  6067                           
  6068                           
  6069                           ;mcc_generated_files/tmr1.c: 142:     T1GCONbits.T1GGO = 1;
  6070     05AC  0020               	movlb	0	; select bank0
  6071     05AD  1599               	bsf	25,3	;volatile
  6072     05AE                     l100:
  6073     05AE  0008               	return
  6074     05AF                     __end_of_TMR1_StartSinglePulseAcquisition:
  6075                           
  6076                           	psect	text41
  6077     0542                     __ptext41:	
  6078 ;; *************** function _TMR1_Reload *****************
  6079 ;; Defined at:
  6080 ;;		line 135 in file "mcc_generated_files/tmr1.c"
  6081 ;; Parameters:    Size  Location     Type
  6082 ;;		None
  6083 ;; Auto vars:     Size  Location     Type
  6084 ;;		None
  6085 ;; Return value:  Size  Location     Type
  6086 ;;                  1    wreg      void 
  6087 ;; Registers used:
  6088 ;;		wreg, status,2, status,0, pclath, cstack
  6089 ;; Tracked objects:
  6090 ;;		On entry : 0/0
  6091 ;;		On exit  : 0/0
  6092 ;;		Unchanged: 0/0
  6093 ;; Data sizes:     COMMON   BANK0   BANK1   BANK2   BANK3   BANK4   BANK5   BANK6
  6094 ;;      Params:         0       0       0       0       0       0       0       0
  6095 ;;      Locals:         0       0       0       0       0       0       0       0
  6096 ;;      Temps:          0       0       0       0       0       0       0       0
  6097 ;;      Totals:         0       0       0       0       0       0       0       0
  6098 ;;Total ram usage:        0 bytes
  6099 ;; Hardware stack levels used: 1
  6100 ;; Hardware stack levels required when called: 5
  6101 ;; This function calls:
  6102 ;;		_TMR1_WriteTimer
  6103 ;; This function is called by:
  6104 ;;		_Clear_No_Call_Warning
  6105 ;; This function uses a non-reentrant model
  6106 ;;
  6107                           
  6108     0542                     _TMR1_Reload:	
  6109                           ;psect for function _TMR1_Reload
  6110                           
  6111     0542                     l2729:	
  6112                           ;incstack = 0
  6113                           ; Regs used in _TMR1_Reload: [wreg+status,2+status,0+pclath+cstack]
  6114                           
  6115                           
  6116                           ;mcc_generated_files/tmr1.c: 137:     TMR1_WriteTimer(timer1ReloadVal);
  6117     0542  0020               	movlb	0	; select bank0
  6118     0543  0838               	movf	_timer1ReloadVal+1,w	;volatile
  6119     0544  00CD               	movwf	TMR1_WriteTimer@timerVal+1
  6120     0545  0837               	movf	_timer1ReloadVal,w	;volatile
  6121     0546  00CC               	movwf	TMR1_WriteTimer@timerVal
  6122     0547  3184  24C0  3185   	fcall	_TMR1_WriteTimer
  6123     054A                     l97:
  6124     054A  0008               	return
  6125     054B                     __end_of_TMR1_Reload:
  6126                           
  6127                           	psect	text42
  6128     04C0                     __ptext42:	
  6129 ;; *************** function _TMR1_WriteTimer *****************
  6130 ;; Defined at:
  6131 ;;		line 113 in file "mcc_generated_files/tmr1.c"
  6132 ;; Parameters:    Size  Location     Type
  6133 ;;  timerVal        2    0[BANK0 ] unsigned short 
  6134 ;; Auto vars:     Size  Location     Type
  6135 ;;		None
  6136 ;; Return value:  Size  Location     Type
  6137 ;;                  1    wreg      void 
  6138 ;; Registers used:
  6139 ;;		wreg, status,2
  6140 ;; Tracked objects:
  6141 ;;		On entry : 0/0
  6142 ;;		On exit  : 0/0
  6143 ;;		Unchanged: 0/0
  6144 ;; Data sizes:     COMMON   BANK0   BANK1   BANK2   BANK3   BANK4   BANK5   BANK6
  6145 ;;      Params:         0       2       0       0       0       0       0       0
  6146 ;;      Locals:         0       0       0       0       0       0       0       0
  6147 ;;      Temps:          0       0       0       0       0       0       0       0
  6148 ;;      Totals:         0       2       0       0       0       0       0       0
  6149 ;;Total ram usage:        2 bytes
  6150 ;; Hardware stack levels used: 1
  6151 ;; Hardware stack levels required when called: 4
  6152 ;; This function calls:
  6153 ;;		Nothing
  6154 ;; This function is called by:
  6155 ;;		_TMR1_Reload
  6156 ;;		_Clear_No_Call_Warning
  6157 ;; This function uses a non-reentrant model
  6158 ;;
  6159                           
  6160     04C0                     _TMR1_WriteTimer:	
  6161                           ;psect for function _TMR1_WriteTimer
  6162                           
  6163     04C0                     l2597:	
  6164                           ;incstack = 0
  6165                           ; Regs used in _TMR1_WriteTimer: [wreg+status,2]
  6166                           
  6167                           
  6168                           ;mcc_generated_files/tmr1.c: 113: void TMR1_WriteTimer(uint16_t timerVal);mcc_generated_
      +                          files/tmr1.c: 114: {;mcc_generated_files/tmr1.c: 115:     if (T1CONbits.nT1SYNC == 1)
  6169     04C0  0020               	movlb	0	; select bank0
  6170     04C1  1D18               	btfss	24,2	;volatile
  6171     04C2  2CC4               	goto	u1451
  6172     04C3  2CC5               	goto	u1450
  6173     04C4                     u1451:
  6174     04C4  2CCC               	goto	l2607
  6175     04C5                     u1450:
  6176     04C5                     l2599:
  6177                           
  6178                           ;mcc_generated_files/tmr1.c: 116:     {;mcc_generated_files/tmr1.c: 118:         T1CONbi
      +                          ts.TMR1ON = 0;
  6179     04C5  1018               	bcf	24,0	;volatile
  6180     04C6                     l2601:
  6181                           
  6182                           ;mcc_generated_files/tmr1.c: 121:         TMR1H = (uint8_t)(timerVal >> 8);
  6183     04C6  084D               	movf	TMR1_WriteTimer@timerVal+1,w
  6184     04C7  0097               	movwf	23	;volatile
  6185     04C8                     l2603:
  6186                           
  6187                           ;mcc_generated_files/tmr1.c: 122:         TMR1L = (uint8_t)timerVal;
  6188     04C8  084C               	movf	TMR1_WriteTimer@timerVal,w
  6189     04C9  0096               	movwf	22	;volatile
  6190     04CA                     l2605:
  6191                           
  6192                           ;mcc_generated_files/tmr1.c: 125:         T1CONbits.TMR1ON =1;
  6193     04CA  1418               	bsf	24,0	;volatile
  6194                           
  6195                           ;mcc_generated_files/tmr1.c: 126:     }
  6196     04CB  2CD0               	goto	l94
  6197     04CC                     l2607:
  6198                           
  6199                           ;mcc_generated_files/tmr1.c: 128:     {;mcc_generated_files/tmr1.c: 130:         TMR1H =
      +                           (uint8_t)(timerVal >> 8);
  6200     04CC  084D               	movf	TMR1_WriteTimer@timerVal+1,w
  6201     04CD  0097               	movwf	23	;volatile
  6202     04CE                     l2609:
  6203                           
  6204                           ;mcc_generated_files/tmr1.c: 131:         TMR1L = (uint8_t)timerVal;
  6205     04CE  084C               	movf	TMR1_WriteTimer@timerVal,w
  6206     04CF  0096               	movwf	22	;volatile
  6207     04D0                     l94:
  6208     04D0  0008               	return
  6209     04D1                     __end_of_TMR1_WriteTimer:
  6210                           
  6211                           	psect	text43
  6212     0565                     __ptext43:	
  6213 ;; *************** function _TMR1_ReadTimer *****************
  6214 ;; Defined at:
  6215 ;;		line 98 in file "mcc_generated_files/tmr1.c"
  6216 ;; Parameters:    Size  Location     Type
  6217 ;;		None
  6218 ;; Auto vars:     Size  Location     Type
  6219 ;;  readVal         2    0        unsigned short 
  6220 ;;  readValLow      1    1[BANK0 ] unsigned char 
  6221 ;;  readValHigh     1    0[BANK0 ] unsigned char 
  6222 ;; Return value:  Size  Location     Type
  6223 ;;                  2   88[None  ] unsigned short 
  6224 ;; Registers used:
  6225 ;;		wreg
  6226 ;; Tracked objects:
  6227 ;;		On entry : 0/0
  6228 ;;		On exit  : 0/0
  6229 ;;		Unchanged: 0/0
  6230 ;; Data sizes:     COMMON   BANK0   BANK1   BANK2   BANK3   BANK4   BANK5   BANK6
  6231 ;;      Params:         0       0       0       0       0       0       0       0
  6232 ;;      Locals:         0       2       0       0       0       0       0       0
  6233 ;;      Temps:          0       0       0       0       0       0       0       0
  6234 ;;      Totals:         0       2       0       0       0       0       0       0
  6235 ;;Total ram usage:        2 bytes
  6236 ;; Hardware stack levels used: 1
  6237 ;; Hardware stack levels required when called: 4
  6238 ;; This function calls:
  6239 ;;		Nothing
  6240 ;; This function is called by:
  6241 ;;		_Clear_No_Call_Warning
  6242 ;; This function uses a non-reentrant model
  6243 ;;
  6244                           
  6245     0565                     _TMR1_ReadTimer:	
  6246                           ;psect for function _TMR1_ReadTimer
  6247                           
  6248     0565                     l2725:	
  6249                           ;incstack = 0
  6250                           ; Regs used in _TMR1_ReadTimer: [wreg]
  6251                           
  6252                           
  6253                           ;mcc_generated_files/tmr1.c: 100:     uint16_t readVal;;mcc_generated_files/tmr1.c: 101:
      +                               uint8_t readValHigh;;mcc_generated_files/tmr1.c: 102:     uint8_t readValLow;;mcc_g
      +                          enerated_files/tmr1.c: 105:     readValLow = TMR1L;
  6254     0565  0020               	movlb	0	; select bank0
  6255     0566  0816               	movf	22,w	;volatile
  6256     0567  00CD               	movwf	TMR1_ReadTimer@readValLow
  6257                           
  6258                           ;mcc_generated_files/tmr1.c: 106:     readValHigh = TMR1H;
  6259     0568  0817               	movf	23,w	;volatile
  6260     0569  00CC               	movwf	TMR1_ReadTimer@readValHigh
  6261     056A                     l89:
  6262     056A  0008               	return
  6263     056B                     __end_of_TMR1_ReadTimer:
  6264                           
  6265                           	psect	text44
  6266     05AF                     __ptext44:	
  6267 ;; *************** function _TMR1_HasOverflowOccured *****************
  6268 ;; Defined at:
  6269 ;;		line 150 in file "mcc_generated_files/tmr1.c"
  6270 ;; Parameters:    Size  Location     Type
  6271 ;;		None
  6272 ;; Auto vars:     Size  Location     Type
  6273 ;;		None
  6274 ;; Return value:  Size  Location     Type
  6275 ;;                  1    wreg      _Bool 
  6276 ;; Registers used:
  6277 ;;		wreg
  6278 ;; Tracked objects:
  6279 ;;		On entry : 0/0
  6280 ;;		On exit  : 0/0
  6281 ;;		Unchanged: 0/0
  6282 ;; Data sizes:     COMMON   BANK0   BANK1   BANK2   BANK3   BANK4   BANK5   BANK6
  6283 ;;      Params:         0       0       0       0       0       0       0       0
  6284 ;;      Locals:         0       0       0       0       0       0       0       0
  6285 ;;      Temps:          0       0       0       0       0       0       0       0
  6286 ;;      Totals:         0       0       0       0       0       0       0       0
  6287 ;;Total ram usage:        0 bytes
  6288 ;; Hardware stack levels used: 1
  6289 ;; Hardware stack levels required when called: 4
  6290 ;; This function calls:
  6291 ;;		Nothing
  6292 ;; This function is called by:
  6293 ;;		_Clear_No_Call_Warning
  6294 ;; This function uses a non-reentrant model
  6295 ;;
  6296                           
  6297     05AF                     _TMR1_HasOverflowOccured:	
  6298                           ;psect for function _TMR1_HasOverflowOccured
  6299                           
  6300     05AF                     l2737:	
  6301                           ;incstack = 0
  6302                           ; Regs used in _TMR1_HasOverflowOccured: [wreg]
  6303                           
  6304                           
  6305                           ;mcc_generated_files/tmr1.c: 153:     return(PIR1bits.TMR1IF);;	Return value of _TMR1_Ha
      +                          sOverflowOccured is never used
  6306     05AF  0020               	movlb	0	; select bank0
  6307     05B0  0811               	movf	17,w	;volatile
  6308     05B1                     l106:
  6309     05B1  0008               	return
  6310     05B2                     __end_of_TMR1_HasOverflowOccured:
  6311                           
  6312                           	psect	text45
  6313     05B2                     __ptext45:	
  6314 ;; *************** function _TMR1_CheckGateValueStatus *****************
  6315 ;; Defined at:
  6316 ;;		line 145 in file "mcc_generated_files/tmr1.c"
  6317 ;; Parameters:    Size  Location     Type
  6318 ;;		None
  6319 ;; Auto vars:     Size  Location     Type
  6320 ;;		None
  6321 ;; Return value:  Size  Location     Type
  6322 ;;                  1    wreg      unsigned char 
  6323 ;; Registers used:
  6324 ;;		wreg
  6325 ;; Tracked objects:
  6326 ;;		On entry : 0/0
  6327 ;;		On exit  : 0/0
  6328 ;;		Unchanged: 0/0
  6329 ;; Data sizes:     COMMON   BANK0   BANK1   BANK2   BANK3   BANK4   BANK5   BANK6
  6330 ;;      Params:         0       0       0       0       0       0       0       0
  6331 ;;      Locals:         0       0       0       0       0       0       0       0
  6332 ;;      Temps:          0       0       0       0       0       0       0       0
  6333 ;;      Totals:         0       0       0       0       0       0       0       0
  6334 ;;Total ram usage:        0 bytes
  6335 ;; Hardware stack levels used: 1
  6336 ;; Hardware stack levels required when called: 4
  6337 ;; This function calls:
  6338 ;;		Nothing
  6339 ;; This function is called by:
  6340 ;;		_Clear_No_Call_Warning
  6341 ;; This function uses a non-reentrant model
  6342 ;;
  6343                           
  6344     05B2                     _TMR1_CheckGateValueStatus:	
  6345                           ;psect for function _TMR1_CheckGateValueStatus
  6346                           
  6347     05B2                     l2733:	
  6348                           ;incstack = 0
  6349                           ; Regs used in _TMR1_CheckGateValueStatus: [wreg]
  6350                           
  6351                           
  6352                           ;mcc_generated_files/tmr1.c: 147:     return (T1GCONbits.T1GVAL);;	Return value of _TMR1
      +                          _CheckGateValueStatus is never used
  6353     05B2  0020               	movlb	0	; select bank0
  6354     05B3  0819               	movf	25,w	;volatile
  6355     05B4                     l103:
  6356     05B4  0008               	return
  6357     05B5                     __end_of_TMR1_CheckGateValueStatus:
  6358                           
  6359                           	psect	text46
  6360     057A                     __ptext46:	
  6361 ;; *************** function _TMR0_WriteTimer *****************
  6362 ;; Defined at:
  6363 ;;		line 96 in file "mcc_generated_files/tmr0.c"
  6364 ;; Parameters:    Size  Location     Type
  6365 ;;  timerVal        1    wreg     unsigned char 
  6366 ;; Auto vars:     Size  Location     Type
  6367 ;;  timerVal        1    0[BANK0 ] unsigned char 
  6368 ;; Return value:  Size  Location     Type
  6369 ;;                  1    wreg      void 
  6370 ;; Registers used:
  6371 ;;		wreg
  6372 ;; Tracked objects:
  6373 ;;		On entry : 0/0
  6374 ;;		On exit  : 0/0
  6375 ;;		Unchanged: 0/0
  6376 ;; Data sizes:     COMMON   BANK0   BANK1   BANK2   BANK3   BANK4   BANK5   BANK6
  6377 ;;      Params:         0       0       0       0       0       0       0       0
  6378 ;;      Locals:         0       1       0       0       0       0       0       0
  6379 ;;      Temps:          0       0       0       0       0       0       0       0
  6380 ;;      Totals:         0       1       0       0       0       0       0       0
  6381 ;;Total ram usage:        1 bytes
  6382 ;; Hardware stack levels used: 1
  6383 ;; Hardware stack levels required when called: 4
  6384 ;; This function calls:
  6385 ;;		Nothing
  6386 ;; This function is called by:
  6387 ;;		_Clear_No_Call_Warning
  6388 ;; This function uses a non-reentrant model
  6389 ;;
  6390                           
  6391     057A                     _TMR0_WriteTimer:	
  6392                           ;psect for function _TMR0_WriteTimer
  6393                           
  6394                           
  6395                           ;incstack = 0
  6396                           ; Regs used in _TMR0_WriteTimer: [wreg]
  6397                           ;TMR0_WriteTimer@timerVal stored from wreg
  6398     057A  0020               	movlb	0	; select bank0
  6399     057B  00CC               	movwf	TMR0_WriteTimer@timerVal
  6400     057C                     l2745:
  6401                           
  6402                           ;mcc_generated_files/tmr0.c: 96: void TMR0_WriteTimer(uint8_t timerVal);mcc_generated_fi
      +                          les/tmr0.c: 97: {;mcc_generated_files/tmr0.c: 99:     TMR0 = timerVal;
  6403     057C  084C               	movf	TMR0_WriteTimer@timerVal,w
  6404     057D  0095               	movwf	21	;volatile
  6405     057E                     l165:
  6406     057E  0008               	return
  6407     057F                     __end_of_TMR0_WriteTimer:
  6408                           
  6409                           	psect	text47
  6410     0587                     __ptext47:	
  6411 ;; *************** function _TMR0_Reload *****************
  6412 ;; Defined at:
  6413 ;;		line 102 in file "mcc_generated_files/tmr0.c"
  6414 ;; Parameters:    Size  Location     Type
  6415 ;;		None
  6416 ;; Auto vars:     Size  Location     Type
  6417 ;;		None
  6418 ;; Return value:  Size  Location     Type
  6419 ;;                  1    wreg      void 
  6420 ;; Registers used:
  6421 ;;		wreg
  6422 ;; Tracked objects:
  6423 ;;		On entry : 0/0
  6424 ;;		On exit  : 0/0
  6425 ;;		Unchanged: 0/0
  6426 ;; Data sizes:     COMMON   BANK0   BANK1   BANK2   BANK3   BANK4   BANK5   BANK6
  6427 ;;      Params:         0       0       0       0       0       0       0       0
  6428 ;;      Locals:         0       0       0       0       0       0       0       0
  6429 ;;      Temps:          0       0       0       0       0       0       0       0
  6430 ;;      Totals:         0       0       0       0       0       0       0       0
  6431 ;;Total ram usage:        0 bytes
  6432 ;; Hardware stack levels used: 1
  6433 ;; Hardware stack levels required when called: 4
  6434 ;; This function calls:
  6435 ;;		Nothing
  6436 ;; This function is called by:
  6437 ;;		_Clear_No_Call_Warning
  6438 ;; This function uses a non-reentrant model
  6439 ;;
  6440                           
  6441     0587                     _TMR0_Reload:	
  6442                           ;psect for function _TMR0_Reload
  6443                           
  6444     0587                     l2747:	
  6445                           ;incstack = 0
  6446                           ; Regs used in _TMR0_Reload: [wreg]
  6447                           
  6448                           
  6449                           ;mcc_generated_files/tmr0.c: 105:     TMR0 = timer0ReloadVal;
  6450     0587  0875               	movf	_timer0ReloadVal,w	;volatile
  6451     0588  0020               	movlb	0	; select bank0
  6452     0589  0095               	movwf	21	;volatile
  6453     058A                     l168:
  6454     058A  0008               	return
  6455     058B                     __end_of_TMR0_Reload:
  6456                           
  6457                           	psect	text48
  6458     05B5                     __ptext48:	
  6459 ;; *************** function _TMR0_ReadTimer *****************
  6460 ;; Defined at:
  6461 ;;		line 87 in file "mcc_generated_files/tmr0.c"
  6462 ;; Parameters:    Size  Location     Type
  6463 ;;		None
  6464 ;; Auto vars:     Size  Location     Type
  6465 ;;  readVal         1    0        unsigned char 
  6466 ;; Return value:  Size  Location     Type
  6467 ;;                  1    wreg      unsigned char 
  6468 ;; Registers used:
  6469 ;;		wreg
  6470 ;; Tracked objects:
  6471 ;;		On entry : 0/0
  6472 ;;		On exit  : 0/0
  6473 ;;		Unchanged: 0/0
  6474 ;; Data sizes:     COMMON   BANK0   BANK1   BANK2   BANK3   BANK4   BANK5   BANK6
  6475 ;;      Params:         0       0       0       0       0       0       0       0
  6476 ;;      Locals:         0       0       0       0       0       0       0       0
  6477 ;;      Temps:          0       0       0       0       0       0       0       0
  6478 ;;      Totals:         0       0       0       0       0       0       0       0
  6479 ;;Total ram usage:        0 bytes
  6480 ;; Hardware stack levels used: 1
  6481 ;; Hardware stack levels required when called: 4
  6482 ;; This function calls:
  6483 ;;		Nothing
  6484 ;; This function is called by:
  6485 ;;		_Clear_No_Call_Warning
  6486 ;; This function uses a non-reentrant model
  6487 ;;
  6488                           
  6489     05B5                     _TMR0_ReadTimer:	
  6490                           ;psect for function _TMR0_ReadTimer
  6491                           
  6492     05B5                     l2741:	
  6493                           ;incstack = 0
  6494                           ; Regs used in _TMR0_ReadTimer: [wreg]
  6495                           
  6496     05B5  0020               	movlb	0	; select bank0
  6497     05B6  0815               	movf	21,w	;volatile
  6498     05B7                     l162:
  6499     05B7  0008               	return
  6500     05B8                     __end_of_TMR0_ReadTimer:
  6501                           
  6502                           	psect	text49
  6503     05B9                     __ptext49:	
  6504 ;; *************** function _PIN_MANAGER_IOC *****************
  6505 ;; Defined at:
  6506 ;;		line 99 in file "mcc_generated_files/pin_manager.c"
  6507 ;; Parameters:    Size  Location     Type
  6508 ;;		None
  6509 ;; Auto vars:     Size  Location     Type
  6510 ;;		None
  6511 ;; Return value:  Size  Location     Type
  6512 ;;                  1    wreg      void 
  6513 ;; Registers used:
  6514 ;;		None
  6515 ;; Tracked objects:
  6516 ;;		On entry : 0/0
  6517 ;;		On exit  : 0/0
  6518 ;;		Unchanged: 0/0
  6519 ;; Data sizes:     COMMON   BANK0   BANK1   BANK2   BANK3   BANK4   BANK5   BANK6
  6520 ;;      Params:         0       0       0       0       0       0       0       0
  6521 ;;      Locals:         0       0       0       0       0       0       0       0
  6522 ;;      Temps:          0       0       0       0       0       0       0       0
  6523 ;;      Totals:         0       0       0       0       0       0       0       0
  6524 ;;Total ram usage:        0 bytes
  6525 ;; Hardware stack levels used: 1
  6526 ;; Hardware stack levels required when called: 4
  6527 ;; This function calls:
  6528 ;;		Nothing
  6529 ;; This function is called by:
  6530 ;;		_Clear_No_Call_Warning
  6531 ;; This function uses a non-reentrant model
  6532 ;;
  6533                           
  6534     05B9                     _PIN_MANAGER_IOC:	
  6535                           ;psect for function _PIN_MANAGER_IOC
  6536                           
  6537     05B9                     l140:	
  6538                           ;incstack = 0
  6539                           ; Regs used in _PIN_MANAGER_IOC: []
  6540                           
  6541     05B9  0008               	return
  6542     05BA                     __end_of_PIN_MANAGER_IOC:
  6543                           
  6544                           	psect	text50
  6545     0430                     __ptext50:	
  6546 ;; *************** function _EPWM2_LoadDutyValue *****************
  6547 ;; Defined at:
  6548 ;;		line 90 in file "mcc_generated_files/epwm2.c"
  6549 ;; Parameters:    Size  Location     Type
  6550 ;;  dutyValue       2    0[BANK0 ] unsigned short 
  6551 ;; Auto vars:     Size  Location     Type
  6552 ;;		None
  6553 ;; Return value:  Size  Location     Type
  6554 ;;                  1    wreg      void 
  6555 ;; Registers used:
  6556 ;;		wreg, status,2, status,0
  6557 ;; Tracked objects:
  6558 ;;		On entry : 0/0
  6559 ;;		On exit  : 0/0
  6560 ;;		Unchanged: 0/0
  6561 ;; Data sizes:     COMMON   BANK0   BANK1   BANK2   BANK3   BANK4   BANK5   BANK6
  6562 ;;      Params:         0       2       0       0       0       0       0       0
  6563 ;;      Locals:         0       0       0       0       0       0       0       0
  6564 ;;      Temps:          0       2       0       0       0       0       0       0
  6565 ;;      Totals:         0       4       0       0       0       0       0       0
  6566 ;;Total ram usage:        4 bytes
  6567 ;; Hardware stack levels used: 1
  6568 ;; Hardware stack levels required when called: 4
  6569 ;; This function calls:
  6570 ;;		Nothing
  6571 ;; This function is called by:
  6572 ;;		_Clear_No_Call_Warning
  6573 ;; This function uses a non-reentrant model
  6574 ;;
  6575                           
  6576     0430                     _EPWM2_LoadDutyValue:	
  6577                           ;psect for function _EPWM2_LoadDutyValue
  6578                           
  6579     0430                     l2769:	
  6580                           ;incstack = 0
  6581                           ; Regs used in _EPWM2_LoadDutyValue: [wreg+status,2+status,0]
  6582                           
  6583                           
  6584                           ;mcc_generated_files/epwm2.c: 90: void EPWM2_LoadDutyValue(uint16_t dutyValue);mcc_gener
      +                          ated_files/epwm2.c: 91: {;mcc_generated_files/epwm2.c: 93:     CCPR2L = ((dutyValue & 0x
      +                          03FC)>>2);
  6585     0430  0020               	movlb	0	; select bank0
  6586     0431  084D               	movf	EPWM2_LoadDutyValue@dutyValue+1,w
  6587     0432  00CF               	movwf	??_EPWM2_LoadDutyValue+1
  6588     0433  084C               	movf	EPWM2_LoadDutyValue@dutyValue,w
  6589     0434  00CE               	movwf	??_EPWM2_LoadDutyValue
  6590     0435  36CF               	lsrf	??_EPWM2_LoadDutyValue+1,f
  6591     0436  0CCE               	rrf	??_EPWM2_LoadDutyValue,f
  6592     0437  36CF               	lsrf	??_EPWM2_LoadDutyValue+1,f
  6593     0438  0CCE               	rrf	??_EPWM2_LoadDutyValue,f
  6594     0439  084E               	movf	??_EPWM2_LoadDutyValue,w
  6595     043A  0025               	movlb	5	; select bank5
  6596     043B  0098               	movwf	24	;volatile
  6597                           
  6598                           ;mcc_generated_files/epwm2.c: 96:     CCP2CON = (uint8_t)((CCP2CON & 0xCF) | ((dutyValue
      +                           & 0x0003)<<4));
  6599     043C  0020               	movlb	0	; select bank0
  6600     043D  084C               	movf	EPWM2_LoadDutyValue@dutyValue,w
  6601     043E  3903               	andlw	3
  6602     043F  00CE               	movwf	??_EPWM2_LoadDutyValue
  6603     0440  3004               	movlw	4
  6604     0441                     u1515:
  6605     0441  35CE               	lslf	??_EPWM2_LoadDutyValue,f
  6606     0442  0B89               	decfsz	9,f
  6607     0443  2C41               	goto	u1515
  6608     0444  0025               	movlb	5	; select bank5
  6609     0445  081A               	movf	26,w	;volatile
  6610     0446  39CF               	andlw	207
  6611     0447  0020               	movlb	0	; select bank0
  6612     0448  044E               	iorwf	??_EPWM2_LoadDutyValue,w
  6613     0449  0025               	movlb	5	; select bank5
  6614     044A  009A               	movwf	26	;volatile
  6615     044B                     l274:
  6616     044B  0008               	return
  6617     044C                     __end_of_EPWM2_LoadDutyValue:
  6618                           
  6619                           	psect	text51
  6620     044C                     __ptext51:	
  6621 ;; *************** function _EPWM1_LoadDutyValue *****************
  6622 ;; Defined at:
  6623 ;;		line 90 in file "mcc_generated_files/epwm1.c"
  6624 ;; Parameters:    Size  Location     Type
  6625 ;;  dutyValue       2    0[BANK0 ] unsigned short 
  6626 ;; Auto vars:     Size  Location     Type
  6627 ;;		None
  6628 ;; Return value:  Size  Location     Type
  6629 ;;                  1    wreg      void 
  6630 ;; Registers used:
  6631 ;;		wreg, status,2, status,0
  6632 ;; Tracked objects:
  6633 ;;		On entry : 0/0
  6634 ;;		On exit  : 0/0
  6635 ;;		Unchanged: 0/0
  6636 ;; Data sizes:     COMMON   BANK0   BANK1   BANK2   BANK3   BANK4   BANK5   BANK6
  6637 ;;      Params:         0       2       0       0       0       0       0       0
  6638 ;;      Locals:         0       0       0       0       0       0       0       0
  6639 ;;      Temps:          0       2       0       0       0       0       0       0
  6640 ;;      Totals:         0       4       0       0       0       0       0       0
  6641 ;;Total ram usage:        4 bytes
  6642 ;; Hardware stack levels used: 1
  6643 ;; Hardware stack levels required when called: 4
  6644 ;; This function calls:
  6645 ;;		Nothing
  6646 ;; This function is called by:
  6647 ;;		_Clear_No_Call_Warning
  6648 ;; This function uses a non-reentrant model
  6649 ;;
  6650                           
  6651     044C                     _EPWM1_LoadDutyValue:	
  6652                           ;psect for function _EPWM1_LoadDutyValue
  6653                           
  6654     044C                     l2767:	
  6655                           ;incstack = 0
  6656                           ; Regs used in _EPWM1_LoadDutyValue: [wreg+status,2+status,0]
  6657                           
  6658                           
  6659                           ;mcc_generated_files/epwm1.c: 90: void EPWM1_LoadDutyValue(uint16_t dutyValue);mcc_gener
      +                          ated_files/epwm1.c: 91: {;mcc_generated_files/epwm1.c: 93:     CCPR1L = ((dutyValue & 0x
      +                          03FC)>>2);
  6660     044C  0020               	movlb	0	; select bank0
  6661     044D  084D               	movf	EPWM1_LoadDutyValue@dutyValue+1,w
  6662     044E  00CF               	movwf	??_EPWM1_LoadDutyValue+1
  6663     044F  084C               	movf	EPWM1_LoadDutyValue@dutyValue,w
  6664     0450  00CE               	movwf	??_EPWM1_LoadDutyValue
  6665     0451  36CF               	lsrf	??_EPWM1_LoadDutyValue+1,f
  6666     0452  0CCE               	rrf	??_EPWM1_LoadDutyValue,f
  6667     0453  36CF               	lsrf	??_EPWM1_LoadDutyValue+1,f
  6668     0454  0CCE               	rrf	??_EPWM1_LoadDutyValue,f
  6669     0455  084E               	movf	??_EPWM1_LoadDutyValue,w
  6670     0456  0025               	movlb	5	; select bank5
  6671     0457  0091               	movwf	17	;volatile
  6672                           
  6673                           ;mcc_generated_files/epwm1.c: 96:     CCP1CON = (uint8_t)((CCP1CON & 0xCF) | ((dutyValue
      +                           & 0x0003)<<4));
  6674     0458  0020               	movlb	0	; select bank0
  6675     0459  084C               	movf	EPWM1_LoadDutyValue@dutyValue,w
  6676     045A  3903               	andlw	3
  6677     045B  00CE               	movwf	??_EPWM1_LoadDutyValue
  6678     045C  3004               	movlw	4
  6679     045D                     u1505:
  6680     045D  35CE               	lslf	??_EPWM1_LoadDutyValue,f
  6681     045E  0B89               	decfsz	9,f
  6682     045F  2C5D               	goto	u1505
  6683     0460  0025               	movlb	5	; select bank5
  6684     0461  0813               	movf	19,w	;volatile
  6685     0462  39CF               	andlw	207
  6686     0463  0020               	movlb	0	; select bank0
  6687     0464  044E               	iorwf	??_EPWM1_LoadDutyValue,w
  6688     0465  0025               	movlb	5	; select bank5
  6689     0466  0093               	movwf	19	;volatile
  6690     0467                     l254:
  6691     0467  0008               	return
  6692     0468                     __end_of_EPWM1_LoadDutyValue:
  6693                           
  6694                           	psect	intentry
  6695     0004                     __pintentry:	
  6696 ;; *************** function _INTERRUPT_InterruptManager *****************
  6697 ;; Defined at:
  6698 ;;		line 52 in file "mcc_generated_files/interrupt_manager.c"
  6699 ;; Parameters:    Size  Location     Type
  6700 ;;		None
  6701 ;; Auto vars:     Size  Location     Type
  6702 ;;		None
  6703 ;; Return value:  Size  Location     Type
  6704 ;;                  1    wreg      void 
  6705 ;; Registers used:
  6706 ;;		wreg, status,2, status,0, pclath, cstack
  6707 ;; Tracked objects:
  6708 ;;		On entry : 0/0
  6709 ;;		On exit  : 0/0
  6710 ;;		Unchanged: 0/0
  6711 ;; Data sizes:     COMMON   BANK0   BANK1   BANK2   BANK3   BANK4   BANK5   BANK6
  6712 ;;      Params:         0       0       0       0       0       0       0       0
  6713 ;;      Locals:         0       0       0       0       0       0       0       0
  6714 ;;      Temps:          0       0       0       0       0       0       0       0
  6715 ;;      Totals:         0       0       0       0       0       0       0       0
  6716 ;;Total ram usage:        0 bytes
  6717 ;; Hardware stack levels used: 1
  6718 ;; Hardware stack levels required when called: 3
  6719 ;; This function calls:
  6720 ;;		_ECCP3_CaptureISR
  6721 ;;		_TMR0_ISR
  6722 ;; This function is called by:
  6723 ;;		Interrupt level 1
  6724 ;; This function uses a non-reentrant model
  6725 ;;
  6726                           
  6727     0004                     _INTERRUPT_InterruptManager:
  6728                           
  6729                           ;incstack = 0
  6730     0004  147E               	bsf	int$flags,0	;set compiler interrupt flag (level 1)
  6731                           
  6732                           ; Regs used in _INTERRUPT_InterruptManager: [wreg+status,2+status,0+pclath+cstack]
  6733     0005  3180               	pagesel	$
  6734     0006                     i1l2545:
  6735                           
  6736                           ;mcc_generated_files/interrupt_manager.c: 55:     if(INTCONbits.TMR0IE == 1 && INTCONbit
      +                          s.TMR0IF == 1)
  6737     0006  1E8B               	btfss	11,5	;volatile
  6738     0007  2809               	goto	u137_21
  6739     0008  280A               	goto	u137_20
  6740     0009                     u137_21:
  6741     0009  2812               	goto	i1l55
  6742     000A                     u137_20:
  6743     000A                     i1l2547:
  6744     000A  1D0B               	btfss	11,2	;volatile
  6745     000B  280D               	goto	u138_21
  6746     000C  280E               	goto	u138_20
  6747     000D                     u138_21:
  6748     000D  2812               	goto	i1l55
  6749     000E                     u138_20:
  6750     000E                     i1l2549:
  6751                           
  6752                           ;mcc_generated_files/interrupt_manager.c: 56:     {;mcc_generated_files/interrupt_manage
      +                          r.c: 57:         TMR0_ISR();
  6753     000E  3184  2481  3180   	fcall	_TMR0_ISR
  6754                           
  6755                           ;mcc_generated_files/interrupt_manager.c: 58:     }
  6756     0011  2824               	goto	i1l61
  6757     0012                     i1l55:	
  6758                           ;mcc_generated_files/interrupt_manager.c: 59:     else if(INTCONbits.PEIE == 1)
  6759                           
  6760     0012  1F0B               	btfss	11,6	;volatile
  6761     0013  2815               	goto	u139_21
  6762     0014  2816               	goto	u139_20
  6763     0015                     u139_21:
  6764     0015  2824               	goto	i1l61
  6765     0016                     u139_20:
  6766     0016                     i1l2551:
  6767                           
  6768                           ;mcc_generated_files/interrupt_manager.c: 60:     {;mcc_generated_files/interrupt_manage
      +                          r.c: 61:         if(PIE3bits.CCP3IE == 1 && PIR3bits.CCP3IF == 1)
  6769     0016  0021               	movlb	1	; select bank1
  6770     0017  1E13               	btfss	19,4	;volatile
  6771     0018  281A               	goto	u140_21
  6772     0019  281B               	goto	u140_20
  6773     001A                     u140_21:
  6774     001A  2824               	goto	i1l60
  6775     001B                     u140_20:
  6776     001B                     i1l2553:
  6777     001B  0020               	movlb	0	; select bank0
  6778     001C  1E13               	btfss	19,4	;volatile
  6779     001D  281F               	goto	u141_21
  6780     001E  2820               	goto	u141_20
  6781     001F                     u141_21:
  6782     001F  2824               	goto	i1l60
  6783     0020                     u141_20:
  6784     0020                     i1l2555:
  6785                           
  6786                           ;mcc_generated_files/interrupt_manager.c: 62:         {;mcc_generated_files/interrupt_ma
      +                          nager.c: 63:             ECCP3_CaptureISR();
  6787     0020  3184  24D1  3180   	fcall	_ECCP3_CaptureISR
  6788                           
  6789                           ;mcc_generated_files/interrupt_manager.c: 64:         }
  6790     0023  2824               	goto	i1l61
  6791     0024                     i1l60:	
  6792                           ;mcc_generated_files/interrupt_manager.c: 71:     {;mcc_generated_files/interrupt_manage
      +                          r.c: 73:     }
  6793                           
  6794     0024                     i1l61:
  6795     0024  107E               	bcf	int$flags,0	;clear compiler interrupt flag (level 1)
  6796     0025  0009               	retfie
  6797     0026                     __end_of_INTERRUPT_InterruptManager:
  6798                           
  6799                           	psect	text53
  6800     0481                     __ptext53:	
  6801 ;; *************** function _TMR0_ISR *****************
  6802 ;; Defined at:
  6803 ;;		line 108 in file "mcc_generated_files/tmr0.c"
  6804 ;; Parameters:    Size  Location     Type
  6805 ;;		None
  6806 ;; Auto vars:     Size  Location     Type
  6807 ;;		None
  6808 ;; Return value:  Size  Location     Type
  6809 ;;                  1    wreg      void 
  6810 ;; Registers used:
  6811 ;;		wreg, status,2, status,0, pclath, cstack
  6812 ;; Tracked objects:
  6813 ;;		On entry : 0/0
  6814 ;;		On exit  : 0/0
  6815 ;;		Unchanged: 0/0
  6816 ;; Data sizes:     COMMON   BANK0   BANK1   BANK2   BANK3   BANK4   BANK5   BANK6
  6817 ;;      Params:         0       0       0       0       0       0       0       0
  6818 ;;      Locals:         0       0       0       0       0       0       0       0
  6819 ;;      Temps:          0       0       0       0       0       0       0       0
  6820 ;;      Totals:         0       0       0       0       0       0       0       0
  6821 ;;Total ram usage:        0 bytes
  6822 ;; Hardware stack levels used: 1
  6823 ;; Hardware stack levels required when called: 2
  6824 ;; This function calls:
  6825 ;;		_TMR0_CallBack
  6826 ;; This function is called by:
  6827 ;;		_INTERRUPT_InterruptManager
  6828 ;; This function uses a non-reentrant model
  6829 ;;
  6830                           
  6831     0481                     _TMR0_ISR:	
  6832                           ;psect for function _TMR0_ISR
  6833                           
  6834     0481                     i1l2227:	
  6835                           ;incstack = 0
  6836                           ; Regs used in _TMR0_ISR: [wreg+status,2+status,0+pclath+cstack]
  6837                           
  6838                           
  6839                           ;mcc_generated_files/tmr0.c: 110:     static volatile uint16_t CountCallBack = 0;;mcc_ge
      +                          nerated_files/tmr0.c: 113:     INTCONbits.TMR0IF = 0;
  6840     0481  110B               	bcf	11,2	;volatile
  6841     0482                     i1l2229:
  6842                           
  6843                           ;mcc_generated_files/tmr0.c: 115:     TMR0 = timer0ReloadVal;
  6844     0482  0875               	movf	_timer0ReloadVal,w	;volatile
  6845     0483  0020               	movlb	0	; select bank0
  6846     0484  0095               	movwf	21	;volatile
  6847                           
  6848                           ;mcc_generated_files/tmr0.c: 118:     if (++CountCallBack >= 10)
  6849     0485  3001               	movlw	1
  6850     0486  07B3               	addwf	TMR0_ISR@CountCallBack,f	;volatile
  6851     0487  3000               	movlw	0
  6852     0488  3DB4               	addwfc	TMR0_ISR@CountCallBack+1,f	;volatile
  6853     0489  3000               	movlw	0
  6854     048A  0234               	subwf	TMR0_ISR@CountCallBack+1,w	;volatile
  6855     048B  300A               	movlw	10
  6856     048C  1903               	skipnz
  6857     048D  0233               	subwf	TMR0_ISR@CountCallBack,w	;volatile
  6858     048E  1C03               	skipc
  6859     048F  2C91               	goto	u102_21
  6860     0490  2C92               	goto	u102_20
  6861     0491                     u102_21:
  6862     0491  2C98               	goto	i1l174
  6863     0492                     u102_20:
  6864     0492                     i1l2231:
  6865                           
  6866                           ;mcc_generated_files/tmr0.c: 119:     {;mcc_generated_files/tmr0.c: 121:         TMR0_Ca
      +                          llBack();
  6867     0492  3185  2507  3184   	fcall	_TMR0_CallBack
  6868     0495                     i1l2233:
  6869                           
  6870                           ;mcc_generated_files/tmr0.c: 124:         CountCallBack = 0;
  6871     0495  0020               	movlb	0	; select bank0
  6872     0496  01B3               	clrf	TMR0_ISR@CountCallBack	;volatile
  6873     0497  01B4               	clrf	TMR0_ISR@CountCallBack+1	;volatile
  6874     0498                     i1l174:
  6875     0498  0008               	return
  6876     0499                     __end_of_TMR0_ISR:
  6877                           
  6878                           	psect	text54
  6879     0507                     __ptext54:	
  6880 ;; *************** function _TMR0_CallBack *****************
  6881 ;; Defined at:
  6882 ;;		line 130 in file "mcc_generated_files/tmr0.c"
  6883 ;; Parameters:    Size  Location     Type
  6884 ;;		None
  6885 ;; Auto vars:     Size  Location     Type
  6886 ;;		None
  6887 ;; Return value:  Size  Location     Type
  6888 ;;                  1    wreg      void 
  6889 ;; Registers used:
  6890 ;;		wreg, status,2, status,0, pclath, cstack
  6891 ;; Tracked objects:
  6892 ;;		On entry : 0/0
  6893 ;;		On exit  : 0/0
  6894 ;;		Unchanged: 0/0
  6895 ;; Data sizes:     COMMON   BANK0   BANK1   BANK2   BANK3   BANK4   BANK5   BANK6
  6896 ;;      Params:         0       0       0       0       0       0       0       0
  6897 ;;      Locals:         0       0       0       0       0       0       0       0
  6898 ;;      Temps:          0       0       0       0       0       0       0       0
  6899 ;;      Totals:         0       0       0       0       0       0       0       0
  6900 ;;Total ram usage:        0 bytes
  6901 ;; Hardware stack levels used: 1
  6902 ;; Hardware stack levels required when called: 1
  6903 ;; This function calls:
  6904 ;;		NULL
  6905 ;;		_TMR0_10MS_EvenHandler
  6906 ;;		_TMR0_DefaultInterruptHandler
  6907 ;; This function is called by:
  6908 ;;		_TMR0_ISR
  6909 ;; This function uses a non-reentrant model
  6910 ;;
  6911                           
  6912     0507                     _TMR0_CallBack:	
  6913                           ;psect for function _TMR0_CallBack
  6914                           
  6915     0507                     i1l2071:	
  6916                           ;incstack = 0
  6917                           ; Regs used in _TMR0_CallBack: [wreg+status,2+status,0+pclath+cstack]
  6918                           
  6919                           
  6920                           ;mcc_generated_files/tmr0.c: 134:     if(TMR0_InterruptHandler)
  6921     0507  0020               	movlb	0	; select bank0
  6922     0508  0835               	movf	_TMR0_InterruptHandler,w
  6923     0509  0436               	iorwf	_TMR0_InterruptHandler+1,w
  6924     050A  1903               	btfsc	3,2
  6925     050B  2D0D               	goto	u78_21
  6926     050C  2D0E               	goto	u78_20
  6927     050D                     u78_21:
  6928     050D  2D13               	goto	i1l178
  6929     050E                     u78_20:
  6930     050E                     i1l2073:
  6931                           
  6932                           ;mcc_generated_files/tmr0.c: 135:     {;mcc_generated_files/tmr0.c: 136:         TMR0_In
      +                          terruptHandler();
  6933     050E  0836               	movf	_TMR0_InterruptHandler+1,w
  6934     050F  008A               	movwf	10
  6935     0510  0835               	movf	_TMR0_InterruptHandler,w
  6936     0511  000A               	callw
  6937     0512  3185               	pagesel	$
  6938     0513                     i1l178:
  6939     0513  0008               	return
  6940     0514                     __end_of_TMR0_CallBack:
  6941                           
  6942                           	psect	text55
  6943     04AD                     __ptext55:	
  6944 ;; *************** function _TMR0_10MS_EvenHandler *****************
  6945 ;; Defined at:
  6946 ;;		line 707 in file "main.c"
  6947 ;; Parameters:    Size  Location     Type
  6948 ;;		None
  6949 ;; Auto vars:     Size  Location     Type
  6950 ;;		None
  6951 ;; Return value:  Size  Location     Type
  6952 ;;                  1    wreg      void 
  6953 ;; Registers used:
  6954 ;;		wreg, status,2, status,0
  6955 ;; Tracked objects:
  6956 ;;		On entry : 0/0
  6957 ;;		On exit  : 0/0
  6958 ;;		Unchanged: 0/0
  6959 ;; Data sizes:     COMMON   BANK0   BANK1   BANK2   BANK3   BANK4   BANK5   BANK6
  6960 ;;      Params:         0       0       0       0       0       0       0       0
  6961 ;;      Locals:         0       0       0       0       0       0       0       0
  6962 ;;      Temps:          1       0       0       0       0       0       0       0
  6963 ;;      Totals:         1       0       0       0       0       0       0       0
  6964 ;;Total ram usage:        1 bytes
  6965 ;; Hardware stack levels used: 1
  6966 ;; This function calls:
  6967 ;;		Nothing
  6968 ;; This function is called by:
  6969 ;;		_main
  6970 ;;		_TMR0_CallBack
  6971 ;; This function uses a non-reentrant model
  6972 ;;
  6973                           
  6974     04AD                     _TMR0_10MS_EvenHandler:	
  6975                           ;psect for function _TMR0_10MS_EvenHandler
  6976                           
  6977     04AD                     i1l1939:	
  6978                           ;incstack = 0
  6979                           ; Regs used in _TMR0_10MS_EvenHandler: [wreg+status,2+status,0]
  6980                           
  6981                           
  6982                           ;main.c: 708:   T10MS_CNT++;
  6983     04AD  3001               	movlw	1
  6984     04AE  00F6               	movwf	??_TMR0_10MS_EvenHandler
  6985     04AF  0876               	movf	??_TMR0_10MS_EvenHandler,w
  6986     04B0  0020               	movlb	0	; select bank0
  6987     04B1  07C7               	addwf	_T10MS_CNT,f	;volatile
  6988                           
  6989                           ;main.c: 709:   T10MS_CNT1++;
  6990     04B2  3001               	movlw	1
  6991     04B3  00F6               	movwf	??_TMR0_10MS_EvenHandler
  6992     04B4  0876               	movf	??_TMR0_10MS_EvenHandler,w
  6993     04B5  07C6               	addwf	_T10MS_CNT1,f	;volatile
  6994     04B6                     i1l1941:
  6995                           
  6996                           ;main.c: 710:   if (T10MS_CNT >= 200) {
  6997     04B6  30C8               	movlw	200
  6998     04B7  0247               	subwf	_T10MS_CNT,w	;volatile
  6999     04B8  1C03               	skipc
  7000     04B9  2CBB               	goto	u76_21
  7001     04BA  2CBC               	goto	u76_20
  7002     04BB                     u76_21:
  7003     04BB  2CBF               	goto	i1l589
  7004     04BC                     u76_20:
  7005     04BC                     i1l1943:
  7006                           
  7007                           ;main.c: 711:     fReceive_failed = 1;
  7008     04BC  01C3               	clrf	_fReceive_failed
  7009     04BD  0AC3               	incf	_fReceive_failed,f
  7010     04BE                     i1l1945:
  7011                           
  7012                           ;main.c: 712:     T10MS_CNT = 0;
  7013     04BE  01C7               	clrf	_T10MS_CNT	;volatile
  7014     04BF                     i1l589:
  7015     04BF  0008               	return
  7016     04C0                     __end_of_TMR0_10MS_EvenHandler:
  7017                           
  7018                           	psect	text56
  7019     05BA                     __ptext56:	
  7020 ;; *************** function _TMR0_DefaultInterruptHandler *****************
  7021 ;; Defined at:
  7022 ;;		line 144 in file "mcc_generated_files/tmr0.c"
  7023 ;; Parameters:    Size  Location     Type
  7024 ;;		None
  7025 ;; Auto vars:     Size  Location     Type
  7026 ;;		None
  7027 ;; Return value:  Size  Location     Type
  7028 ;;                  1    wreg      void 
  7029 ;; Registers used:
  7030 ;;		None
  7031 ;; Tracked objects:
  7032 ;;		On entry : 0/0
  7033 ;;		On exit  : 0/0
  7034 ;;		Unchanged: 0/0
  7035 ;; Data sizes:     COMMON   BANK0   BANK1   BANK2   BANK3   BANK4   BANK5   BANK6
  7036 ;;      Params:         0       0       0       0       0       0       0       0
  7037 ;;      Locals:         0       0       0       0       0       0       0       0
  7038 ;;      Temps:          0       0       0       0       0       0       0       0
  7039 ;;      Totals:         0       0       0       0       0       0       0       0
  7040 ;;Total ram usage:        0 bytes
  7041 ;; Hardware stack levels used: 1
  7042 ;; This function calls:
  7043 ;;		Nothing
  7044 ;; This function is called by:
  7045 ;;		_TMR0_Initialize
  7046 ;;		_TMR0_CallBack
  7047 ;; This function uses a non-reentrant model
  7048 ;;
  7049                           
  7050     05BA                     _TMR0_DefaultInterruptHandler:	
  7051                           ;psect for function _TMR0_DefaultInterruptHandler
  7052                           
  7053     05BA                     i1l184:	
  7054                           ;incstack = 0
  7055                           ; Regs used in _TMR0_DefaultInterruptHandler: []
  7056                           
  7057     05BA  0008               	return
  7058     05BB                     __end_of_TMR0_DefaultInterruptHandler:
  7059                           
  7060                           	psect	text57
  7061     04D1                     __ptext57:	
  7062 ;; *************** function _ECCP3_CaptureISR *****************
  7063 ;; Defined at:
  7064 ;;		line 80 in file "mcc_generated_files/eccp3.c"
  7065 ;; Parameters:    Size  Location     Type
  7066 ;;		None
  7067 ;; Auto vars:     Size  Location     Type
  7068 ;;  module          2    4[COMMON] struct CCPR3Reg_tag
  7069 ;; Return value:  Size  Location     Type
  7070 ;;                  1    wreg      void 
  7071 ;; Registers used:
  7072 ;;		wreg, status,2, status,0, pclath, cstack
  7073 ;; Tracked objects:
  7074 ;;		On entry : 0/0
  7075 ;;		On exit  : 0/0
  7076 ;;		Unchanged: 0/0
  7077 ;; Data sizes:     COMMON   BANK0   BANK1   BANK2   BANK3   BANK4   BANK5   BANK6
  7078 ;;      Params:         0       0       0       0       0       0       0       0
  7079 ;;      Locals:         2       0       0       0       0       0       0       0
  7080 ;;      Temps:          0       0       0       0       0       0       0       0
  7081 ;;      Totals:         2       0       0       0       0       0       0       0
  7082 ;;Total ram usage:        2 bytes
  7083 ;; Hardware stack levels used: 1
  7084 ;; Hardware stack levels required when called: 1
  7085 ;; This function calls:
  7086 ;;		_ECCP3_CallBack
  7087 ;; This function is called by:
  7088 ;;		_INTERRUPT_InterruptManager
  7089 ;; This function uses a non-reentrant model
  7090 ;;
  7091                           
  7092     04D1                     _ECCP3_CaptureISR:	
  7093                           ;psect for function _ECCP3_CaptureISR
  7094                           
  7095     04D1                     i1l2235:	
  7096                           ;incstack = 0
  7097                           ; Regs used in _ECCP3_CaptureISR: [wreg+status,2+status,0+pclath+cstack]
  7098                           
  7099                           
  7100                           ;mcc_generated_files/eccp3.c: 82:     CCP3_PERIOD_REG_T module;;mcc_generated_files/eccp
      +                          3.c: 85:     PIR3bits.CCP3IF = 0;
  7101     04D1  0020               	movlb	0	; select bank0
  7102     04D2  1213               	bcf	19,4	;volatile
  7103     04D3                     i1l2237:
  7104                           
  7105                           ;mcc_generated_files/eccp3.c: 88:     module.ccpr3l = CCPR3L;
  7106     04D3  0026               	movlb	6	; select bank6
  7107     04D4  0811               	movf	17,w	;volatile
  7108     04D5  00FA               	movwf	ECCP3_CaptureISR@module
  7109                           
  7110                           ;mcc_generated_files/eccp3.c: 89:     module.ccpr3h = CCPR3H;
  7111     04D6  0812               	movf	18,w	;volatile
  7112     04D7  00FB               	movwf	ECCP3_CaptureISR@module+1
  7113     04D8                     i1l2239:
  7114                           
  7115                           ;mcc_generated_files/eccp3.c: 92:     ECCP3_CallBack(module.ccpr3_16Bit);
  7116     04D8  087B               	movf	ECCP3_CaptureISR@module+1,w
  7117     04D9  00F7               	movwf	ECCP3_CallBack@capturedValue+1
  7118     04DA  087A               	movf	ECCP3_CaptureISR@module,w
  7119     04DB  00F6               	movwf	ECCP3_CallBack@capturedValue
  7120     04DC  3181  2142  3184   	fcall	_ECCP3_CallBack
  7121     04DF                     i1l234:
  7122     04DF  0008               	return
  7123     04E0                     __end_of_ECCP3_CaptureISR:
  7124                           
  7125                           	psect	text58
  7126     0142                     __ptext58:	
  7127 ;; *************** function _ECCP3_CallBack *****************
  7128 ;; Defined at:
  7129 ;;		line 629 in file "main.c"
  7130 ;; Parameters:    Size  Location     Type
  7131 ;;  capturedValu    2    0[COMMON] unsigned short 
  7132 ;; Auto vars:     Size  Location     Type
  7133 ;;		None
  7134 ;; Return value:  Size  Location     Type
  7135 ;;                  1    wreg      void 
  7136 ;; Registers used:
  7137 ;;		wreg, status,2, status,0
  7138 ;; Tracked objects:
  7139 ;;		On entry : 0/0
  7140 ;;		On exit  : 0/0
  7141 ;;		Unchanged: 0/0
  7142 ;; Data sizes:     COMMON   BANK0   BANK1   BANK2   BANK3   BANK4   BANK5   BANK6
  7143 ;;      Params:         2       0       0       0       0       0       0       0
  7144 ;;      Locals:         0       0       0       0       0       0       0       0
  7145 ;;      Temps:          2       0       0       0       0       0       0       0
  7146 ;;      Totals:         4       0       0       0       0       0       0       0
  7147 ;;Total ram usage:        4 bytes
  7148 ;; Hardware stack levels used: 1
  7149 ;; This function calls:
  7150 ;;		Nothing
  7151 ;; This function is called by:
  7152 ;;		_ECCP3_CaptureISR
  7153 ;; This function uses a non-reentrant model
  7154 ;;
  7155                           
  7156     0142                     _ECCP3_CallBack:	
  7157                           ;psect for function _ECCP3_CallBack
  7158                           
  7159     0142                     i1l2093:	
  7160                           ;incstack = 0
  7161                           ; Regs used in _ECCP3_CallBack: [wreg+status,2+status,0]
  7162                           
  7163                           
  7164                           ;main.c: 630:   static uint16_t pluse_width_LO = 0;;main.c: 631:   static uint16_t pluse
      +                          _width_HI = 0;;main.c: 632:   static uint8_t HI_us = 0;;main.c: 633:   static uint8_t LO
      +                          _us = 0;;main.c: 634:   static uint8_t diff_us = 0;;main.c: 635:   static uint16_t falli
      +                          ng_edge_time = 0;;main.c: 636:   static uint16_t rising_edge_time = 0;;main.c: 637:   st
      +                          atic _Bool rise_edge_flag = 0;;main.c: 638:   static _Bool fHead = 0;;main.c: 639:   sta
      +                          tic uint8_t data_cnt = 0;;main.c: 642:   if ((CCP3CON == 0x04)) {
  7165     0142  3004               	movlw	4
  7166     0143  0026               	movlb	6	; select bank6
  7167     0144  0613               	xorwf	19,w	;volatile
  7168     0145  1D03               	btfss	3,2
  7169     0146  2948               	goto	u80_21
  7170     0147  2949               	goto	u80_20
  7171     0148                     u80_21:
  7172     0148  29CC               	goto	i1l2135
  7173     0149                     u80_20:
  7174     0149                     i1l2095:
  7175                           
  7176                           ;main.c: 643:     falling_edge_time = capturedValue;
  7177     0149  0877               	movf	ECCP3_CallBack@capturedValue+1,w
  7178     014A  0020               	movlb	0	; select bank0
  7179     014B  00AE               	movwf	ECCP3_CallBack@falling_edge_time+1
  7180     014C  0876               	movf	ECCP3_CallBack@capturedValue,w
  7181     014D  00AD               	movwf	ECCP3_CallBack@falling_edge_time
  7182                           
  7183                           ;main.c: 644:     CCP3CON = 0x05;
  7184     014E  3005               	movlw	5
  7185     014F  0026               	movlb	6	; select bank6
  7186     0150  0093               	movwf	19	;volatile
  7187     0151                     i1l2097:
  7188                           
  7189                           ;main.c: 645:     if (rise_edge_flag == 1) {
  7190     0151  0020               	movlb	0	; select bank0
  7191     0152  033B               	decf	ECCP3_CallBack@rise_edge_flag,w
  7192     0153  1D03               	btfss	3,2
  7193     0154  2956               	goto	u81_21
  7194     0155  2957               	goto	u81_20
  7195     0156                     u81_21:
  7196     0156  29FA               	goto	i1l585
  7197     0157                     u81_20:
  7198     0157                     i1l2099:
  7199                           
  7200                           ;main.c: 646:       rise_edge_flag = 0;
  7201     0157  01BB               	clrf	ECCP3_CallBack@rise_edge_flag
  7202     0158                     i1l2103:
  7203                           
  7204                           ;main.c: 649:         pluse_width_HI = falling_edge_time - rising_edge_time;
  7205     0158  082B               	movf	ECCP3_CallBack@rising_edge_time,w
  7206     0159  022D               	subwf	ECCP3_CallBack@falling_edge_time,w
  7207     015A  00AF               	movwf	ECCP3_CallBack@pluse_width_HI
  7208     015B  082C               	movf	ECCP3_CallBack@rising_edge_time+1,w
  7209     015C  3B2E               	subwfb	ECCP3_CallBack@falling_edge_time+1,w
  7210     015D  00B0               	movwf	ECCP3_CallBack@pluse_width_HI+1
  7211     015E                     i1l570:	
  7212                           ;main.c: 652:       }
  7213                           
  7214                           
  7215                           ;main.c: 653:       LO_us = (pluse_width_LO >> 3) & 0xff;
  7216     015E  0832               	movf	ECCP3_CallBack@pluse_width_LO+1,w
  7217     015F  00F9               	movwf	??_ECCP3_CallBack+1
  7218     0160  0831               	movf	ECCP3_CallBack@pluse_width_LO,w
  7219     0161  00F8               	movwf	??_ECCP3_CallBack
  7220     0162  36F9               	lsrf	??_ECCP3_CallBack+1,f
  7221     0163  0CF8               	rrf	??_ECCP3_CallBack,f
  7222     0164  36F9               	lsrf	??_ECCP3_CallBack+1,f
  7223     0165  0CF8               	rrf	??_ECCP3_CallBack,f
  7224     0166  36F9               	lsrf	??_ECCP3_CallBack+1,f
  7225     0167  0CF8               	rrf	??_ECCP3_CallBack,f
  7226     0168  0878               	movf	??_ECCP3_CallBack,w
  7227     0169  00F0               	movwf	ECCP3_CallBack@LO_us
  7228                           
  7229                           ;main.c: 654:       HI_us = (pluse_width_HI >> 3) & 0xff;
  7230     016A  0830               	movf	ECCP3_CallBack@pluse_width_HI+1,w
  7231     016B  00F9               	movwf	??_ECCP3_CallBack+1
  7232     016C  082F               	movf	ECCP3_CallBack@pluse_width_HI,w
  7233     016D  00F8               	movwf	??_ECCP3_CallBack
  7234     016E  36F9               	lsrf	??_ECCP3_CallBack+1,f
  7235     016F  0CF8               	rrf	??_ECCP3_CallBack,f
  7236     0170  36F9               	lsrf	??_ECCP3_CallBack+1,f
  7237     0171  0CF8               	rrf	??_ECCP3_CallBack,f
  7238     0172  36F9               	lsrf	??_ECCP3_CallBack+1,f
  7239     0173  0CF8               	rrf	??_ECCP3_CallBack,f
  7240     0174  0878               	movf	??_ECCP3_CallBack,w
  7241     0175  00F1               	movwf	ECCP3_CallBack@HI_us
  7242     0176                     i1l2107:
  7243                           
  7244                           ;main.c: 657:       if (HI_us > (25)) {
  7245     0176  301A               	movlw	26
  7246     0177  0271               	subwf	ECCP3_CallBack@HI_us,w
  7247     0178  1C03               	skipc
  7248     0179  297B               	goto	u82_21
  7249     017A  297C               	goto	u82_20
  7250     017B                     u82_21:
  7251     017B  297F               	goto	i1l571
  7252     017C                     u82_20:
  7253     017C                     i1l2109:
  7254                           
  7255                           ;main.c: 658:         LATCbits.LATC4 = 1;
  7256     017C  0022               	movlb	2	; select bank2
  7257     017D  160E               	bsf	14,4	;volatile
  7258                           
  7259                           ;main.c: 659:       } else {
  7260     017E  2981               	goto	i1l2111
  7261     017F                     i1l571:
  7262                           
  7263                           ;main.c: 660:         LATCbits.LATC4 = 0;
  7264     017F  0022               	movlb	2	; select bank2
  7265     0180  120E               	bcf	14,4	;volatile
  7266     0181                     i1l2111:
  7267                           
  7268                           ;main.c: 663:       if (HI_us > LO_us)
  7269     0181  0871               	movf	ECCP3_CallBack@HI_us,w
  7270     0182  0270               	subwf	ECCP3_CallBack@LO_us,w
  7271     0183  1803               	skipnc
  7272     0184  2986               	goto	u83_21
  7273     0185  2987               	goto	u83_20
  7274     0186                     u83_21:
  7275     0186  298C               	goto	i1l2115
  7276     0187                     u83_20:
  7277     0187                     i1l2113:
  7278                           
  7279                           ;main.c: 664:         diff_us = HI_us - LO_us;
  7280     0187  0870               	movf	ECCP3_CallBack@LO_us,w
  7281     0188  0271               	subwf	ECCP3_CallBack@HI_us,w
  7282     0189  0020               	movlb	0	; select bank0
  7283     018A  00BC               	movwf	ECCP3_CallBack@diff_us
  7284     018B  2990               	goto	i1l574
  7285     018C                     i1l2115:
  7286                           
  7287                           ;main.c: 666:         diff_us = LO_us - HI_us;
  7288     018C  0871               	movf	ECCP3_CallBack@HI_us,w
  7289     018D  0270               	subwf	ECCP3_CallBack@LO_us,w
  7290     018E  0020               	movlb	0	; select bank0
  7291     018F  00BC               	movwf	ECCP3_CallBack@diff_us
  7292     0190                     i1l574:
  7293                           
  7294                           ;main.c: 668:       if (fHead == 0) {
  7295     0190  083A               	movf	ECCP3_CallBack@fHead,w
  7296     0191  1D03               	btfss	3,2
  7297     0192  2994               	goto	u84_21
  7298     0193  2995               	goto	u84_20
  7299     0194                     u84_21:
  7300     0194  299F               	goto	i1l2123
  7301     0195                     u84_20:
  7302     0195                     i1l2117:
  7303                           
  7304                           ;main.c: 670:         if (diff_us < (16)) {
  7305     0195  3010               	movlw	16
  7306     0196  023C               	subwf	ECCP3_CallBack@diff_us,w
  7307     0197  1803               	skipnc
  7308     0198  299A               	goto	u85_21
  7309     0199  299B               	goto	u85_20
  7310     019A                     u85_21:
  7311     019A  29CB               	goto	i1l568
  7312     019B                     u85_20:
  7313     019B                     i1l2119:
  7314                           
  7315                           ;main.c: 672:           fHead = 1;
  7316     019B  01BA               	clrf	ECCP3_CallBack@fHead
  7317     019C  0ABA               	incf	ECCP3_CallBack@fHead,f
  7318     019D                     i1l2121:
  7319                           
  7320                           ;main.c: 673:           data_cnt = 0;
  7321     019D  01B9               	clrf	ECCP3_CallBack@data_cnt
  7322     019E  29FA               	goto	i1l585
  7323     019F                     i1l2123:
  7324                           
  7325                           ;main.c: 677:         if (diff_us < (16)) {
  7326     019F  3010               	movlw	16
  7327     01A0  023C               	subwf	ECCP3_CallBack@diff_us,w
  7328     01A1  1803               	skipnc
  7329     01A2  29A4               	goto	u86_21
  7330     01A3  29A5               	goto	u86_20
  7331     01A4                     u86_21:
  7332     01A4  29B2               	goto	i1l2127
  7333     01A5                     u86_20:
  7334     01A5                     i1l2125:
  7335                           
  7336                           ;main.c: 679:           rx_data &= ~(1 << data_cnt);
  7337     01A5  3001               	movlw	1
  7338     01A6  00F8               	movwf	??_ECCP3_CallBack
  7339     01A7  0A39               	incf	ECCP3_CallBack@data_cnt,w
  7340     01A8  29AA               	goto	u87_24
  7341     01A9                     u87_25:
  7342     01A9  35F8               	lslf	??_ECCP3_CallBack,f
  7343     01AA                     u87_24:
  7344     01AA  0B89               	decfsz	9,f
  7345     01AB  29A9               	goto	u87_25
  7346     01AC  0878               	movf	??_ECCP3_CallBack,w
  7347     01AD  3AFF               	xorlw	255
  7348     01AE  00F9               	movwf	??_ECCP3_CallBack+1
  7349     01AF  0879               	movf	??_ECCP3_CallBack+1,w
  7350     01B0  05F4               	andwf	_rx_data,f
  7351                           
  7352                           ;main.c: 680:         } else {
  7353     01B1  29BD               	goto	i1l579
  7354     01B2                     i1l2127:
  7355                           
  7356                           ;main.c: 682:           rx_data |= (1 << data_cnt);
  7357     01B2  3001               	movlw	1
  7358     01B3  00F8               	movwf	??_ECCP3_CallBack
  7359     01B4  0A39               	incf	ECCP3_CallBack@data_cnt,w
  7360     01B5  29B7               	goto	u88_24
  7361     01B6                     u88_25:
  7362     01B6  35F8               	lslf	??_ECCP3_CallBack,f
  7363     01B7                     u88_24:
  7364     01B7  0B89               	decfsz	9,f
  7365     01B8  29B6               	goto	u88_25
  7366     01B9  0878               	movf	??_ECCP3_CallBack,w
  7367     01BA  00F9               	movwf	??_ECCP3_CallBack+1
  7368     01BB  0879               	movf	??_ECCP3_CallBack+1,w
  7369     01BC  04F4               	iorwf	_rx_data,f
  7370     01BD                     i1l579:	
  7371                           ;main.c: 683:         }
  7372                           
  7373                           
  7374                           ;main.c: 685:         data_cnt++;
  7375     01BD  3001               	movlw	1
  7376     01BE  00F8               	movwf	??_ECCP3_CallBack
  7377     01BF  0878               	movf	??_ECCP3_CallBack,w
  7378     01C0  07B9               	addwf	ECCP3_CallBack@data_cnt,f
  7379     01C1                     i1l2129:
  7380                           
  7381                           ;main.c: 686:         if (data_cnt > 7) {
  7382     01C1  3008               	movlw	8
  7383     01C2  0239               	subwf	ECCP3_CallBack@data_cnt,w
  7384     01C3  1C03               	skipc
  7385     01C4  29C6               	goto	u89_21
  7386     01C5  29C7               	goto	u89_20
  7387     01C6                     u89_21:
  7388     01C6  29CB               	goto	i1l568
  7389     01C7                     u89_20:
  7390     01C7                     i1l2131:
  7391                           
  7392                           ;main.c: 687:           fHead = 0;
  7393     01C7  01BA               	clrf	ECCP3_CallBack@fHead
  7394     01C8                     i1l2133:
  7395                           
  7396                           ;main.c: 688:           data_1byte_OK = 1;
  7397     01C8  3001               	movlw	1
  7398     01C9  00CB               	movwf	_data_1byte_OK	;volatile
  7399     01CA  29FA               	goto	i1l585
  7400     01CB                     i1l568:	
  7401                           ;main.c: 691:     }
  7402                           
  7403                           
  7404                           ;main.c: 692:   }
  7405     01CB  29FA               	goto	i1l585
  7406     01CC                     i1l2135:
  7407     01CC  3005               	movlw	5
  7408     01CD  0613               	xorwf	19,w	;volatile
  7409     01CE  1D03               	btfss	3,2
  7410     01CF  29D1               	goto	u90_21
  7411     01D0  29D2               	goto	u90_20
  7412     01D1                     u90_21:
  7413     01D1  29FA               	goto	i1l585
  7414     01D2                     u90_20:
  7415     01D2                     i1l2137:
  7416                           
  7417                           ;main.c: 694:     rising_edge_time = capturedValue;
  7418     01D2  0877               	movf	ECCP3_CallBack@capturedValue+1,w
  7419     01D3  0020               	movlb	0	; select bank0
  7420     01D4  00AC               	movwf	ECCP3_CallBack@rising_edge_time+1
  7421     01D5  0876               	movf	ECCP3_CallBack@capturedValue,w
  7422     01D6  00AB               	movwf	ECCP3_CallBack@rising_edge_time
  7423                           
  7424                           ;main.c: 695:     CCP3CON = 0x04;
  7425     01D7  3004               	movlw	4
  7426     01D8  0026               	movlb	6	; select bank6
  7427     01D9  0093               	movwf	19	;volatile
  7428                           
  7429                           ;main.c: 697:     if (rising_edge_time >= falling_edge_time) {
  7430     01DA  0020               	movlb	0	; select bank0
  7431     01DB  082E               	movf	ECCP3_CallBack@falling_edge_time+1,w
  7432     01DC  022C               	subwf	ECCP3_CallBack@rising_edge_time+1,w
  7433     01DD  1D03               	skipz
  7434     01DE  29E1               	goto	u91_25
  7435     01DF  082D               	movf	ECCP3_CallBack@falling_edge_time,w
  7436     01E0  022B               	subwf	ECCP3_CallBack@rising_edge_time,w
  7437     01E1                     u91_25:
  7438     01E1  1C03               	skipc
  7439     01E2  29E4               	goto	u91_21
  7440     01E3  29E5               	goto	u91_20
  7441     01E4                     u91_21:
  7442     01E4  29EC               	goto	i1l2141
  7443     01E5                     u91_20:
  7444     01E5                     i1l2139:
  7445                           
  7446                           ;main.c: 698:       pluse_width_LO = rising_edge_time - falling_edge_time;
  7447     01E5  082D               	movf	ECCP3_CallBack@falling_edge_time,w
  7448     01E6  022B               	subwf	ECCP3_CallBack@rising_edge_time,w
  7449     01E7  00B1               	movwf	ECCP3_CallBack@pluse_width_LO
  7450     01E8  082E               	movf	ECCP3_CallBack@falling_edge_time+1,w
  7451     01E9  3B2C               	subwfb	ECCP3_CallBack@rising_edge_time+1,w
  7452     01EA  00B2               	movwf	ECCP3_CallBack@pluse_width_LO+1
  7453                           
  7454                           ;main.c: 699:     } else {
  7455     01EB  29F8               	goto	i1l2143
  7456     01EC                     i1l2141:
  7457                           
  7458                           ;main.c: 700:       pluse_width_LO = (0xffff - falling_edge_time) + rising_edge_time;
  7459     01EC  082E               	movf	ECCP3_CallBack@falling_edge_time+1,w
  7460     01ED  00F9               	movwf	??_ECCP3_CallBack+1
  7461     01EE  082D               	movf	ECCP3_CallBack@falling_edge_time,w
  7462     01EF  00F8               	movwf	??_ECCP3_CallBack
  7463     01F0  09F8               	comf	??_ECCP3_CallBack,f
  7464     01F1  09F9               	comf	??_ECCP3_CallBack+1,f
  7465     01F2  082B               	movf	ECCP3_CallBack@rising_edge_time,w
  7466     01F3  0778               	addwf	??_ECCP3_CallBack,w
  7467     01F4  00B1               	movwf	ECCP3_CallBack@pluse_width_LO
  7468     01F5  082C               	movf	ECCP3_CallBack@rising_edge_time+1,w
  7469     01F6  3D79               	addwfc	??_ECCP3_CallBack+1,w
  7470     01F7  00B2               	movwf	ECCP3_CallBack@pluse_width_LO+1
  7471     01F8                     i1l2143:
  7472                           
  7473                           ;main.c: 702:     rise_edge_flag = 1;
  7474     01F8  01BB               	clrf	ECCP3_CallBack@rise_edge_flag
  7475     01F9  0ABB               	incf	ECCP3_CallBack@rise_edge_flag,f
  7476     01FA                     i1l585:
  7477     01FA  0008               	return
  7478     01FB                     __end_of_ECCP3_CallBack:
  7479     007E                     btemp	set	126	;btemp
  7480     007E                     int$flags	set	126
  7481     007E                     wtemp0	set	126
  7482                           
  7483                           	psect	config
  7484                           
  7485                           ;Config register CONFIG1 @ 0x8007
  7486                           ;	Oscillator Selection
  7487                           ;	FOSC = INTOSC, INTOSC oscillator: I/O function on CLKIN pin
  7488                           ;	Watchdog Timer Enable
  7489                           ;	WDTE = OFF, WDT disabled
  7490                           ;	Power-up Timer Enable
  7491                           ;	PWRTE = ON, PWRT enabled
  7492                           ;	MCLR Pin Function Select
  7493                           ;	MCLRE = ON, MCLR/VPP pin function is MCLR
  7494                           ;	Flash Program Memory Code Protection
  7495                           ;	CP = OFF, Program memory code protection is disabled
  7496                           ;	Data Memory Code Protection
  7497                           ;	CPD = OFF, Data memory code protection is disabled
  7498                           ;	Brown-out Reset Enable
  7499                           ;	BOREN = ON, Brown-out Reset enabled
  7500                           ;	Clock Out Enable
  7501                           ;	CLKOUTEN = OFF, CLKOUT function is disabled. I/O or oscillator function on the CLKOUT 
      +                          pin
  7502                           ;	Internal/External Switchover
  7503                           ;	IESO = ON, Internal/External Switchover mode is enabled
  7504                           ;	Fail-Safe Clock Monitor Enable
  7505                           ;	FCMEN = ON, Fail-Safe Clock Monitor is enabled
  7506     8007                     	org	32775
  7507     8007  3FC4               	dw	16324
  7508                           
  7509                           ;Config register CONFIG2 @ 0x8008
  7510                           ;	Flash Memory Self-Write Protection
  7511                           ;	WRT = OFF, Write protection off
  7512                           ;	Voltage Regulator Capacitor Enable
  7513                           ;	VCAPEN = OFF, All VCAP pin functionality is disabled
  7514                           ;	PLL Enable
  7515                           ;	PLLEN = ON, 4x PLL enabled
  7516                           ;	Stack Overflow/Underflow Reset Enable
  7517                           ;	STVREN = ON, Stack Overflow or Underflow will cause a Reset
  7518                           ;	Brown-out Reset Voltage Selection
  7519                           ;	BORV = LO, Brown-out Reset Voltage (Vbor), low trip point selected.
  7520                           ;	Low-Voltage Programming Enable
  7521                           ;	LVP = OFF, High-voltage on MCLR/VPP must be used for programming
  7522     8008                     	org	32776
  7523     8008  1FFF               	dw	8191

Data Sizes:
    Strings     0
    Constant    64
    Data        0
    BSS         50
    Persistent  32
    Stack       0

Auto Spaces:
    Space          Size  Autos    Used
    COMMON           14      6      12
    BANK0            80      6      50
    BANK1            80      0       0
    BANK2            80      0       0
    BANK3            80      0       0
    BANK4            80      0       0
    BANK5            80      0       0
    BANK6            16      0       0

Pointer List with Targets:

    TMR0_InterruptHandler	PTR FTN()void  size(2) Largest target is 1
		 -> TMR0_10MS_EvenHandler(), TMR0_DefaultInterruptHandler(), NULL(), 

    TMR0_SetInterruptHandler@InterruptHandler	PTR FTN()void  size(2) Largest target is 1
		 -> TMR0_10MS_EvenHandler(), TMR0_DefaultInterruptHandler(), 


Critical Paths under _main in COMMON

    None.

Critical Paths under _INTERRUPT_InterruptManager in COMMON

    _INTERRUPT_InterruptManager->_ECCP3_CaptureISR
    _TMR0_CallBack->_TMR0_10MS_EvenHandler
    _ECCP3_CaptureISR->_ECCP3_CallBack

Critical Paths under _main in BANK0

    _main->_LED_output
    _TMR0_Initialize->_TMR0_SetInterruptHandler
    _DRL_ON->_DRL_Gradually
    _Exception_handling2->_POS_Slow_extinguishing
    _Exception_handling->_POS_Gradually
    _Clear_No_Call_Warning->_EPWM1_LoadDutyValue
    _Clear_No_Call_Warning->_EPWM2_LoadDutyValue
    _TMR1_Reload->_TMR1_WriteTimer

Critical Paths under _INTERRUPT_InterruptManager in BANK0

    None.

Critical Paths under _main in BANK1

    None.

Critical Paths under _INTERRUPT_InterruptManager in BANK1

    None.

Critical Paths under _main in BANK2

    None.

Critical Paths under _INTERRUPT_InterruptManager in BANK2

    None.

Critical Paths under _main in BANK3

    None.

Critical Paths under _INTERRUPT_InterruptManager in BANK3

    None.

Critical Paths under _main in BANK4

    None.

Critical Paths under _INTERRUPT_InterruptManager in BANK4

    None.

Critical Paths under _main in BANK5

    None.

Critical Paths under _INTERRUPT_InterruptManager in BANK5

    None.

Critical Paths under _main in BANK6

    None.

Critical Paths under _INTERRUPT_InterruptManager in BANK6

    None.

Call Graph Tables:

 ---------------------------------------------------------------------------------
 (Depth) Function   	        Calls       Base Space   Used Autos Params    Refs
 ---------------------------------------------------------------------------------
 (0) _main                                                 0     0      0    2200
              _Clear_No_Call_Warning
                 _Exception_handling
                _Exception_handling2
                         _HiBeam_OFF
                         _LED_output
                          _LoBeam_ON
                              _P2_ON
                             _POS_ON
                  _SYSTEM_Initialize
           _TMR0_SetInterruptHandler
                        _check_input
                       _getFrameData
 ---------------------------------------------------------------------------------
 (1) _getFrameData                                         0     0      0       0
 ---------------------------------------------------------------------------------
 (1) _check_input                                          0     0      0       0
 ---------------------------------------------------------------------------------
 (1) _SYSTEM_Initialize                                    0     0      0     211
                   _ECCP3_Initialize
                   _EPWM1_Initialize
                   _EPWM2_Initialize
              _OSCILLATOR_Initialize
             _PIN_MANAGER_Initialize
                    _TMR0_Initialize
                    _TMR1_Initialize
                    _TMR2_Initialize
                     _WDT_Initialize
 ---------------------------------------------------------------------------------
 (2) _WDT_Initialize                                       0     0      0       0
 ---------------------------------------------------------------------------------
 (2) _TMR2_Initialize                                      0     0      0       0
 ---------------------------------------------------------------------------------
 (2) _TMR1_Initialize                                      0     0      0       0
 ---------------------------------------------------------------------------------
 (2) _TMR0_Initialize                                      0     0      0     211
           _TMR0_SetInterruptHandler
 ---------------------------------------------------------------------------------
 (1) _TMR0_SetInterruptHandler                             2     0      2     211
                                              0 BANK0      2     0      2
 ---------------------------------------------------------------------------------
 (2) _PIN_MANAGER_Initialize                               0     0      0       0
 ---------------------------------------------------------------------------------
 (2) _OSCILLATOR_Initialize                                0     0      0       0
 ---------------------------------------------------------------------------------
 (2) _EPWM2_Initialize                                     0     0      0       0
 ---------------------------------------------------------------------------------
 (2) _EPWM1_Initialize                                     0     0      0       0
 ---------------------------------------------------------------------------------
 (2) _ECCP3_Initialize                                     0     0      0       0
 ---------------------------------------------------------------------------------
 (1) _LED_output                                           4     4      0     247
                                              2 BANK0      4     4      0
                            _DRL_OFF
                             _DRL_ON
                         _HiBeam_OFF
                          _HiBeam_ON
                         _LoBeam_OFF
                          _LoBeam_ON
                        _LoPe_DRL_ON
                             _P2_OFF
                              _P2_ON
                             _POS_ON
 ---------------------------------------------------------------------------------
 (1) _POS_ON                                               0     0      0       0
 ---------------------------------------------------------------------------------
 (2) _LoPe_DRL_ON                                          0     0      0       0
 ---------------------------------------------------------------------------------
 (1) _LoBeam_ON                                            0     0      0       0
 ---------------------------------------------------------------------------------
 (2) _HiBeam_ON                                            0     0      0       0
 ---------------------------------------------------------------------------------
 (2) _DRL_ON                                               0     0      0      68
                      _DRL_Gradually
 ---------------------------------------------------------------------------------
 (3) _DRL_Gradually                                        2     2      0      68
                                              0 BANK0      2     2      0
 ---------------------------------------------------------------------------------
 (2) _DRL_OFF                                              0     0      0       0
 ---------------------------------------------------------------------------------
 (1) _Exception_handling2                                  0     0      0      99
                         _HiBeam_OFF
                         _LoBeam_OFF
                             _P2_OFF
                            _POS_OFF
             _POS_Slow_extinguishing
 ---------------------------------------------------------------------------------
 (2) _POS_Slow_extinguishing                               3     3      0      99
                                              0 BANK0      3     3      0
 ---------------------------------------------------------------------------------
 (2) _POS_OFF                                              0     0      0       0
 ---------------------------------------------------------------------------------
 (2) _P2_OFF                                               0     0      0       0
 ---------------------------------------------------------------------------------
 (1) _Exception_handling                                   0     0      0      99
                         _HiBeam_OFF
                         _LoBeam_OFF
                              _P2_ON
                      _POS_Gradually
 ---------------------------------------------------------------------------------
 (2) _POS_Gradually                                        3     3      0      99
                                              0 BANK0      3     3      0
 ---------------------------------------------------------------------------------
 (1) _P2_ON                                                0     0      0       0
 ---------------------------------------------------------------------------------
 (2) _LoBeam_OFF                                           0     0      0       0
 ---------------------------------------------------------------------------------
 (2) _HiBeam_OFF                                           0     0      0       0
 ---------------------------------------------------------------------------------
 (1) _Clear_No_Call_Warning                                1     1      0    1333
                _EPWM1_LoadDutyValue
                _EPWM2_LoadDutyValue
                    _PIN_MANAGER_IOC
                     _TMR0_ReadTimer
                        _TMR0_Reload
                    _TMR0_WriteTimer
          _TMR1_CheckGateValueStatus
            _TMR1_HasOverflowOccured
                     _TMR1_ReadTimer
                        _TMR1_Reload
   _TMR1_StartSinglePulseAcquisition
                    _TMR1_StartTimer
                     _TMR1_StopTimer
                    _TMR1_WriteTimer
            _TMR2_HasOverflowOccured
            _TMR2_LoadPeriodRegister
                     _TMR2_ReadTimer
                    _TMR2_StartTimer
                     _TMR2_StopTimer
                    _TMR2_WriteTimer
 ---------------------------------------------------------------------------------
 (2) _TMR2_WriteTimer                                      1     1      0      31
                                              0 BANK0      1     1      0
 ---------------------------------------------------------------------------------
 (2) _TMR2_StopTimer                                       0     0      0       0
 ---------------------------------------------------------------------------------
 (2) _TMR2_StartTimer                                      0     0      0       0
 ---------------------------------------------------------------------------------
 (2) _TMR2_ReadTimer                                       1     1      0      10
 ---------------------------------------------------------------------------------
 (2) _TMR2_LoadPeriodRegister                              1     1      0      31
                                              0 BANK0      1     1      0
 ---------------------------------------------------------------------------------
 (2) _TMR2_HasOverflowOccured                              1     1      0      41
                                              0 BANK0      1     1      0
 ---------------------------------------------------------------------------------
 (2) _TMR1_StopTimer                                       0     0      0       0
 ---------------------------------------------------------------------------------
 (2) _TMR1_StartTimer                                      0     0      0       0
 ---------------------------------------------------------------------------------
 (2) _TMR1_StartSinglePulseAcquisition                     0     0      0       0
 ---------------------------------------------------------------------------------
 (2) _TMR1_Reload                                          0     0      0     304
                    _TMR1_WriteTimer
 ---------------------------------------------------------------------------------
 (2) _TMR1_WriteTimer                                      2     0      2     304
                                              0 BANK0      2     0      2
 ---------------------------------------------------------------------------------
 (2) _TMR1_ReadTimer                                       4     4      0      78
                                              0 BANK0      2     2      0
 ---------------------------------------------------------------------------------
 (2) _TMR1_HasOverflowOccured                              0     0      0       0
 ---------------------------------------------------------------------------------
 (2) _TMR1_CheckGateValueStatus                            0     0      0       0
 ---------------------------------------------------------------------------------
 (2) _TMR0_WriteTimer                                      1     1      0      31
                                              0 BANK0      1     1      0
 ---------------------------------------------------------------------------------
 (2) _TMR0_Reload                                          0     0      0       0
 ---------------------------------------------------------------------------------
 (2) _TMR0_ReadTimer                                       1     1      0      10
 ---------------------------------------------------------------------------------
 (2) _PIN_MANAGER_IOC                                      0     0      0       0
 ---------------------------------------------------------------------------------
 (2) _EPWM2_LoadDutyValue                                  4     2      2     152
                                              0 BANK0      4     2      2
 ---------------------------------------------------------------------------------
 (2) _EPWM1_LoadDutyValue                                  4     2      2     152
                                              0 BANK0      4     2      2
 ---------------------------------------------------------------------------------
 Estimated maximum stack depth 3
 ---------------------------------------------------------------------------------
 (Depth) Function   	        Calls       Base Space   Used Autos Params    Refs
 ---------------------------------------------------------------------------------
 (4) _INTERRUPT_InterruptManager                           0     0      0     167
                   _ECCP3_CaptureISR
                           _TMR0_ISR
 ---------------------------------------------------------------------------------
 (5) _TMR0_ISR                                             0     0      0       0
                      _TMR0_CallBack
 ---------------------------------------------------------------------------------
 (6) _TMR0_CallBack                                        0     0      0       0
                                NULL *
              _TMR0_10MS_EvenHandler *
       _TMR0_DefaultInterruptHandler *
 ---------------------------------------------------------------------------------
 (7) _TMR0_DefaultInterruptHandler                         0     0      0       0
 ---------------------------------------------------------------------------------
 (7) _TMR0_10MS_EvenHandler                                1     1      0       0
                                              0 COMMON     1     1      0
 ---------------------------------------------------------------------------------
 (7) NULL(Fake)                                            0     0      0       0
 ---------------------------------------------------------------------------------
 (5) _ECCP3_CaptureISR                                     2     2      0     167
                                              4 COMMON     2     2      0
                     _ECCP3_CallBack
 ---------------------------------------------------------------------------------
 (6) _ECCP3_CallBack                                       4     2      2     120
                                              0 COMMON     4     2      2
 ---------------------------------------------------------------------------------
 Estimated maximum stack depth 7
 ---------------------------------------------------------------------------------

 Call Graph Graphs:

 _main (ROOT)
   _Clear_No_Call_Warning
     _EPWM1_LoadDutyValue
     _EPWM2_LoadDutyValue
     _PIN_MANAGER_IOC
     _TMR0_ReadTimer
     _TMR0_Reload
     _TMR0_WriteTimer
     _TMR1_CheckGateValueStatus
     _TMR1_HasOverflowOccured
     _TMR1_ReadTimer
     _TMR1_Reload
       _TMR1_WriteTimer
     _TMR1_StartSinglePulseAcquisition
     _TMR1_StartTimer
     _TMR1_StopTimer
     _TMR1_WriteTimer
     _TMR2_HasOverflowOccured
     _TMR2_LoadPeriodRegister
     _TMR2_ReadTimer
     _TMR2_StartTimer
     _TMR2_StopTimer
     _TMR2_WriteTimer
   _Exception_handling
     _HiBeam_OFF
     _LoBeam_OFF
     _P2_ON
     _POS_Gradually
   _Exception_handling2
     _HiBeam_OFF
     _LoBeam_OFF
     _P2_OFF
     _POS_OFF
     _POS_Slow_extinguishing
   _HiBeam_OFF
   _LED_output
     _DRL_OFF
     _DRL_ON
       _DRL_Gradually
     _HiBeam_OFF
     _HiBeam_ON
     _LoBeam_OFF
     _LoBeam_ON
     _LoPe_DRL_ON
     _P2_OFF
     _P2_ON
     _POS_ON
   _LoBeam_ON
   _P2_ON
   _POS_ON
   _SYSTEM_Initialize
     _ECCP3_Initialize
     _EPWM1_Initialize
     _EPWM2_Initialize
     _OSCILLATOR_Initialize
     _PIN_MANAGER_Initialize
     _TMR0_Initialize
       _TMR0_SetInterruptHandler
     _TMR1_Initialize
     _TMR2_Initialize
     _WDT_Initialize
   _TMR0_SetInterruptHandler
   _check_input
   _getFrameData

 _INTERRUPT_InterruptManager (ROOT)
   _ECCP3_CaptureISR
     _ECCP3_CallBack
   _TMR0_ISR
     _TMR0_CallBack
       NULL(Fake) *
       _TMR0_10MS_EvenHandler *
       _TMR0_DefaultInterruptHandler *

 Address spaces:
Name               Size   Autos  Total    Cost      Usage
BIGRAM             1F0      0       0       0        0.0%
EEDATA             100      0       0       0        0.0%
NULL                 0      0       0       0        0.0%
CODE                 0      0       0       0        0.0%
BITCOMMON            E      0       0       1        0.0%
BITSFR0              0      0       0       1        0.0%
SFR0                 0      0       0       1        0.0%
COMMON               E      6       C       2       85.7%
BITSFR1              0      0       0       2        0.0%
SFR1                 0      0       0       2        0.0%
BITSFR2              0      0       0       3        0.0%
SFR2                 0      0       0       3        0.0%
STACK                0      0       0       3        0.0%
BITSFR3              0      0       0       4        0.0%
SFR3                 0      0       0       4        0.0%
ABS                  0      0      3E       4        0.0%
BITBANK0            50      0       0       5        0.0%
BITSFR4              0      0       0       5        0.0%
SFR4                 0      0       0       5        0.0%
BANK0               50      6      32       6       62.5%
BITSFR5              0      0       0       6        0.0%
SFR5                 0      0       0       6        0.0%
BITBANK1            50      0       0       7        0.0%
BITSFR6              0      0       0       7        0.0%
SFR6                 0      0       0       7        0.0%
BANK1               50      0       0       8        0.0%
BITSFR7              0      0       0       8        0.0%
SFR7                 0      0       0       8        0.0%
BITBANK2            50      0       0       9        0.0%
BITSFR8              0      0       0       9        0.0%
SFR8                 0      0       0       9        0.0%
BANK2               50      0       0      10        0.0%
BITSFR9              0      0       0      10        0.0%
SFR9                 0      0       0      10        0.0%
BITBANK3            50      0       0      11        0.0%
BITSFR10             0      0       0      11        0.0%
SFR10                0      0       0      11        0.0%
BANK3               50      0       0      12        0.0%
BITSFR11             0      0       0      12        0.0%
SFR11                0      0       0      12        0.0%
BITBANK4            50      0       0      13        0.0%
BITSFR12             0      0       0      13        0.0%
SFR12                0      0       0      13        0.0%
BANK4               50      0       0      14        0.0%
BITSFR13             0      0       0      14        0.0%
SFR13                0      0       0      14        0.0%
BITBANK5            50      0       0      15        0.0%
BITSFR14             0      0       0      15        0.0%
SFR14                0      0       0      15        0.0%
BANK5               50      0       0      16        0.0%
BITSFR15             0      0       0      16        0.0%
SFR15                0      0       0      16        0.0%
BITBANK6            10      0       0      17        0.0%
BITSFR16             0      0       0      17        0.0%
SFR16                0      0       0      17        0.0%
BANK6               10      0       0      18        0.0%
BITSFR17             0      0       0      18        0.0%
SFR17                0      0       0      18        0.0%
BITSFR18             0      0       0      19        0.0%
SFR18                0      0       0      19        0.0%
DATA                 0      0      3E      19        0.0%
BITSFR19             0      0       0      20        0.0%
SFR19                0      0       0      20        0.0%
BITSFR20             0      0       0      21        0.0%
SFR20                0      0       0      21        0.0%
BITSFR21             0      0       0      22        0.0%
SFR21                0      0       0      22        0.0%
BITSFR22             0      0       0      23        0.0%
SFR22                0      0       0      23        0.0%
BITSFR23             0      0       0      24        0.0%
SFR23                0      0       0      24        0.0%
BITSFR24             0      0       0      25        0.0%
SFR24                0      0       0      25        0.0%
BITSFR25             0      0       0      26        0.0%
SFR25                0      0       0      26        0.0%
BITSFR26             0      0       0      27        0.0%
SFR26                0      0       0      27        0.0%
BITSFR27             0      0       0      28        0.0%
SFR27                0      0       0      28        0.0%
BITSFR28             0      0       0      29        0.0%
SFR28                0      0       0      29        0.0%
BITSFR29             0      0       0      30        0.0%
SFR29                0      0       0      30        0.0%
BITSFR30             0      0       0      31        0.0%
SFR30                0      0       0      31        0.0%
BITSFR31             0      0       0      32        0.0%
SFR31                0      0       0      32        0.0%


Microchip Technology PIC Macro Assembler V2.46 build 20240104201356 
Symbol Table                                                                                   Fri Mar 06 07:50:30 2026

                                      _D2 0073                                        _D3 0048  
                                      l31 042F                                        l40 0582  
                                      l34 051A                                        l37 051F  
                              _HiBeam_OFF 059A                                        l80 04EC  
                                      l83 05AB                                        _CS 02B8  
                                      l94 04D0                                        l86 05A8  
                                      l89 056A                                        l97 054A  
                         _timer0ReloadVal 0075                                       l100 05AE  
                                     l103 05B4                                       l200 05A2  
                                     l106 05B1                                       l203 059F  
                                     l140 05B9                                       l212 0579  
                                     l206 05A5                                       l231 0541  
                                     l216 0537                                       l209 0574  
                                     l401 035E                                       l137 0413  
                                     l162 05B7                                       l411 058B  
                                     l251 0506                                       l165 057E  
                                     l413 058D                                       l421 0564  
                                     l181 055E                                       l254 0467  
                                     l430 0378                                       l510 00E5  
                                     l271 04F9                                       l159 04AC  
                                     l168 058A                                       l416 059A  
                                     l424 056F                                       l408 032C  
                                     l440 0590                                       l274 044B  
                                     l418 059C                                       l506 00D3  
                                     l522 03F6                                       l603 05B8  
                                     l451 0599                                       l435 0389  
                                     l427 037E                                       l443 0586  
                                     l460 052B                                       l437 038E  
                                     l197 0552                                       l454 0594  
                                     l446 0593                                       l456 0596  
                                     l544 026B                                       l449 0597  
                                     l473 03B3                                       l465 046A  
                                     l482 0141                                       l467 046E  
                                     l468 0480                                       l492 0097  
                                     l478 03D5                                       l496 00B0  
                                     _PR2 001B                           _timer1ReloadVal 0037  
                         _TMR2_Initialize 054B                                       wreg 0009  
                __end_of_EPWM2_Initialize 04FA             TMR2_HasOverflowOccured@status 004C  
                  ?_TMR0_10MS_EvenHandler 0076                  __end_of_ECCP3_Initialize 0542  
                         __end_of_DRL_OFF 0591                               ?_LED_output 0076  
                  ?_Clear_No_Call_Warning 0076                                      l3003 00DD  
                                    l3021 00F9                                      l3013 00EF  
                                    l3005 00E2                                      l3101 023E  
                                    l3015 00F2                                      l3007 00E8  
                                    l3103 0243                                      l3041 0130  
                                    l3105 0245                                      l3113 0248  
                                    l3115 05B8                                      l3051 013B  
                                    l3019 00F6                                      l3061 03E4  
                                    l3053 03D6                                      l3047 0132  
                                    l3039 00FD                                      l3063 03E8  
                                    l3055 03DB                                      l3071 0201  
                                    l2601 04C6                                      l3049 0137  
                                    l3065 03EC                                      l3057 03DC  
                                    l3081 0210                                      l3073 0203  
                                    l3161 027E                                      l3153 026C  
                                    l2603 04C8                                      l2611 0559  
                                    l3067 03F1                                      l3059 03E0  
                                    l3091 0225                                      l3083 0216  
                                    l3075 0209                                      l3171 028E  
                                    l3163 0282                                      l3155 0277  
                                    l2605 04CA                                      l2621 0479  
                                    l2613 0468                                      l2701 04E0  
                                    l3093 022A                                      l3077 020B  
                                    l3069 01FB                                      l3181 02A4  
                                    l3173 0291                                      l3165 0285  
                                    l3157 0278                                      l2607 04CC  
                                    l2623 047F                                      l2631 0400  
                                    l2711 049E                                      l2703 04E3  
                                    l3095 022F                                      l3087 021B  
                                    l3079 020E                                      l3191 02B2  
                                    l3175 0297                                      l3183 02A8  
                                    l3167 0288                                      l3159 0279  
                                    l2609 04CE                                      l2721 05A9  
                                    l2801 03D0                                      l2641 040B  
                                    l2633 0402                                      l2625 03F7  
                                    l2713 04A1                                      l2705 04E4  
                                    l3097 0234                                      l3089 0220  
                                    l3185 02A9                                      l3177 029C  
                                    l3169 028B                                      l2731 05AC  
                                    l2723 05A6                                      l2803 03D2  
                                    l2619 046F                                      l2811 0365  
                                    l2651 0518                                      l2643 040F  
                                    l2635 0404                                      l2627 03FB  
                                    l2715 04A3                                      l2707 04E5  
                                    l3099 0239                                      l3187 02AC  
                                    l3179 02A1                                      l2741 05B5  
                                    l2733 05B2                                      l2725 0565  
                                    l2901 0329                                      l2821 0379  
                                    l2813 0369                                      l2805 055F  
                                    l2661 04F3                                      l2645 0411  
                                    l2637 0406                                      l2629 03FD  
                                    l2717 04A4                                      l2709 0499  
                                    l2653 057F                                      l3189 02AF  
                                    l2751 059D                                      l2903 032B  
                                    l2823 037C                                      l2815 036B  
                                    l2807 0561                                      l2671 04FD  
                                    l2663 04F5                                      l2655 04ED  
                                    l2647 0514                                      l2639 0409  
                                    l2719 04A5                                      l2745 057C  
                                    l2737 05AF                                      l2729 0542  
                                    l2761 052C                                      l2753 05A3  
                                    l2833 038A                                      l2817 036F  
                                    l2809 035F                                      l2841 0520  
                                    l2921 005A                                      l2913 004C  
                                    l2905 003A                                      l2681 0504  
                                    l2673 04FE                                      l2665 04F6  
                                    l2657 04F0                                      l2649 0517  
                                    l2747 0587                                      l2763 0531  
                                    l2771 056B                                      l2851 0334  
                                    l2835 038D                                      l2819 0374  
                                    l2843 0526                                      l2931 006B  
                                    l2923 005B                                      l2907 0044  
                                    l2691 0538                                      l2675 0500  
                                    l2667 04F7                                      l2659 04F1  
                                    l2683 054B                                      l2597 04C0  
                                    l2765 0536                                      l2749 05A0  
                                    l2757 0572                                      l2781 0395  
                                    l2773 038F                                      l2861 034C  
                                    l2853 033A                                      l2837 058E  
                                    l2829 0383                                      l2845 0528  
                                    l2941 008B                                      l2933 0070  
                                    l2925 005F                                      l2917 0053  
                                    l2909 0045                                      l2693 053B  
                                    l2677 0502                                      l2669 04FA  
                                    l2685 054E                                      l2767 044C  
                                    l2599 04C5                                      l2759 0577  
                                    l2783 03A2                                      l2871 0355  
                                    l2863 034F                                      l2855 033C  
                                    l2791 03B4                                      l2839 0583  
                                    l2951 00A4                                      l2943 008F  
                                    l2935 0075                                      l2927 0063  
                                    l2695 053C                                      l2679 0503  
                                    l2687 054F                                      l2847 0414  
                                    l2769 0430                                      l2785 03AD  
                                    l2873 035B                                      l2865 0350  
                                    l2857 0345                                      l2849 032D  
                                    l2881 0305                                      l2953 00A8  
                                    l2945 0094                                      l2937 007B  
                                    l2929 0066                                      l2697 053D  
                                    l2689 0550                                      l2787 03B0  
                                    l2779 0391                                      l2875 035D  
                                    l2867 0352                                      l2859 034B  
                                    l2795 03B7                                      l2891 031D  
                                    l2883 0307                                      l2971 00C7  
                                    l2963 00BA                                      l2955 00AD  
                                    l2947 009A                                      l2939 0085  
                                    l2699 053F                                      l2869 0354  
                                    l2789 0591                                      l2797 03C7  
                                    l2893 031E                                      l2885 0313  
                                    l2877 02F8                                      l2965 00BD  
                                    l2957 00B3                                      l2949 00A0  
                                    l2799 03CA                                      l2895 0320  
                                    l2887 0319                                      l2879 02FF  
                                    l2967 00C0                                      l2889 031A  
                                    l2897 0322                                      l2993 00CB  
                                    l2969 00C4                                      l2899 0323  
                                    l2995 00D0                                      l2997 00D6  
                                    _LATA 010C                                      _LATB 010D  
                                    _LATC 010E                                      u1520 03AD  
                                    u1600 0334                                      u1505 045D  
                                    u1521 03AC                                      u1601 0333  
                                    _LATE 0110                                      u1450 04C5  
                                    u1610 033A                                      u1530 03D0  
                                    u1515 0441                                      u1451 04C4  
                                    u1611 0339                                      u1531 03CF  
                                    u1620 034B                                      u1460 046E  
                                    u1540 0365                                      u1700 0059  
                                    u1621 034A                                      u1461 046D  
                                    u1541 0364                                      u1701 0058  
                                    u1630 035B                                      u1470 047F  
                                    u1550 0369                                      u1710 005F  
                                    u1631 035A                                      u1471 047E  
                                    u1551 0368                                      u1711 005E  
                                    u1640 02FF                                      u1560 0374  
                                    u1800 00D0                                      u1480 051F  
                                    u1641 02FE                                      u1561 0373  
                                    u1801 00CF                                      u1481 051E  
                                    u1490 0536                                      u1650 0305  
                                    u1570 0382                                      u1810 00DC  
                                    u1491 0535                                      u1651 0304  
                                    u1571 0381                                      u1811 00DB  
                                    u1660 0319                                      u1580 0388  
                                    u1820 00E2                                      u1661 0318  
                                    u1581 0387                                      u1821 00E1  
                                    u1725 006B                                      u1670 0329  
                                    u1590 0526                                      u1830 00EE  
                                    u1910 0201                                      u1671 0328  
                                    u1591 0525                                      u1831 00ED  
                                    u1735 0070                                      u1911 0200  
                                    u1840 0141                                      u1760 0094  
                                    u1680 004B                                      u1920 0209  
                                    u1841 0140                                      u1761 0093  
                                    u1745 0075                                      u1681 004A  
                                    u1905 03F6                                      u1921 0208  
                                    u1770 00A0                                      u1690 0052  
                                    u1930 0216                                      u1771 009F  
                                    u1755 007A                                      u1691 0051  
                                    u1931 0215                                      u1780 00AD  
                                    u1940 0297                                      u1781 00AC  
                                    u1941 0296                                      u1790 00B9  
                                    u1950 029C                                      u1791 00B8  
                                    u1855 03E0                                      u1951 029B  
                                    u1960 02A1                                      u1865 03E4  
                                    u1961 02A0                                      u1875 03E8  
                                    u1885 03EC                                      u1895 03F1  
                                    u1977 03C0                                      u1987 039B  
                                    i1l60 0024                                      i1l61 0024  
                                    i1l55 0012                   _TMR1_HasOverflowOccured 05AF  
                                    _PLLR 04D6                                      _TMR0 0015  
                                    _TMR2 001A                                      _WPUB 020D  
                                    _WPUE 0210                       ECCP3_CallBack@HI_us 0071  
                     ECCP3_CallBack@LO_us 0070                           __end_of_POS_OFF 0594  
                                    _main 026C                                      fsr0h 0005  
                                    fsr1h 0007                                      indf0 0000  
                                    fsr0l 0004                                      indf1 0001  
                                    fsr1l 0006                                      _step 0049  
                                    btemp 007E                       ECCP3_CallBack@fHead 003A  
                     __end_of_LoPe_DRL_ON 052C                                      start 0026  
                   ??_EPWM1_LoadDutyValue 004E                                _LoBeam_OFF 056B  
                 __end_of_TMR0_Initialize 04AD            ??_TMR0_DefaultInterruptHandler 0076  
           __end_of_OSCILLATOR_Initialize 0520                                     ?_main 0076  
                         _TMR1_StartTimer 05A9                                     _T1CON 0018  
                                   _T2CON 001C                                     _P2_ON 0597  
                                   i1l234 04DF                                     i1l174 0498  
                                   i1l184 05BA                                     i1l178 0513  
                                   i1l570 015E                                     i1l571 017F  
                         _TMR0_WriteTimer 057A                                     i1l574 0190  
                                   i1l568 01CB                                     i1l585 01FA  
                                   i1l579 01BD                                     i1l589 04BF  
                           _DRL_Gradually 0468                                     _TMR1H 0017  
                                   _TMR1L 0016                                     u80_20 0149  
                                   u80_21 0148                                     u81_20 0157  
                                   u81_21 0156                                     _TRISA 008C  
                                   _TRISB 008D                                     _TRISC 008E  
                                   _TRISE 0090                                     u90_20 01D2  
                                   u82_20 017C                                     u90_21 01D1  
                                   u82_21 017B                                     u91_20 01E5  
                                   u83_20 0187                                     u91_21 01E4  
                                   u83_21 0186                                     u91_25 01E1  
                                   u84_20 0195                                     u76_20 04BC  
                                   u84_21 0194                                     u76_21 04BB  
                                   u85_20 019B                                     u85_21 019A  
                                   u86_20 01A5                                     u78_20 050E  
                                   u86_21 01A4                                     u78_21 050D  
                                   u87_24 01AA                                     u87_25 01A9  
                                   u88_24 01B7                                     u88_25 01B6  
                                   u89_20 01C7                                     u89_21 01C6  
               ?_TMR0_SetInterruptHandler 004C                __end_of_Exception_handling 035F  
                        __end_of_TMR0_ISR 0499                   __end_of_PIN_MANAGER_IOC 05BA  
                          _WDT_Initialize 057F                           ??_POS_Gradually 004C  
                 __end_of_TMR1_Initialize 04ED                                     pclath 000A  
                                   status 0003                                     wtemp0 007E  
                         _TMR2_StartTimer 05A0              ECCP3_CallBack@pluse_width_HI 002F  
            ECCP3_CallBack@pluse_width_LO 0031                      __end_of_getFrameData 026C  
                         _TMR1_WriteTimer 04C0                           __initialization 0028  
                            __end_of_main 02B8                               ?_HiBeam_OFF 0076  
                 __end_of_TMR2_Initialize 0553               ?_INTERRUPT_InterruptManager 0076  
                                  ??_main 0052                            ?_DRL_Gradually 0076  
         ECCP3_CallBack@falling_edge_time 002D                                    ?_P2_ON 0076  
                         _TMR2_WriteTimer 0570                                 ??_DRL_OFF 004C  
                  __end_of_WDT_Initialize 0583                 ??_TMR1_HasOverflowOccured 004C  
                               ??_POS_OFF 004C                                    _CCPR1H 0292  
                                  _CCPR2H 0299                                    _CCPR3H 0312  
                                  _CCPR1L 0291                                    _CCPR2L 0298  
                                  _CCPR3L 0311                               _LoPe_DRL_ON 0520  
                                  _APFCON 011D                                    _ANSELA 018C  
                                  _ANSELB 018D                                    _BORCON 0116  
                                  _T1GCON 0019                                    _P2_OFF 0594  
                                  u102_20 0492                                    u102_21 0491  
                 TMR1_WriteTimer@timerVal 004C                                    i1l2111 0181  
                                  i1l2103 0158                                    i1l2121 019D  
                                  i1l2113 0187                                    i1l2131 01C7  
                                  i1l2123 019F                                    i1l2115 018C  
                                  i1l2107 0176                                    i1l2141 01EC  
                                  i1l2133 01C8                                    i1l2125 01A5  
                                  i1l2117 0195                                    i1l2109 017C  
                                  i1l2143 01F8                                    i1l2127 01B2  
                                  i1l2119 019B                                    i1l2135 01CC  
                                  i1l2071 0507                                    i1l2231 0492  
                                  i1l2137 01D2                                    i1l2129 01C1  
                                  i1l2073 050E                                    i1l2233 0495  
                                  i1l2139 01E5                                    i1l2235 04D1  
                                  i1l2227 0481                                    i1l2093 0142  
                                  i1l2237 04D3                                    i1l2229 0482  
                                  i1l2095 0149                                    i1l2239 04D8  
                                  i1l2097 0151                                    i1l2099 0157  
                                  i1l2551 0016                                    i1l2553 001B  
                                  i1l2545 0006                                    i1l2555 0020  
                                  i1l2547 000A                                    i1l1941 04B6  
                                  i1l2549 000E                                    i1l1943 04BC  
                                  _DRL_ON 035F                                    i1l1945 04BE  
                                  i1l1939 04AD                                    u140_20 001B  
                                  u140_21 001A                                    u141_20 0020  
                                  u141_21 001F                                    u137_20 000A  
                                  u137_21 0009                                    u138_20 000E  
                                  u138_21 000D                                    u139_20 0016  
                                  u139_21 0015                                    _OSCCON 0099  
                                  _TMR2IF 0089                  ??_POS_Slow_extinguishing 004C  
                                  _WDTCON 0097                                    _POS_ON 0583  
                         _fPOS_Gradually2 0040                               LED_output@i 0051  
             __end_of_Exception_handling2 032D                                    _fClear 0044  
                            _CCPTMRS0bits 029E                              ?_TMR0_Reload 0076  
                             ?_LoBeam_OFF 0076            ECCP3_CallBack@rising_edge_time 002B  
                 __end_of_TMR1_StartTimer 05AC                              ?_TMR1_Reload 0076  
                                  _csFlag 0072                   __end_of_TMR0_WriteTimer 057F  
                        ?_TMR0_Initialize 0076                                _fLamp_Conf 003E  
                          POS_Gradually@i 004E                  ?_TMR2_HasOverflowOccured 0076  
                       ?_ECCP3_CaptureISR 0076                         __end_of_HiBeam_ON 058E  
                         ?_WDT_Initialize 0076                        ??_ECCP3_CaptureISR 007A  
                 POS_Slow_extinguishing@i 004E                     __end_of_TMR0_CallBack 0514  
                     _EPWM2_LoadDutyValue 0430                   __end_of_TMR2_StartTimer 05A3  
TMR0_SetInterruptHandler@InterruptHandler 004C                          ?_PIN_MANAGER_IOC 0076  
                   ECCP3_CallBack@diff_us 003C                   __end_of_TMR1_WriteTimer 04D1  
                        ?_TMR1_Initialize 0076                         _SYSTEM_Initialize 0414  
                 __end_of__initialization 0036                         __end_of_LoBeam_ON 0565  
                      ?_SYSTEM_Initialize 0076                             __end_of_P2_ON 059A  
                       ?_EPWM1_Initialize 0076                            __pcstackCOMMON 0076  
                    ?_EPWM2_LoadDutyValue 004C                       ??_SYSTEM_Initialize 004E  
                               ?_TMR0_ISR 0076                   __end_of_TMR2_WriteTimer 0575  
                      ??_EPWM1_Initialize 004C                           ??_DRL_Gradually 004C  
                        ?_TMR2_Initialize 0076                                __end_of_CS 02F8  
                                 ??_P2_ON 004C                   ??_TMR0_10MS_EvenHandler 0076  
                          _OPTION_REGbits 0095                     TMR0_ISR@CountCallBack 0033  
                 ??_Clear_No_Call_Warning 0050                         ?_EPWM2_Initialize 0076  
                            ??_LED_output 004E                 __end_of_SYSTEM_Initialize 0430  
                       ?_ECCP3_Initialize 0076                        ??_EPWM2_Initialize 004C  
                              __pbssBANK0 0020                                   ?_P2_OFF 0076  
                                 ?_DRL_ON 0076                   _TMR2_LoadPeriodRegister 0575  
                      ??_ECCP3_Initialize 004C                                   ?_POS_ON 0076  
                   LED_output@fLampSignal 0050                                __pmaintext 026C  
                   ??_EPWM2_LoadDutyValue 004E          __end_of_TMR0_SetInterruptHandler 055F  
                        ?_TMR1_StartTimer 0076                                ??_TMR0_ISR 0077  
                              __pintentry 0004                          ?_TMR0_WriteTimer 0076  
         __end_of_TMR2_HasOverflowOccured 0538                                   _CCP1CON 0293  
                                 _CCP2CON 029A                                   _CCP3CON 0313  
                                 _ECCP1AS 0295                                   _ECCP2AS 029C  
                      __end_of_LED_output 0142                              _getFrameData 01FB  
                                 _DRL_OFF 058E                                   _OSCTUNE 0098  
                                 _PWM1CON 0294                                   _PWM2CON 029B  
                                 _POS_OFF 0591                          ?_TMR2_StartTimer 0076  
                        ?_TMR1_WriteTimer 004C               __end_of_EPWM1_LoadDutyValue 0468  
                      _Exception_handling 032D                                 _T10MS_CNT 0047  
                     ?_Exception_handling 0076                              ??_HiBeam_OFF 004C  
                        ?_TMR2_WriteTimer 0076                                   _fUnlock 0045  
                TMR1_ReadTimer@readValLow 004D                    _POS_Slow_extinguishing 03B4  
                          _ECCP3_CallBack 0142                                   __ptext1 01FB  
                                 __ptext2 03D6                                   __ptext3 0414  
                                 __ptext4 057F                                   __ptext5 054B  
                                 __ptext6 04E0                                   __ptext7 0499  
                                 __ptext8 0559                                   __ptext9 03F7  
               TMR1_ReadTimer@readValHigh 004C                                 _T1CONbits 0018  
                   _OSCILLATOR_Initialize 0514                                 _T2CONbits 001C  
                           ??_check_input 004C                    ECCP3_CaptureISR@module 007A  
                ??_PIN_MANAGER_Initialize 004C                             _data_1byte_OK 004B  
                                 _rx_data 0074                 ??_TMR2_LoadPeriodRegister 004C  
                    ??_Exception_handling 004F                              ?_LoPe_DRL_ON 0076  
                                 clrloop0 0554                      end_of_initialization 0036  
                   __end_of_POS_Gradually 03B4                        __end_of_HiBeam_OFF 059D  
                            ??_LoBeam_OFF 004C                    __end_of_ECCP3_CallBack 01FB  
                          _TMR0_ReadTimer 05B5                    ECCP3_CallBack@data_cnt 0039  
                        ??_WDT_Initialize 004C                  _TMR0_SetInterruptHandler 0559  
                               _PORTBbits 000D                            _TMR1_ReadTimer 0565  
                               _HiBeam_ON 058B                          _fLoPe_DRL_In_use 003D  
                      __end_of_LoBeam_OFF 0570                            _TMR2_ReadTimer 05A3  
                     __end_of_check_input 03F7                   TMR2_WriteTimer@timerVal 004C  
                          __end_of_P2_OFF 0597                            __end_of_DRL_ON 038F  
                          __end_of_POS_ON 0587                                 _LoBeam_ON 055F  
                  __end_of_TMR0_ReadTimer 05B8                           ?_ECCP3_CallBack 0076  
                          _TMR1_StopTimer 05A6                    ?_OSCILLATOR_Initialize 0076  
                  __end_of_TMR1_ReadTimer 056B                  ?_TMR1_HasOverflowOccured 0076  
        TMR2_LoadPeriodRegister@periodVal 004C                       start_initialization 0028  
           __end_of_TMR0_10MS_EvenHandler 04C0                            _TMR2_StopTimer 059D  
                  __end_of_TMR2_ReadTimer 05A6             __end_of_Clear_No_Call_Warning 05B9  
                              ?_HiBeam_ON 0076                            LED_output@crc8 004F  
            EPWM1_LoadDutyValue@dutyValue 004C                                  ??_P2_OFF 004C  
                                ??_DRL_ON 004E                                  ??_POS_ON 004C  
                          _fPOS_Gradually 0041                                ?_LoBeam_ON 0076  
              ?_TMR1_CheckGateValueStatus 0076                           ?_TMR0_ReadTimer 0076  
                               _fFrame_OK 004A                    __end_of_TMR1_StopTimer 05A9  
__end_of_TMR1_StartSinglePulseAcquisition 05AF        ??_TMR1_StartSinglePulseAcquisition 004C  
       ?_TMR1_StartSinglePulseAcquisition 0076          _TMR1_StartSinglePulseAcquisition 05AC  
                   __end_of_DRL_Gradually 0481                           ?_TMR1_ReadTimer 0076  
                                ?_DRL_OFF 0076                    __end_of_TMR2_StopTimer 05A0  
                             __pbssCOMMON 0070                               _check_input 03D6  
                               ___latbits 0002                             __pcstackBANK0 004C  
                         ?_TMR2_ReadTimer 0076                                  ?_POS_OFF 0076  
             __end_of_EPWM2_LoadDutyValue 044C                     _TMR0_InterruptHandler 0035  
                  _PIN_MANAGER_Initialize 03F7         __end_of_TMR1_CheckGateValueStatus 05B5  
                 ?_POS_Slow_extinguishing 0076           __end_of_TMR1_HasOverflowOccured 05B2  
                         ?_TMR1_StopTimer 0076              ??_INTERRUPT_InterruptManager 007C  
                         ?_TMR2_StopTimer 0076                               ??_HiBeam_ON 004C  
                           _TMR0_CallBack 0507                   _TMR2_HasOverflowOccured 052C  
                       ??_TMR0_Initialize 004E                          _ECCP3_CaptureISR 04D1  
                                _LATAbits 010C                                  _LATBbits 010D  
                                _LATCbits 010E                                 clear_ram0 0553  
                                _PIE3bits 0093                ??_TMR0_SetInterruptHandler 004E  
                                _PIR1bits 0011                                  _PIR3bits 0013  
          __end_of_POS_Slow_extinguishing 03D6                             ??_TMR0_Reload 004C  
                             ??_LoBeam_ON 004C                             ??_TMR1_Reload 004E  
                                _TMR0_ISR 0481                                  _PSTR1CON 0296  
                                _PSTR2CON 029D                         ??_PIN_MANAGER_IOC 004C  
                       ??_TMR1_Initialize 004C                             _fLamp_RL_Side 003F  
                        _EPWM1_Initialize 04FA                            _fDRL_Gradually 0042  
                          ?_TMR0_CallBack 0076                       _Exception_handling2 02F8  
                       ??_TMR2_Initialize 004C                          ??_ECCP3_CallBack 0078  
                        _EPWM2_Initialize 04ED                                _T10MS_CNT1 0046  
                        _ECCP3_Initialize 0538                   ??_OSCILLATOR_Initialize 004C  
             ECCP3_CallBack@capturedValue 0076              ECCP3_CallBack@rise_edge_flag 003B  
                    ?_Exception_handling2 0076                       __end_of_TMR0_Reload 058B  
                     __end_of_TMR1_Reload 054B                  ?_TMR2_LoadPeriodRegister 0076  
                                _data_buf 0020                 ??_TMR2_HasOverflowOccured 004C  
                                __ptext10 0514                                  __ptext11 04ED  
                                __ptext20 0468                                  __ptext12 04FA  
                                __ptext21 058E                                  __ptext13 0538  
                              _T1GCONbits 0019                                  __ptext30 059A  
                                __ptext22 02F8                                  __ptext14 003A  
                                __ptext31 05B8                                  __ptext23 03B4  
                                __ptext15 0583                                  __ptext40 05AC  
                                __ptext32 0570                                  __ptext24 0591  
                                __ptext16 0520                                  __ptext41 0542  
                                __ptext33 059D                                  __ptext25 0594  
                                __ptext17 055F                                  __ptext50 0430  
                                __ptext42 04C0                                  __ptext34 05A0  
                                __ptext26 032D                                  __ptext18 058B  
                                __ptext51 044C                                  __ptext43 0565  
                                __ptext35 05A3                                  __ptext27 038F  
                                __ptext19 035F                                  __ptext44 05AF  
                                __ptext36 0575                                  __ptext28 0597  
                                __ptext53 0481                                  __ptext45 05B2  
                                __ptext37 052C                                  __ptext29 056B  
                                __ptext54 0507                                  __ptext46 057A  
                                __ptext38 05A6                                  __ptext55 04AD  
                                __ptext47 0587                                  __ptext39 05A9  
                                __ptext56 05BA                                  __ptext48 05B5  
                                __ptext57 04D1                                  __ptext49 05B9  
                                __ptext58 0142                         ??_TMR1_StartTimer 004C  
                 TMR0_WriteTimer@timerVal 004C                         ??_TMR0_WriteTimer 004C  
                        ??_TMR0_ReadTimer 004C      __end_of_TMR0_DefaultInterruptHandler 05BB  
            _TMR0_DefaultInterruptHandler 05BA               ??_TMR1_CheckGateValueStatus 004C  
                        ??_TMR1_ReadTimer 004C                                  int$flags 007E  
                       ??_TMR2_StartTimer 004C        __end_of_INTERRUPT_InterruptManager 0026  
              _INTERRUPT_InterruptManager 0004                     ??_Exception_handling2 004F  
                       ??_TMR1_WriteTimer 004E                             ?_getFrameData 0076  
                        ??_TMR2_ReadTimer 004C                                _INTCONbits 000B  
                            ?_check_input 0076                           ??_TMR0_CallBack 0077  
                         _fReceive_failed 0043                            DRL_Gradually@i 004D  
                              _LED_output 003A                     _TMR0_10MS_EvenHandler 04AD  
                                intlevel1 0000                     _Clear_No_Call_Warning 05B8  
                       ??_TMR2_WriteTimer 004C              EPWM2_LoadDutyValue@dutyValue 004C  
                 ?_PIN_MANAGER_Initialize 0076                             _POS_Gradually 038F  
                        ??_TMR1_StopTimer 004C             ?_TMR0_DefaultInterruptHandler 0076  
                             _TMR0_Reload 0587                               _TMR1_Reload 0542  
                        ??_TMR2_StopTimer 004C           __end_of_TMR2_LoadPeriodRegister 057A  
                           __pstringtext1 02B8                            ??_getFrameData 004C  
                __end_of_ECCP3_CaptureISR 04E0                                _OPTION_REG 0095  
                         _TMR0_Initialize 0499                       _EPWM1_LoadDutyValue 044C  
               _TMR1_CheckGateValueStatus 05B2                             ??_LoPe_DRL_ON 004C  
          __end_of_PIN_MANAGER_Initialize 0414                            ?_POS_Gradually 0076  
                         _PIN_MANAGER_IOC 05B9                           _TMR1_Initialize 04E0  
                __end_of_EPWM1_Initialize 0507                      ?_EPWM1_LoadDutyValue 004C  
